Certificate:
    Data:
        Version: 3 (0x2)
        Serial Number: 1 (0x1)
    Signature Algorithm: sha1WithRSAEncryption
        Issuer: C=RS, ST=Serbia, L=Belgrade, O=CodeRed, OU=Security, CN=Client CA
        Validity
            Not Before: Mar 31 11:55:54 2018 GMT
            Not After : Mar 31 11:55:54 2019 GMT
        Subject: O=Code Red, OU=Security, CN=username
        Subject Public Key Info:
            Public Key Algorithm: rsaEncryption
                Public-Key: (4096 bit)
                Modulus:
                    00:b9:91:64:10:19:ae:58:49:cf:d9:20:7c:5f:13:
                    ee:20:46:73:ce:eb:89:f4:c6:92:57:94:b6:7e:7d:
                    42:60:db:6a:d4:05:af:c6:f4:46:77:8e:97:18:b6:
                    3b:f8:fd:ea:80:5d:9d:a2:60:e0:a9:28:e6:e9:ef:
                    8b:11:fb:1f:a9:63:27:ca:64:59:31:66:98:aa:0f:
                    3b:d1:49:19:d7:d8:3f:7a:61:68:3e:f8:17:74:f8:
                    aa:23:22:be:72:39:c8:75:a5:ef:0f:df:1c:43:e5:
                    ca:52:6f:d1:62:06:62:dc:64:78:ad:d5:b8:c1:50:
                    a5:cb:30:a0:23:dc:33:bf:ca:a8:41:89:a6:4c:83:
                    01:34:87:86:76:24:1a:a8:75:9b:32:4e:ae:f2:c4:
                    8a:b6:dd:d8:e9:34:bc:e0:39:2e:69:42:62:ca:de:
                    62:fb:83:18:eb:1a:80:f0:9f:21:fe:c7:b9:03:de:
                    24:a6:ce:b2:8a:ce:4b:c3:67:55:36:7d:17:36:61:
                    dd:51:be:16:97:4b:d4:f5:8b:f7:57:6c:cc:a0:b3:
                    ba:d1:71:c7:20:b7:8f:11:38:64:4c:74:77:50:45:
                    39:01:4a:1c:f3:52:0c:51:02:49:72:c6:61:46:27:
                    f5:ba:76:88:8a:57:44:47:99:ef:d4:3c:fc:5f:6a:
                    5b:3a:76:b5:68:17:d2:0e:28:c8:41:c7:cf:56:ed:
                    0d:17:d0:4a:d3:ea:7c:6d:b9:b4:9e:2f:7a:d8:35:
                    00:0c:1a:e6:bc:0e:2c:2b:d6:aa:3e:f1:d0:8c:87:
                    18:ce:a6:00:38:81:84:a7:01:80:0c:1f:30:1a:2d:
                    3a:76:df:c3:2f:55:6b:df:b7:10:2d:6b:7b:39:aa:
                    f0:54:03:9c:28:b9:2b:c5:a8:ff:e7:78:e2:20:7a:
                    3c:42:f1:22:11:49:cc:0c:cd:56:79:45:9f:53:3c:
                    61:dc:52:1f:95:f6:7a:51:74:75:60:0b:cf:35:88:
                    df:5f:35:4b:61:9d:50:7d:9f:a6:b0:c7:1e:24:c2:
                    b0:c4:37:77:52:d6:75:e1:22:ca:f0:69:ab:3a:d2:
                    e7:36:fc:ed:fb:21:c8:00:2c:dd:ac:60:0e:d0:b1:
                    36:76:e1:b8:86:42:4e:e5:68:0d:e8:17:ac:db:92:
                    9d:5a:64:82:92:54:66:96:a4:af:40:29:06:97:11:
                    1a:84:20:51:c4:eb:8a:a2:a0:24:79:b0:96:cc:e9:
                    29:ab:09:c9:7d:01:4d:ba:ae:aa:9f:e8:03:52:52:
                    b8:cf:40:71:f4:eb:03:45:5e:11:7e:e0:55:bc:2c:
                    fd:f8:15:64:6f:db:89:4a:e1:73:f9:ba:44:b0:0f:
                    90:2d:0f
                Exponent: 65537 (0x10001)
        X509v3 extensions:
            X509v3 Key Usage: critical
                Digital Signature, Key Encipherment
            X509v3 Basic Constraints: 
                CA:FALSE
            X509v3 Extended Key Usage: 
                E-mail Protection, TLS Web Client Authentication
            X509v3 Subject Key Identifier: 
                5F:B7:CC:6C:AC:AC:25:43:34:48:FB:6F:16:8F:A0:60:48:98:F8:07
            X509v3 Authority Key Identifier: 
                keyid:40:4E:DB:7F:82:7A:7D:C2:97:CA:E6:8E:20:04:79:BE:F7:EB:CA:B7

            X509v3 Subject Alternative Name: 
                email:provided@email.com
    Signature Algorithm: sha1WithRSAEncryption
         63:e8:dd:ed:49:01:f7:f3:a0:12:59:1a:13:25:89:d1:54:f2:
         51:06:de:ec:f4:94:eb:46:0d:07:c1:1f:4a:52:e7:ae:63:0a:
         db:7e:67:63:25:92:12:77:56:60:f3:eb:36:7b:27:df:e0:ad:
         f5:84:9b:a7:42:a5:d0:7e:a9:d2:48:96:a9:7a:61:75:38:d4:
         b1:d7:b0:ea:fd:f5:c7:58:89:c4:fd:9d:1a:17:7e:5b:7b:19:
         b4:d9:7f:34:4e:58:0c:67:f7:ed:e6:89:99:3b:26:d8:a0:b9:
         b6:6d:10:27:cb:93:6a:f5:a8:5d:9a:dc:3e:53:8e:8d:08:eb:
         33:fe:0a:a1:2d:ab:7c:f1:f1:4c:71:7a:ce:d1:85:f2:c0:10:
         8a:6c:50:13:2e:98:b8:d0:64:e6:7a:77:3e:e6:41:53:f8:aa:
         61:c3:98:ea:ee:2a:ea:70:73:75:2c:58:d1:f7:c9:2c:7f:eb:
         1f:54:48:0e:40:dc:ee:14:52:ee:44:ee:c9:49:75:cb:3d:38:
         ce:66:7b:5c:3c:86:6e:c3:84:0c:6d:17:75:01:2e:76:64:3f:
         be:42:54:1d:b6:b4:20:5f:04:bc:75:0f:b3:a0:c2:5b:9c:43:
         56:3b:7b:1e:ac:f2:73:67:61:9a:e5:6a:53:11:d1:6c:78:81:
         ec:46:67:0c:e4:a2:5a:e3:21:3f:71:99:57:76:de:d9:49:a0:
         33:80:62:08:01:45:a3:ea:32:c6:9a:8b:e1:b5:6c:fb:35:d6:
         d1:27:ed:51:cc:99:36:15:2c:31:f7:b0:10:68:d6:ff:29:30:
         e4:d2:4a:2a:5a:c5:24:b0:20:e5:6a:4e:5a:f4:72:ee:9a:67:
         06:f7:80:d7:29:02:0c:bb:31:34:f9:8c:0c:b9:0c:9b:f3:76:
         a8:d1:72:2c:ad:d7:02:48:95:6b:f1:a4:82:4b:e3:c3:6e:e0:
         c9:d4:15:61:32:d7:c8:f2:99:fb:20:1a:fe:2c:20:f3:b8:4f:
         49:4d:94:d7:f7:07:f9:e3:d0:19:63:a8:24:fb:b9:dd:a1:4e:
         33:b1:72:35:76:4d:b9:e6:c4:01:1b:9c:2d:44:af:61:11:00:
         b6:5d:0e:5c:e8:fb:43:c1:11:0c:c0:66:80:e5:f3:28:ef:84:
         9b:1b:89:09:a0:a3:7f:cd:91:d8:4e:6d:76:ca:c4:30:89:f3:
         97:3f:c9:73:7e:52:9b:ea:cd:b2:3c:b7:0f:e7:74:1d:e1:7c:
         df:d0:4a:49:25:c3:2a:4a:cb:fd:86:69:81:28:64:c7:e8:47:
         bf:af:48:5f:68:84:7a:e1:2b:19:e0:6c:5c:59:e1:32:46:66:
         5b:bc:ae:e1:5e:cc:21:3e
-----BEGIN CERTIFICATE-----
MIIFuzCCA6OgAwIBAgIBATANBgkqhkiG9w0BAQUFADBqMQswCQYDVQQGEwJSUzEP
MA0GA1UECAwGU2VyYmlhMREwDwYDVQQHDAhCZWxncmFkZTEQMA4GA1UECgwHQ29k
ZVJlZDERMA8GA1UECwwIU2VjdXJpdHkxEjAQBgNVBAMMCUNsaWVudCBDQTAeFw0x
ODAzMzExMTU1NTRaFw0xOTAzMzExMTU1NTRaMDkxETAPBgNVBAoMCENvZGUgUmVk
MREwDwYDVQQLDAhTZWN1cml0eTERMA8GA1UEAwwIdXNlcm5hbWUwggIiMA0GCSqG
SIb3DQEBAQUAA4ICDwAwggIKAoICAQC5kWQQGa5YSc/ZIHxfE+4gRnPO64n0xpJX
lLZ+fUJg22rUBa/G9EZ3jpcYtjv4/eqAXZ2iYOCpKObp74sR+x+pYyfKZFkxZpiq
DzvRSRnX2D96YWg++Bd0+KojIr5yOch1pe8P3xxD5cpSb9FiBmLcZHit1bjBUKXL
MKAj3DO/yqhBiaZMgwE0h4Z2JBqodZsyTq7yxIq23djpNLzgOS5pQmLK3mL7gxjr
GoDwnyH+x7kD3iSmzrKKzkvDZ1U2fRc2Yd1RvhaXS9T1i/dXbMygs7rRcccgt48R
OGRMdHdQRTkBShzzUgxRAklyxmFGJ/W6doiKV0RHme/UPPxfals6drVoF9IOKMhB
x89W7Q0X0ErT6nxtubSeL3rYNQAMGua8Diwr1qo+8dCMhxjOpgA4gYSnAYAMHzAa
LTp238MvVWvftxAta3s5qvBUA5wouSvFqP/neOIgejxC8SIRScwMzVZ5RZ9TPGHc
Uh+V9npRdHVgC881iN9fNUthnVB9n6awxx4kwrDEN3dS1nXhIsrwaas60uc2/O37
IcgALN2sYA7QsTZ24biGQk7laA3oF6zbkp1aZIKSVGaWpK9AKQaXERqEIFHE64qi
oCR5sJbM6SmrCcl9AU26rqqf6ANSUrjPQHH06wNFXhF+4FW8LP34FWRv24lK4XP5
ukSwD5AtDwIDAQABo4GcMIGZMA4GA1UdDwEB/wQEAwIFoDAJBgNVHRMEAjAAMB0G
A1UdJQQWMBQGCCsGAQUFBwMEBggrBgEFBQcDAjAdBgNVHQ4EFgQUX7fMbKysJUM0
SPtvFo+gYEiY+AcwHwYDVR0jBBgwFoAUQE7bf4J6fcKXyuaOIAR5vvfryrcwHQYD
VR0RBBYwFIEScHJvdmlkZWRAZW1haWwuY29tMA0GCSqGSIb3DQEBBQUAA4ICAQBj
6N3tSQH386ASWRoTJYnRVPJRBt7s9JTrRg0HwR9KUueuYwrbfmdjJZISd1Zg8+s2
eyff4K31hJunQqXQfqnSSJapemF1ONSx17Dq/fXHWInE/Z0aF35bexm02X80TlgM
Z/ft5omZOybYoLm2bRAny5Nq9ahdmtw+U46NCOsz/gqhLat88fFMcXrO0YXywBCK
bFATLpi40GTmenc+5kFT+Kphw5jq7irqcHN1LFjR98ksf+sfVEgOQNzuFFLuRO7J
SXXLPTjOZntcPIZuw4QMbRd1AS52ZD++QlQdtrQgXwS8dQ+zoMJbnENWO3serPJz
Z2Ga5WpTEdFseIHsRmcM5KJa4yE/cZlXdt7ZSaAzgGIIAUWj6jLGmovhtWz7NdbR
J+1RzJk2FSwx97AQaNb/KTDk0koqWsUksCDlak5a9HLummcG94DXKQIMuzE0+YwM
uQyb83ao0XIsrdcCSJVr8aSCS+PDbuDJ1BVhMtfI8pn7IBr+LCDzuE9JTZTX9wf5
49AZY6gk+7ndoU4zsXI1dk255sQBG5wtRK9hEQC2XQ5c6PtDwREMwGaA5fMo74Sb
G4kJoKN/zZHYTm12ysQwifOXP8lzflKb6s2yPLcP53Qd4Xzf0EpJJcMqSsv9hmmB
KGTH6Ee/r0hfaIR64SsZ4GxcWeEyRmZbvK7hXswhPg==
-----END CERTIFICATE-----
