Certificate:
    Data:
        Version: 3 (0x2)
        Serial Number: 4 (0x4)
    Signature Algorithm: sha1WithRSAEncryption
        Issuer: C=RS, ST=Serbia, L=Belgrade, O=CodeRed, OU=Security, CN=Client CA
        Validity
            Not Before: Mar 31 12:18:10 2018 GMT
            Not After : Mar 31 12:18:10 2019 GMT
        Subject: O=Code Red, OU=Security, CN=username
        Subject Public Key Info:
            Public Key Algorithm: rsaEncryption
                Public-Key: (4096 bit)
                Modulus:
                    00:a4:ef:f7:5a:08:3c:88:47:cc:2b:83:f2:11:90:
                    59:31:fc:d0:23:a7:4b:98:b9:59:f2:42:b0:97:1d:
                    6a:ae:68:5d:29:c8:42:cb:bb:bb:f4:7e:68:33:b6:
                    dc:18:e8:83:11:fe:2d:82:df:70:ee:bc:2c:a7:5c:
                    ce:52:6b:09:de:b7:e4:9d:91:c7:df:6d:0a:44:ce:
                    1e:93:7a:4c:29:fd:de:d8:86:33:79:6a:38:cc:d4:
                    ff:db:f3:de:86:04:b4:98:e8:4e:e8:0c:b4:ed:d3:
                    e8:b6:00:ce:83:9d:e3:41:43:47:05:30:0e:f2:00:
                    3b:e4:21:07:28:6b:50:3f:9b:76:e5:03:18:3d:e5:
                    6a:ad:50:e5:9b:7b:5c:33:07:36:8e:59:62:cd:e6:
                    ad:00:fb:a4:ae:b7:dc:88:21:4f:50:ec:cd:f0:a6:
                    94:ad:50:01:0a:98:6c:c3:ad:a7:fc:1e:43:e0:2b:
                    2b:fe:bd:41:1e:48:b8:f8:fb:e7:2e:7f:0c:08:2f:
                    a3:4e:4c:a3:ce:d0:ef:2b:4d:93:71:7a:28:bf:e3:
                    e6:a9:1b:49:32:d3:ce:f8:4d:2e:8f:12:b6:79:69:
                    ec:e1:49:7d:0c:06:5d:8c:c4:5f:81:f9:9a:a6:6f:
                    67:54:8b:3c:46:9f:9c:be:8a:ee:41:9c:f0:df:c0:
                    b7:12:46:54:59:4a:96:c4:22:60:26:72:3d:55:54:
                    23:91:21:cb:a4:68:f1:a3:f4:44:88:d8:65:d5:3c:
                    d7:c5:68:fb:85:50:56:45:29:f4:83:9b:59:c0:2b:
                    ba:74:fc:41:1c:ab:88:50:0e:4f:29:f9:07:b2:99:
                    28:62:d6:ff:bb:af:82:ad:67:f2:68:16:f5:c1:0a:
                    e3:98:66:be:d6:c9:b0:bf:2b:27:ee:2f:1d:04:bf:
                    4d:49:82:f1:11:f5:c6:56:a5:bf:7a:0c:b4:54:35:
                    97:40:0a:2a:cf:9a:ee:1a:72:e5:19:63:f5:c6:60:
                    15:77:b9:71:64:d2:06:13:72:de:86:78:cb:4c:f7:
                    40:18:15:13:73:6f:ec:51:81:b3:0f:54:f7:d4:69:
                    15:0c:43:85:62:32:3a:4a:5d:87:06:81:dd:c1:37:
                    12:87:6d:1a:6a:72:62:74:a4:04:94:cd:74:ef:a8:
                    e6:47:7b:e6:7d:98:52:69:54:30:91:d2:91:13:3c:
                    28:5c:aa:8b:34:4c:8c:22:f2:9b:2d:70:5c:3e:29:
                    5f:84:a5:91:14:19:4b:22:e6:83:25:4b:12:4f:78:
                    52:b9:16:8d:c4:6a:f4:dc:55:82:a4:ca:73:f6:ef:
                    12:17:76:80:73:04:71:9a:b9:c8:82:85:c9:95:d2:
                    bc:7a:89
                Exponent: 65537 (0x10001)
        X509v3 extensions:
            X509v3 Key Usage: critical
                Digital Signature, Key Encipherment
            X509v3 Basic Constraints: 
                CA:FALSE
            X509v3 Extended Key Usage: 
                TLS Web Client Authentication
            X509v3 Subject Key Identifier: 
                F4:2D:89:D7:97:38:04:FC:FC:69:77:5D:39:34:79:CD:67:C4:67:B0
            X509v3 Authority Key Identifier: 
                keyid:40:4E:DB:7F:82:7A:7D:C2:97:CA:E6:8E:20:04:79:BE:F7:EB:CA:B7

            X509v3 Subject Alternative Name: 
                email:provided@email.com
    Signature Algorithm: sha1WithRSAEncryption
         01:85:66:80:93:05:8a:9c:9a:74:e2:7a:03:b5:d8:61:f4:4b:
         b5:c6:ee:8c:45:b3:cb:61:64:cc:e8:71:e5:8e:ad:59:8d:57:
         61:2f:01:79:4c:2d:01:01:1a:45:fc:e1:42:8d:61:11:f8:63:
         d7:0a:24:8d:e1:30:e8:7b:7f:40:ed:d4:62:64:d1:e6:74:1e:
         b5:44:63:d8:25:3b:b7:47:61:34:d9:5c:e2:07:7e:22:69:14:
         cf:93:58:55:12:d4:9f:3a:20:22:95:7d:84:d7:f2:01:1b:c5:
         c5:08:da:44:2c:f0:44:22:b9:50:eb:03:39:53:4e:e1:1b:cd:
         c3:93:cf:27:2f:e7:65:6a:98:b1:75:2c:a3:4d:fa:82:ce:18:
         a4:ab:f9:6e:53:ef:b8:a1:bf:01:16:3d:ab:68:02:c7:1f:df:
         41:41:5b:eb:93:cc:c1:d6:df:22:4b:42:20:9b:23:ae:73:23:
         cd:47:d0:99:a4:c9:e2:a5:d9:04:57:f3:a8:8d:8c:5a:06:51:
         21:2c:8c:7c:41:fc:65:59:91:4d:25:6c:7e:bc:8f:9b:60:27:
         e6:d6:07:8f:87:61:dc:39:52:c5:b7:9d:b4:2c:c9:05:84:b8:
         b7:b4:c5:de:96:ae:3e:df:09:35:06:dd:49:a2:6a:f2:bf:2d:
         c9:aa:a5:da:7c:f9:36:61:d1:c9:98:30:ea:8e:25:94:2c:9d:
         e6:d1:d4:d8:09:44:b8:29:05:a6:46:83:26:77:91:99:68:19:
         2c:b0:cc:e1:f8:36:01:b1:30:bc:30:a4:f7:90:3b:fe:62:46:
         c8:49:3e:b6:6c:64:ff:1e:c2:ad:e7:da:bf:8a:70:a6:98:67:
         9a:9e:6b:a4:4e:50:f6:8f:e8:2d:9c:6b:fe:6a:cb:c7:50:82:
         43:79:1d:e2:76:14:6b:32:3a:b0:33:ac:b6:20:89:c0:b8:02:
         d7:33:f0:d8:4e:4a:0a:0b:4f:3d:1f:74:af:45:da:b2:2d:5d:
         de:1e:17:4a:f1:db:b2:7f:87:91:14:23:07:43:54:8c:03:b2:
         52:f1:1d:05:e6:68:5b:94:f3:ad:95:7a:5e:0b:72:99:42:25:
         d3:ab:e5:a3:67:89:87:d1:c6:de:65:c7:92:00:fd:c8:76:62:
         a2:09:6b:4a:cd:50:ed:85:04:38:d8:3f:1e:20:67:df:d8:6e:
         cf:07:10:12:64:d4:a6:39:f7:68:8f:9f:a6:57:52:70:f8:b3:
         6f:84:5b:ff:51:c6:da:4b:91:ad:49:7f:1f:de:15:17:b9:12:
         2f:75:b3:f0:2b:28:08:42:d1:bd:ac:e1:98:75:c8:7a:21:82:
         2f:00:54:e2:96:e2:03:df
-----BEGIN CERTIFICATE-----
MIIFsTCCA5mgAwIBAgIBBDANBgkqhkiG9w0BAQUFADBqMQswCQYDVQQGEwJSUzEP
MA0GA1UECAwGU2VyYmlhMREwDwYDVQQHDAhCZWxncmFkZTEQMA4GA1UECgwHQ29k
ZVJlZDERMA8GA1UECwwIU2VjdXJpdHkxEjAQBgNVBAMMCUNsaWVudCBDQTAeFw0x
ODAzMzExMjE4MTBaFw0xOTAzMzExMjE4MTBaMDkxETAPBgNVBAoMCENvZGUgUmVk
MREwDwYDVQQLDAhTZWN1cml0eTERMA8GA1UEAwwIdXNlcm5hbWUwggIiMA0GCSqG
SIb3DQEBAQUAA4ICDwAwggIKAoICAQCk7/daCDyIR8wrg/IRkFkx/NAjp0uYuVny
QrCXHWquaF0pyELLu7v0fmgzttwY6IMR/i2C33DuvCynXM5Sawnet+SdkcffbQpE
zh6Tekwp/d7YhjN5ajjM1P/b896GBLSY6E7oDLTt0+i2AM6DneNBQ0cFMA7yADvk
IQcoa1A/m3blAxg95WqtUOWbe1wzBzaOWWLN5q0A+6Sut9yIIU9Q7M3wppStUAEK
mGzDraf8HkPgKyv+vUEeSLj4++cufwwIL6NOTKPO0O8rTZNxeii/4+apG0ky0874
TS6PErZ5aezhSX0MBl2MxF+B+Zqmb2dUizxGn5y+iu5BnPDfwLcSRlRZSpbEImAm
cj1VVCORIcukaPGj9ESI2GXVPNfFaPuFUFZFKfSDm1nAK7p0/EEcq4hQDk8p+Qey
mShi1v+7r4KtZ/JoFvXBCuOYZr7WybC/KyfuLx0Ev01JgvER9cZWpb96DLRUNZdA
CirPmu4acuUZY/XGYBV3uXFk0gYTct6GeMtM90AYFRNzb+xRgbMPVPfUaRUMQ4Vi
MjpKXYcGgd3BNxKHbRpqcmJ0pASUzXTvqOZHe+Z9mFJpVDCR0pETPChcqos0TIwi
8pstcFw+KV+EpZEUGUsi5oMlSxJPeFK5Fo3EavTcVYKkynP27xIXdoBzBHGauciC
hcmV0rx6iQIDAQABo4GSMIGPMA4GA1UdDwEB/wQEAwIFoDAJBgNVHRMEAjAAMBMG
A1UdJQQMMAoGCCsGAQUFBwMCMB0GA1UdDgQWBBT0LYnXlzgE/Pxpd105NHnNZ8Rn
sDAfBgNVHSMEGDAWgBRATtt/gnp9wpfK5o4gBHm+9+vKtzAdBgNVHREEFjAUgRJw
cm92aWRlZEBlbWFpbC5jb20wDQYJKoZIhvcNAQEFBQADggIBAAGFZoCTBYqcmnTi
egO12GH0S7XG7oxFs8thZMzoceWOrVmNV2EvAXlMLQEBGkX84UKNYRH4Y9cKJI3h
MOh7f0Dt1GJk0eZ0HrVEY9glO7dHYTTZXOIHfiJpFM+TWFUS1J86ICKVfYTX8gEb
xcUI2kQs8EQiuVDrAzlTTuEbzcOTzycv52VqmLF1LKNN+oLOGKSr+W5T77ihvwEW
PatoAscf30FBW+uTzMHW3yJLQiCbI65zI81H0JmkyeKl2QRX86iNjFoGUSEsjHxB
/GVZkU0lbH68j5tgJ+bWB4+HYdw5UsW3nbQsyQWEuLe0xd6Wrj7fCTUG3UmiavK/
Lcmqpdp8+TZh0cmYMOqOJZQsnebR1NgJRLgpBaZGgyZ3kZloGSywzOH4NgGxMLww
pPeQO/5iRshJPrZsZP8ewq3n2r+KcKaYZ5qea6ROUPaP6C2ca/5qy8dQgkN5HeJ2
FGsyOrAzrLYgicC4Atcz8NhOSgoLTz0fdK9F2rItXd4eF0rx27J/h5EUIwdDVIwD
slLxHQXmaFuU862Vel4LcplCJdOr5aNniYfRxt5lx5IA/ch2YqIJa0rNUO2FBDjY
Px4gZ9/Ybs8HEBJk1KY592iPn6ZXUnD4s2+EW/9RxtpLka1Jfx/eFRe5Ei91s/Ar
KAhC0b2s4Zh1yHohgi8AVOKW4gPf
-----END CERTIFICATE-----
