Certificate:
    Data:
        Version: 3 (0x2)
        Serial Number: 6 (0x6)
    Signature Algorithm: sha1WithRSAEncryption
        Issuer: C=RS, ST=Serbia, L=Belgrade, O=CodeRed, OU=Security, CN=Client CA
        Validity
            Not Before: Mar 31 12:24:03 2018 GMT
            Not After : Mar 31 12:24:03 2019 GMT
        Subject: O=Code Red, OU=Security, CN=username
        Subject Public Key Info:
            Public Key Algorithm: rsaEncryption
                Public-Key: (4096 bit)
                Modulus:
                    00:b1:86:01:97:3e:f4:12:0a:b4:5d:e9:e4:d3:25:
                    16:5b:0f:bd:0c:36:76:69:8e:35:b1:ad:88:26:62:
                    1c:29:dd:e3:65:9a:c5:0b:7b:bf:47:82:ef:39:67:
                    6a:bd:6d:ba:07:b3:74:08:3d:50:2d:45:4a:1f:26:
                    06:76:84:6b:04:af:ed:8d:d3:23:97:de:ad:f2:fc:
                    63:a5:8d:c2:b3:78:a5:94:c3:25:0e:e9:23:a1:bf:
                    0c:c1:16:2f:f2:d9:ba:e3:df:5f:ea:ca:3e:16:a4:
                    b0:52:f8:52:4d:72:b2:3e:c9:9a:7b:5c:a2:94:3c:
                    76:e9:36:20:ce:2f:d3:19:2a:46:7a:91:78:6e:5b:
                    14:e2:75:02:04:0a:05:80:6c:7a:84:28:40:6a:b5:
                    03:a5:a7:6a:79:98:39:75:90:e3:86:c6:69:2e:16:
                    ae:90:c8:a0:bb:ca:ae:0d:58:64:12:e9:3f:9f:59:
                    4a:ef:19:8e:53:76:1f:26:9c:f8:0d:95:f8:f0:53:
                    66:10:0a:04:d9:b2:f3:5d:9d:7c:a4:3f:a3:80:a1:
                    15:67:9f:3d:34:8d:8a:ab:67:ba:d1:06:96:1b:3c:
                    4f:e3:d9:44:d6:21:3e:51:e3:0c:f1:84:df:0e:8f:
                    eb:61:97:18:93:ec:f6:12:38:b0:6e:65:2c:e5:64:
                    dc:d3:7e:43:3c:db:eb:c2:3a:2f:af:cb:32:98:3f:
                    3e:70:e2:9b:c7:b5:b6:76:c4:b4:44:e4:dc:67:03:
                    b5:24:01:9a:f0:79:7d:99:ab:59:bd:90:a1:d5:c4:
                    ee:1b:2d:cd:3a:69:32:b3:46:d1:86:40:f3:b2:f8:
                    66:c6:cb:b0:2d:6a:30:b4:aa:2e:e0:6b:9c:94:18:
                    e4:4c:c1:17:94:f9:ad:19:5b:f1:42:2d:3e:85:42:
                    c7:d6:26:d6:db:a1:80:ea:84:01:85:19:ca:79:e5:
                    22:f5:9d:1e:67:60:34:b0:f3:11:d2:60:9f:c1:e2:
                    72:ad:4d:3e:3c:20:a6:1e:24:31:a9:35:16:95:56:
                    e2:f1:ec:c4:b7:1f:0c:2e:c6:ce:2f:76:ef:1d:fa:
                    e9:82:3f:26:67:f0:98:bf:77:29:04:8a:b4:59:c6:
                    3f:39:6c:0b:66:82:db:df:59:fe:40:ab:a8:2f:d9:
                    e2:49:b5:53:e9:20:bb:c3:f3:31:ad:bd:44:59:f1:
                    8d:e3:02:45:d4:42:e4:d6:53:fb:e5:5d:4d:94:37:
                    cd:0e:b9:21:4e:5a:d1:e8:87:79:79:08:be:9f:8a:
                    42:39:1c:5b:62:29:22:9f:56:ba:c2:a1:e3:d6:21:
                    70:0e:98:b7:89:b8:86:14:42:85:19:e6:ae:ca:e8:
                    3e:a5:25
                Exponent: 65537 (0x10001)
        X509v3 extensions:
            X509v3 Key Usage: critical
                Digital Signature, Key Encipherment
            X509v3 Basic Constraints: 
                CA:FALSE
            X509v3 Extended Key Usage: 
                TLS Web Client Authentication
            X509v3 Subject Key Identifier: 
                71:93:4A:A9:A3:FF:A3:D8:C1:F8:72:C7:5B:17:20:9B:FD:62:8D:6C
            X509v3 Authority Key Identifier: 
                keyid:40:4E:DB:7F:82:7A:7D:C2:97:CA:E6:8E:20:04:79:BE:F7:EB:CA:B7

            X509v3 Subject Alternative Name: 
                email:provided@email.com
    Signature Algorithm: sha1WithRSAEncryption
         97:44:b3:8e:4b:99:b5:31:b5:c4:f9:37:4f:42:5b:c9:d0:77:
         d2:d8:47:2c:fa:be:ff:bf:ac:c0:bf:fb:9f:b1:b7:39:ca:b0:
         1c:7c:bd:8e:c1:d7:58:85:e7:19:bc:e4:e1:66:30:51:18:58:
         8a:8a:78:63:45:4b:5c:38:87:e8:9d:05:03:95:a8:e7:11:b2:
         cf:f9:52:de:7b:15:4b:ad:71:cb:2c:50:ac:dc:ab:0b:91:8a:
         36:8a:bc:ae:a3:a0:23:4a:b3:56:09:14:4d:c5:49:49:af:69:
         2d:f1:02:49:f3:7c:5d:98:f1:0b:11:40:f6:97:e2:37:06:64:
         d2:b1:99:76:18:d3:4f:ef:1e:e8:24:e4:d6:5e:3c:7c:37:a8:
         93:28:86:09:bc:5f:8d:db:c2:f3:08:8f:23:5f:2b:2a:57:aa:
         6b:06:6e:9a:95:0b:b0:3f:2f:92:21:0c:1b:d6:cb:9c:c0:8f:
         81:48:1c:5a:43:e8:9e:48:c0:6d:25:66:22:3a:1c:0d:03:f5:
         4c:29:ea:ab:5f:c7:d8:97:f6:2f:0f:86:a9:94:fe:51:93:ce:
         fb:33:28:56:62:0e:e3:a6:d6:78:4a:c4:de:a3:09:28:81:61:
         25:87:91:ce:96:c9:c8:e7:de:e1:80:c5:8b:8f:cc:4a:6a:60:
         24:a7:25:ba:3b:b0:b5:82:c5:5e:98:35:95:25:a2:e6:23:9a:
         77:b9:1b:48:19:5e:55:da:30:f3:57:0b:9b:95:be:88:67:9a:
         f8:4f:d1:1c:28:9d:15:e3:2c:4e:85:f7:64:90:31:f8:3e:c9:
         cb:10:b2:0f:10:f6:81:4d:76:bb:fe:13:f7:14:60:60:61:17:
         01:e5:c0:0c:4a:62:6f:34:ff:52:ab:22:73:cc:bd:c2:74:7c:
         6e:57:7a:d2:9f:fd:14:97:2d:c4:4f:b7:e0:6d:b4:11:2d:98:
         50:5b:ab:bb:fd:2c:09:d2:67:64:8b:43:1f:9c:8d:53:7a:00:
         d4:02:d3:56:22:61:42:a9:77:50:09:da:cf:3a:35:0c:71:75:
         e1:aa:df:c8:b8:5d:7a:ec:2f:2d:85:36:de:14:aa:89:2b:5b:
         58:f7:b7:b7:61:8e:41:79:9d:4f:0d:2d:8d:df:06:4b:07:bb:
         92:6b:a5:fd:a7:09:fd:7d:98:bb:1e:14:7b:20:de:13:50:22:
         83:88:3d:e4:16:4b:bd:3f:fb:02:07:8a:2f:58:cf:7b:c4:a0:
         2a:48:d3:05:3e:19:a0:5b:1d:60:ce:5a:72:3c:d1:1a:8c:da:
         42:d9:f4:0e:0a:71:aa:90:3a:ca:05:61:8b:b6:ba:35:ae:13:
         aa:c1:76:3e:ac:50:34:b9
-----BEGIN CERTIFICATE-----
MIIFsTCCA5mgAwIBAgIBBjANBgkqhkiG9w0BAQUFADBqMQswCQYDVQQGEwJSUzEP
MA0GA1UECAwGU2VyYmlhMREwDwYDVQQHDAhCZWxncmFkZTEQMA4GA1UECgwHQ29k
ZVJlZDERMA8GA1UECwwIU2VjdXJpdHkxEjAQBgNVBAMMCUNsaWVudCBDQTAeFw0x
ODAzMzExMjI0MDNaFw0xOTAzMzExMjI0MDNaMDkxETAPBgNVBAoMCENvZGUgUmVk
MREwDwYDVQQLDAhTZWN1cml0eTERMA8GA1UEAwwIdXNlcm5hbWUwggIiMA0GCSqG
SIb3DQEBAQUAA4ICDwAwggIKAoICAQCxhgGXPvQSCrRd6eTTJRZbD70MNnZpjjWx
rYgmYhwp3eNlmsULe79Hgu85Z2q9bboHs3QIPVAtRUofJgZ2hGsEr+2N0yOX3q3y
/GOljcKzeKWUwyUO6SOhvwzBFi/y2brj31/qyj4WpLBS+FJNcrI+yZp7XKKUPHbp
NiDOL9MZKkZ6kXhuWxTidQIECgWAbHqEKEBqtQOlp2p5mDl1kOOGxmkuFq6QyKC7
yq4NWGQS6T+fWUrvGY5Tdh8mnPgNlfjwU2YQCgTZsvNdnXykP6OAoRVnnz00jYqr
Z7rRBpYbPE/j2UTWIT5R4wzxhN8Oj+thlxiT7PYSOLBuZSzlZNzTfkM82+vCOi+v
yzKYPz5w4pvHtbZ2xLRE5NxnA7UkAZrweX2Zq1m9kKHVxO4bLc06aTKzRtGGQPOy
+GbGy7AtajC0qi7ga5yUGORMwReU+a0ZW/FCLT6FQsfWJtbboYDqhAGFGcp55SL1
nR5nYDSw8xHSYJ/B4nKtTT48IKYeJDGpNRaVVuLx7MS3Hwwuxs4vdu8d+umCPyZn
8Ji/dykEirRZxj85bAtmgtvfWf5Aq6gv2eJJtVPpILvD8zGtvURZ8Y3jAkXUQuTW
U/vlXU2UN80OuSFOWtHoh3l5CL6fikI5HFtiKSKfVrrCoePWIXAOmLeJuIYUQoUZ
5q7K6D6lJQIDAQABo4GSMIGPMA4GA1UdDwEB/wQEAwIFoDAJBgNVHRMEAjAAMBMG
A1UdJQQMMAoGCCsGAQUFBwMCMB0GA1UdDgQWBBRxk0qpo/+j2MH4csdbFyCb/WKN
bDAfBgNVHSMEGDAWgBRATtt/gnp9wpfK5o4gBHm+9+vKtzAdBgNVHREEFjAUgRJw
cm92aWRlZEBlbWFpbC5jb20wDQYJKoZIhvcNAQEFBQADggIBAJdEs45LmbUxtcT5
N09CW8nQd9LYRyz6vv+/rMC/+5+xtznKsBx8vY7B11iF5xm85OFmMFEYWIqKeGNF
S1w4h+idBQOVqOcRss/5Ut57FUutccssUKzcqwuRijaKvK6joCNKs1YJFE3FSUmv
aS3xAknzfF2Y8QsRQPaX4jcGZNKxmXYY00/vHugk5NZePHw3qJMohgm8X43bwvMI
jyNfKypXqmsGbpqVC7A/L5IhDBvWy5zAj4FIHFpD6J5IwG0lZiI6HA0D9Uwp6qtf
x9iX9i8PhqmU/lGTzvszKFZiDuOm1nhKxN6jCSiBYSWHkc6Wycjn3uGAxYuPzEpq
YCSnJbo7sLWCxV6YNZUlouYjmne5G0gZXlXaMPNXC5uVvohnmvhP0RwonRXjLE6F
92SQMfg+ycsQsg8Q9oFNdrv+E/cUYGBhFwHlwAxKYm80/1KrInPMvcJ0fG5XetKf
/RSXLcRPt+BttBEtmFBbq7v9LAnSZ2SLQx+cjVN6ANQC01YiYUKpd1AJ2s86NQxx
deGq38i4XXrsLy2FNt4UqokrW1j3t7dhjkF5nU8NLY3fBksHu5Jrpf2nCf19mLse
FHsg3hNQIoOIPeQWS70/+wIHii9Yz3vEoCpI0wU+GaBbHWDOWnI80RqM2kLZ9A4K
caqQOsoFYYu2ujWuE6rBdj6sUDS5
-----END CERTIFICATE-----
