Certificate:
    Data:
        Version: 3 (0x2)
        Serial Number: 7 (0x7)
    Signature Algorithm: sha1WithRSAEncryption
        Issuer: C=RS, ST=Serbia, L=Belgrade, O=CodeRed, OU=Security, CN=Client CA
        Validity
            Not Before: Mar 31 12:25:23 2018 GMT
            Not After : Mar 31 12:25:23 2019 GMT
        Subject: O=Code Red, OU=Security, CN=username
        Subject Public Key Info:
            Public Key Algorithm: rsaEncryption
                Public-Key: (4096 bit)
                Modulus:
                    00:ef:17:54:04:c1:6e:37:2d:bc:81:d2:b6:5a:fc:
                    33:e8:b9:e0:83:0b:02:37:de:4c:0e:5b:56:ff:69:
                    18:cf:c3:f5:59:48:04:bd:e5:08:52:0e:c0:c2:09:
                    af:b0:fb:18:31:d7:82:a7:04:49:cf:9e:a6:94:3d:
                    f7:06:25:8d:0b:19:4b:70:dc:12:20:23:46:04:6d:
                    9b:60:e2:0d:7c:e6:4b:db:15:9f:be:a7:60:66:5e:
                    a8:fe:9e:16:77:6d:e0:be:63:4b:53:a5:47:79:dd:
                    a2:00:39:67:b2:25:a7:16:8e:17:29:10:8a:b9:43:
                    8a:17:8a:39:d2:22:d9:9e:76:36:b6:bb:1d:51:13:
                    fa:32:46:56:5c:90:13:4f:60:1d:eb:a1:7e:40:42:
                    11:73:a9:d6:64:78:ed:09:70:54:66:ae:8f:dc:10:
                    cd:89:b7:fb:ef:41:d5:40:d7:cb:a0:7d:a9:18:af:
                    5b:98:e5:7c:0f:15:8c:d1:ba:8b:30:a1:d2:bd:82:
                    2e:9f:fa:42:b2:97:c9:87:ab:11:43:1d:e6:c9:25:
                    d7:d4:13:77:ec:20:3a:7b:62:dd:ac:19:04:0f:08:
                    ed:2a:43:22:7e:34:c2:56:a6:33:39:0c:3f:ae:82:
                    20:3d:de:05:37:69:60:5e:f8:75:6f:22:70:a0:85:
                    16:f8:21:a3:a4:96:62:79:b6:3a:36:e5:bd:50:eb:
                    aa:4e:ba:aa:17:20:f9:3a:6a:ed:df:79:02:76:e1:
                    ce:ae:98:7d:18:9d:fb:a0:25:a0:cf:d1:b9:c2:22:
                    c0:48:c3:0d:c1:b9:94:65:67:b1:46:5d:2c:5d:64:
                    ed:f7:d8:bf:72:f6:15:2e:f0:f6:a6:42:bd:39:e4:
                    cc:ca:c8:d5:4c:eb:84:0e:ce:f8:68:8b:95:b7:fb:
                    06:1f:23:2e:a7:35:5d:24:9c:c1:6b:d7:65:43:2c:
                    fe:84:98:1a:63:ae:0c:08:b8:da:ef:31:5a:02:4d:
                    89:1c:44:58:a3:30:ae:9a:9d:06:ec:46:dd:df:ba:
                    d8:64:e0:26:ab:1a:36:08:82:17:66:9b:60:57:7c:
                    e2:51:23:14:24:84:9a:90:d1:d2:4d:a3:05:df:26:
                    cc:c3:1a:0b:59:e3:01:d5:dd:c4:30:9a:c6:83:ae:
                    66:b8:69:50:cb:de:46:8d:d6:2c:e9:17:7b:97:02:
                    48:19:5f:2f:aa:8f:f2:b9:5e:75:f5:b0:bb:5f:42:
                    f9:1f:05:bb:ae:ef:4a:0c:2f:76:ea:d1:23:43:06:
                    7c:ff:6f:d6:dc:bf:be:d1:16:1c:cd:a8:44:81:35:
                    0f:24:32:6a:a8:e0:9a:40:9a:35:62:36:cd:41:58:
                    cb:16:55
                Exponent: 65537 (0x10001)
        X509v3 extensions:
            X509v3 Key Usage: critical
                Digital Signature, Key Encipherment
            X509v3 Basic Constraints: 
                CA:FALSE
            X509v3 Extended Key Usage: 
                TLS Web Client Authentication
            X509v3 Subject Key Identifier: 
                04:1A:64:F1:81:CD:62:01:9A:32:DD:27:32:BF:4E:79:02:2E:B9:38
            X509v3 Authority Key Identifier: 
                keyid:40:4E:DB:7F:82:7A:7D:C2:97:CA:E6:8E:20:04:79:BE:F7:EB:CA:B7

            X509v3 Subject Alternative Name: 
                email:provided@email.com
    Signature Algorithm: sha1WithRSAEncryption
         99:e0:64:e1:56:1e:8d:75:8e:a4:27:05:71:d6:dc:ff:1c:08:
         84:6d:42:0a:8f:37:4e:be:4a:b8:4e:83:2f:9c:0b:f8:8c:56:
         b0:bb:ba:69:cf:9b:92:8a:6c:59:60:ef:a3:a4:8c:99:8f:fa:
         ef:3f:4f:f0:41:d4:26:70:c4:c4:07:e9:93:16:2e:4b:41:78:
         88:63:93:17:d3:49:d7:ef:2b:dc:24:1d:2a:09:f8:1d:ab:cf:
         e5:16:18:e1:47:5c:2b:08:b5:24:01:6a:d5:35:e3:21:6a:c5:
         39:18:c9:d9:10:07:70:93:d6:56:be:2d:ef:e0:29:0b:7a:e3:
         85:4e:62:08:dd:d9:22:0d:7d:38:5c:d9:5f:3a:c5:08:f2:cc:
         92:b0:46:98:79:c9:7e:f5:20:30:9d:f5:24:45:0e:28:b5:01:
         12:4a:30:33:d0:5e:aa:19:71:ef:be:e0:05:df:3b:11:2f:1d:
         f7:ee:d7:ac:01:74:2d:66:ce:c9:39:7d:b1:19:9d:95:c8:46:
         cc:e5:53:3b:1c:76:6c:b1:3d:92:d9:df:64:b7:82:32:bd:da:
         d6:a5:56:dc:6c:77:f4:3b:f3:4f:85:ec:19:fe:78:bc:cc:72:
         c9:b2:7c:65:07:35:9e:3c:84:c1:1e:d1:80:df:4e:5c:17:c8:
         7b:fe:48:cf:d2:97:03:0c:21:96:dd:88:18:64:d1:cc:50:51:
         a1:29:56:3d:c9:59:85:ed:45:b3:69:4d:b3:15:e6:f7:ef:c0:
         08:98:5f:e1:8b:87:10:8d:83:fa:94:00:93:fb:a5:4e:ef:fa:
         12:7b:8e:7d:c2:bf:aa:99:70:d6:b3:99:db:7b:ca:e9:f7:31:
         59:3f:71:d1:5e:f0:73:46:ff:ed:f2:47:fd:81:31:5b:71:2b:
         24:29:c5:bb:7c:27:cb:27:06:56:32:14:7d:b6:2d:cf:b4:4d:
         9a:8f:7b:ee:4d:e0:13:fc:a6:ad:6b:47:72:d2:14:08:5e:8f:
         ad:67:d5:77:e1:b5:37:30:36:39:72:c3:e7:b6:f8:1b:46:c1:
         04:d2:25:d8:9b:44:5e:40:f7:00:54:14:ce:6b:07:be:21:3a:
         4f:38:ea:a4:13:ef:97:af:28:cc:7f:4a:c3:9b:b0:d2:87:2d:
         79:73:cb:16:8d:20:5c:df:16:a6:9b:1e:a2:49:88:be:bf:8f:
         ea:8d:b1:64:3e:45:a9:df:7b:6c:bb:52:10:5b:d7:92:38:af:
         ef:3e:4a:2a:e2:64:ca:ec:3a:83:18:ad:79:27:48:fb:cb:ea:
         31:31:41:2a:c6:9d:60:ae:69:32:5b:52:3c:57:96:b6:10:56:
         90:55:71:81:bd:ba:cb:e1
-----BEGIN CERTIFICATE-----
MIIFsTCCA5mgAwIBAgIBBzANBgkqhkiG9w0BAQUFADBqMQswCQYDVQQGEwJSUzEP
MA0GA1UECAwGU2VyYmlhMREwDwYDVQQHDAhCZWxncmFkZTEQMA4GA1UECgwHQ29k
ZVJlZDERMA8GA1UECwwIU2VjdXJpdHkxEjAQBgNVBAMMCUNsaWVudCBDQTAeFw0x
ODAzMzExMjI1MjNaFw0xOTAzMzExMjI1MjNaMDkxETAPBgNVBAoMCENvZGUgUmVk
MREwDwYDVQQLDAhTZWN1cml0eTERMA8GA1UEAwwIdXNlcm5hbWUwggIiMA0GCSqG
SIb3DQEBAQUAA4ICDwAwggIKAoICAQDvF1QEwW43LbyB0rZa/DPoueCDCwI33kwO
W1b/aRjPw/VZSAS95QhSDsDCCa+w+xgx14KnBEnPnqaUPfcGJY0LGUtw3BIgI0YE
bZtg4g185kvbFZ++p2BmXqj+nhZ3beC+Y0tTpUd53aIAOWeyJacWjhcpEIq5Q4oX
ijnSItmedja2ux1RE/oyRlZckBNPYB3roX5AQhFzqdZkeO0JcFRmro/cEM2Jt/vv
QdVA18ugfakYr1uY5XwPFYzRuoswodK9gi6f+kKyl8mHqxFDHebJJdfUE3fsIDp7
Yt2sGQQPCO0qQyJ+NMJWpjM5DD+ugiA93gU3aWBe+HVvInCghRb4IaOklmJ5tjo2
5b1Q66pOuqoXIPk6au3feQJ24c6umH0YnfugJaDP0bnCIsBIww3BuZRlZ7FGXSxd
ZO332L9y9hUu8PamQr055MzKyNVM64QOzvhoi5W3+wYfIy6nNV0knMFr12VDLP6E
mBpjrgwIuNrvMVoCTYkcRFijMK6anQbsRt3futhk4CarGjYIghdmm2BXfOJRIxQk
hJqQ0dJNowXfJszDGgtZ4wHV3cQwmsaDrma4aVDL3kaN1izpF3uXAkgZXy+qj/K5
XnX1sLtfQvkfBbuu70oML3bq0SNDBnz/b9bcv77RFhzNqESBNQ8kMmqo4JpAmjVi
Ns1BWMsWVQIDAQABo4GSMIGPMA4GA1UdDwEB/wQEAwIFoDAJBgNVHRMEAjAAMBMG
A1UdJQQMMAoGCCsGAQUFBwMCMB0GA1UdDgQWBBQEGmTxgc1iAZoy3Scyv055Ai65
ODAfBgNVHSMEGDAWgBRATtt/gnp9wpfK5o4gBHm+9+vKtzAdBgNVHREEFjAUgRJw
cm92aWRlZEBlbWFpbC5jb20wDQYJKoZIhvcNAQEFBQADggIBAJngZOFWHo11jqQn
BXHW3P8cCIRtQgqPN06+SrhOgy+cC/iMVrC7umnPm5KKbFlg76OkjJmP+u8/T/BB
1CZwxMQH6ZMWLktBeIhjkxfTSdfvK9wkHSoJ+B2rz+UWGOFHXCsItSQBatU14yFq
xTkYydkQB3CT1la+Le/gKQt644VOYgjd2SINfThc2V86xQjyzJKwRph5yX71IDCd
9SRFDii1ARJKMDPQXqoZce++4AXfOxEvHffu16wBdC1mzsk5fbEZnZXIRszlUzsc
dmyxPZLZ32S3gjK92talVtxsd/Q780+F7Bn+eLzMcsmyfGUHNZ48hMEe0YDfTlwX
yHv+SM/SlwMMIZbdiBhk0cxQUaEpVj3JWYXtRbNpTbMV5vfvwAiYX+GLhxCNg/qU
AJP7pU7v+hJ7jn3Cv6qZcNazmdt7yun3MVk/cdFe8HNG/+3yR/2BMVtxKyQpxbt8
J8snBlYyFH22Lc+0TZqPe+5N4BP8pq1rR3LSFAhej61n1XfhtTcwNjlyw+e2+BtG
wQTSJdibRF5A9wBUFM5rB74hOk846qQT75evKMx/SsObsNKHLXlzyxaNIFzfFqab
HqJJiL6/j+qNsWQ+Ranfe2y7UhBb15I4r+8+SiriZMrsOoMYrXknSPvL6jExQSrG
nWCuaTJbUjxXlrYQVpBVcYG9usvh
-----END CERTIFICATE-----
