Certificate:
    Data:
        Version: 3 (0x2)
        Serial Number: 10 (0xa)
    Signature Algorithm: sha1WithRSAEncryption
        Issuer: C=RS, ST=Serbia, L=Belgrade, O=CodeRed, OU=Security, CN=Client CA
        Validity
            Not Before: Mar 31 12:32:06 2018 GMT
            Not After : Mar 31 12:32:06 2019 GMT
        Subject: O=Code Red, OU=Security, CN=username
        Subject Public Key Info:
            Public Key Algorithm: rsaEncryption
                Public-Key: (4096 bit)
                Modulus:
                    00:b5:7e:e9:5e:be:d2:99:72:45:4d:1e:2d:f4:f4:
                    aa:4e:51:79:a5:f0:a4:1f:b4:73:c0:df:e9:0c:88:
                    20:b8:8f:29:f8:06:eb:cb:ee:f5:85:5b:8c:16:1b:
                    08:30:64:1f:5f:91:b4:f7:7c:c6:b9:0d:34:d6:fa:
                    fe:e2:23:6b:5d:83:6a:f7:02:07:e0:1b:18:83:02:
                    68:48:b9:36:8c:58:d8:ae:d5:82:42:cb:49:a5:e8:
                    6d:7a:15:b5:25:c8:12:23:0e:6a:7a:51:d2:f2:24:
                    de:99:10:27:ec:5e:0e:79:51:4a:10:97:cd:30:96:
                    de:7c:b8:c7:c5:da:e8:d4:59:fe:e3:d2:8d:b2:c2:
                    3d:7b:f4:45:af:aa:80:e4:28:0c:59:7a:98:07:99:
                    9b:7a:26:b3:f3:84:77:f9:fa:26:44:30:fc:78:ec:
                    c9:cd:7b:de:6c:02:0a:ca:e9:49:22:09:43:9b:78:
                    4c:9f:45:dd:04:37:03:89:e7:a6:a3:a5:9c:4f:a1:
                    f3:3b:fa:2c:43:d1:d7:ea:b2:28:50:38:9f:93:ac:
                    dc:9e:4b:4c:b6:2f:1a:13:8d:51:e6:d5:ec:01:12:
                    c1:82:47:f9:75:1d:27:dd:23:fd:24:bf:82:4d:ae:
                    d0:12:40:2f:33:49:91:00:4b:8b:6a:70:80:3f:6f:
                    48:8a:fe:68:98:e0:7c:71:23:de:f1:cf:94:e2:b0:
                    d6:11:bb:2a:83:88:c0:3c:5e:12:af:be:ba:91:b0:
                    34:b0:c6:2c:05:a0:7d:f0:e8:d1:e3:e9:73:a2:7b:
                    52:e9:9b:e2:11:e1:ae:b7:49:1a:a8:b6:b7:f1:03:
                    c9:81:41:4b:0b:1e:d8:b0:8c:55:bd:38:9f:2b:0c:
                    91:b4:99:79:5f:18:75:3b:0d:5e:32:61:dd:f5:a7:
                    cf:6f:a0:68:6c:85:42:a4:e2:16:de:ef:bc:e3:54:
                    11:41:58:9f:fa:ef:23:0d:ab:17:b3:27:d9:ef:ac:
                    e5:83:e0:6f:e7:6e:3c:6a:11:d8:d6:62:d1:33:7c:
                    d4:36:07:a9:86:64:2b:a2:ed:9e:91:59:8b:03:c5:
                    f7:d7:c9:b6:e6:d4:95:c9:de:bb:1a:f7:26:91:a5:
                    cf:63:f8:6e:d4:ae:e5:7e:ed:74:f9:20:70:fc:d9:
                    f6:c6:fa:c9:49:23:90:d4:09:c4:b6:4f:c8:ae:08:
                    d1:92:4e:43:3c:2a:39:b9:ca:aa:35:8b:95:e0:0b:
                    c8:31:21:6a:ed:34:eb:a1:70:8c:f3:b7:e0:c8:1f:
                    4a:2e:2f:27:08:e9:ac:e5:c9:14:05:6a:ac:6e:11:
                    74:89:43:78:7e:97:eb:b5:74:47:91:2c:b3:2e:ba:
                    c4:b0:8d
                Exponent: 65537 (0x10001)
        X509v3 extensions:
            X509v3 Key Usage: critical
                Digital Signature, Key Encipherment
            X509v3 Basic Constraints: 
                CA:FALSE
            X509v3 Extended Key Usage: 
                TLS Web Client Authentication
            X509v3 Subject Key Identifier: 
                C2:A8:5F:0B:0A:77:92:BD:B8:24:61:F5:3F:29:D4:6B:BC:F8:9B:76
            X509v3 Authority Key Identifier: 
                keyid:40:4E:DB:7F:82:7A:7D:C2:97:CA:E6:8E:20:04:79:BE:F7:EB:CA:B7

            X509v3 Subject Alternative Name: 
                email:provided@email.com
    Signature Algorithm: sha1WithRSAEncryption
         6f:a7:c0:1f:40:dd:76:c5:9f:be:a6:b9:e1:58:4f:22:b9:e1:
         1a:bf:41:70:8f:a9:99:e6:63:67:08:95:d1:ec:7d:e2:ad:35:
         e3:3b:81:f4:e0:ed:c1:26:be:8e:37:14:4f:ae:23:2a:95:7c:
         c4:bd:24:dc:88:a1:b1:61:d6:f1:9e:32:67:76:ee:91:6c:84:
         8a:2a:d7:a4:f1:25:ed:b0:39:53:09:a4:f9:67:04:68:d6:31:
         4a:9d:7a:a6:9c:08:22:39:9f:d7:74:f9:05:0e:18:ff:b0:c8:
         ed:64:da:24:06:7c:94:0d:d0:ba:a5:07:00:a7:fd:76:6f:0c:
         b5:eb:55:ee:4e:b7:17:f9:f1:ee:3f:e7:e8:70:f3:ec:94:35:
         98:0c:d9:f4:e3:71:a5:9d:1a:e9:1c:07:91:57:44:c2:f9:da:
         d3:fb:59:65:fc:25:27:78:1c:95:6f:5f:81:b6:fd:52:93:9c:
         99:77:27:47:17:76:fa:98:0d:1f:b8:0c:ee:a8:0e:56:dc:40:
         1a:b2:ad:7f:32:da:8a:e8:da:c9:9c:28:26:9e:fc:bf:79:ab:
         94:c9:a7:eb:a5:36:54:8d:a1:b5:c4:d0:ca:09:40:23:a3:02:
         21:a1:a9:ad:6b:6d:f8:1b:44:74:64:4b:8d:65:0a:be:f1:60:
         c2:2d:2d:a5:6b:4b:34:14:96:d2:a6:45:be:fe:df:b7:b9:12:
         f9:a0:94:d8:8f:b9:16:f0:a6:23:24:97:b8:18:ee:c7:b2:da:
         0c:40:a0:4d:98:07:b6:d3:64:64:86:5e:3c:24:4d:82:53:3d:
         0b:e2:84:d0:2a:98:e3:f5:cd:94:7d:f5:15:80:18:67:1e:66:
         1c:0b:07:ed:d2:f9:52:cf:c2:65:94:0e:e3:40:53:ca:53:04:
         af:51:fb:eb:a6:88:a6:29:e4:b6:f2:8f:ee:dc:87:2f:67:26:
         9f:b2:02:db:2d:2a:35:ac:6e:8c:f5:7d:9a:47:79:ea:6e:64:
         1f:ed:c5:87:97:b5:61:af:bb:e6:c5:48:82:98:38:6d:66:d5:
         38:a3:41:59:46:7d:1f:b3:5e:6a:10:00:f1:af:4e:fb:27:37:
         79:4b:41:93:df:67:aa:a3:f0:11:dd:a3:da:f7:38:e5:36:26:
         53:61:fd:94:ca:9b:a8:e8:84:4b:3d:cf:cc:11:52:b1:24:b8:
         c9:28:75:07:bd:69:c4:9f:94:ab:47:d4:e3:8c:1e:6a:01:f0:
         29:6a:70:de:64:63:87:54:b1:69:67:04:02:05:36:4c:71:74:
         7a:b7:17:2c:27:8e:18:c9:bd:72:2f:05:a5:82:71:2d:8d:54:
         eb:f1:b5:d5:a9:0a:5c:b1
-----BEGIN CERTIFICATE-----
MIIFsTCCA5mgAwIBAgIBCjANBgkqhkiG9w0BAQUFADBqMQswCQYDVQQGEwJSUzEP
MA0GA1UECAwGU2VyYmlhMREwDwYDVQQHDAhCZWxncmFkZTEQMA4GA1UECgwHQ29k
ZVJlZDERMA8GA1UECwwIU2VjdXJpdHkxEjAQBgNVBAMMCUNsaWVudCBDQTAeFw0x
ODAzMzExMjMyMDZaFw0xOTAzMzExMjMyMDZaMDkxETAPBgNVBAoMCENvZGUgUmVk
MREwDwYDVQQLDAhTZWN1cml0eTERMA8GA1UEAwwIdXNlcm5hbWUwggIiMA0GCSqG
SIb3DQEBAQUAA4ICDwAwggIKAoICAQC1fulevtKZckVNHi309KpOUXml8KQftHPA
3+kMiCC4jyn4BuvL7vWFW4wWGwgwZB9fkbT3fMa5DTTW+v7iI2tdg2r3AgfgGxiD
AmhIuTaMWNiu1YJCy0ml6G16FbUlyBIjDmp6UdLyJN6ZECfsXg55UUoQl80wlt58
uMfF2ujUWf7j0o2ywj179EWvqoDkKAxZepgHmZt6JrPzhHf5+iZEMPx47MnNe95s
AgrK6UkiCUObeEyfRd0ENwOJ56ajpZxPofM7+ixD0dfqsihQOJ+TrNyeS0y2LxoT
jVHm1ewBEsGCR/l1HSfdI/0kv4JNrtASQC8zSZEAS4tqcIA/b0iK/miY4HxxI97x
z5TisNYRuyqDiMA8XhKvvrqRsDSwxiwFoH3w6NHj6XOie1Lpm+IR4a63SRqotrfx
A8mBQUsLHtiwjFW9OJ8rDJG0mXlfGHU7DV4yYd31p89voGhshUKk4hbe77zjVBFB
WJ/67yMNqxezJ9nvrOWD4G/nbjxqEdjWYtEzfNQ2B6mGZCui7Z6RWYsDxffXybbm
1JXJ3rsa9yaRpc9j+G7UruV+7XT5IHD82fbG+slJI5DUCcS2T8iuCNGSTkM8Kjm5
yqo1i5XgC8gxIWrtNOuhcIzzt+DIH0ouLycI6azlyRQFaqxuEXSJQ3h+l+u1dEeR
LLMuusSwjQIDAQABo4GSMIGPMA4GA1UdDwEB/wQEAwIFoDAJBgNVHRMEAjAAMBMG
A1UdJQQMMAoGCCsGAQUFBwMCMB0GA1UdDgQWBBTCqF8LCneSvbgkYfU/KdRrvPib
djAfBgNVHSMEGDAWgBRATtt/gnp9wpfK5o4gBHm+9+vKtzAdBgNVHREEFjAUgRJw
cm92aWRlZEBlbWFpbC5jb20wDQYJKoZIhvcNAQEFBQADggIBAG+nwB9A3XbFn76m
ueFYTyK54Rq/QXCPqZnmY2cIldHsfeKtNeM7gfTg7cEmvo43FE+uIyqVfMS9JNyI
obFh1vGeMmd27pFshIoq16TxJe2wOVMJpPlnBGjWMUqdeqacCCI5n9d0+QUOGP+w
yO1k2iQGfJQN0LqlBwCn/XZvDLXrVe5Otxf58e4/5+hw8+yUNZgM2fTjcaWdGukc
B5FXRML52tP7WWX8JSd4HJVvX4G2/VKTnJl3J0cXdvqYDR+4DO6oDlbcQBqyrX8y
2oro2smcKCae/L95q5TJp+ulNlSNobXE0MoJQCOjAiGhqa1rbfgbRHRkS41lCr7x
YMItLaVrSzQUltKmRb7+37e5EvmglNiPuRbwpiMkl7gY7sey2gxAoE2YB7bTZGSG
XjwkTYJTPQvihNAqmOP1zZR99RWAGGceZhwLB+3S+VLPwmWUDuNAU8pTBK9R++um
iKYp5Lbyj+7chy9nJp+yAtstKjWsboz1fZpHeepuZB/txYeXtWGvu+bFSIKYOG1m
1TijQVlGfR+zXmoQAPGvTvsnN3lLQZPfZ6qj8BHdo9r3OOU2JlNh/ZTKm6johEs9
z8wRUrEkuMkodQe9acSflKtH1OOMHmoB8ClqcN5kY4dUsWlnBAIFNkxxdHq3Fywn
jhjJvXIvBaWCcS2NVOvxtdWpClyx
-----END CERTIFICATE-----
