Certificate:
    Data:
        Version: 3 (0x2)
        Serial Number: 11 (0xb)
    Signature Algorithm: sha1WithRSAEncryption
        Issuer: C=RS, ST=Serbia, L=Belgrade, O=CodeRed, OU=Security, CN=Client CA
        Validity
            Not Before: Mar 31 12:33:24 2018 GMT
            Not After : Mar 31 12:33:24 2019 GMT
        Subject: O=Code Red, OU=Security, CN=username
        Subject Public Key Info:
            Public Key Algorithm: rsaEncryption
                Public-Key: (4096 bit)
                Modulus:
                    00:93:06:f5:b5:34:15:18:2e:ee:38:6b:41:16:5f:
                    9c:39:0e:6e:c7:50:29:1a:f9:da:a9:3b:b8:e1:17:
                    d2:03:71:c8:1f:96:74:bd:df:a9:ad:a1:78:24:a9:
                    54:7f:e3:fc:54:ef:a4:f4:40:58:cb:d7:32:7a:f9:
                    91:20:bf:84:77:a8:ac:8d:57:92:3a:d0:06:77:43:
                    d9:a3:a6:03:d6:66:f0:72:2d:48:48:4e:26:1f:e0:
                    c1:6c:f4:81:2b:31:ee:81:f4:6b:e8:3b:b0:8a:bd:
                    6a:6f:7d:63:1b:ed:03:60:58:78:6f:e5:8b:4f:5c:
                    97:18:78:12:23:7f:66:61:e0:47:48:bd:2e:27:d2:
                    94:64:a7:08:38:09:57:da:43:71:e9:9a:64:05:f4:
                    ec:c4:af:52:4b:1a:0a:04:74:19:16:74:27:8f:73:
                    3d:d3:ab:7c:1f:d5:13:f5:78:fc:af:5e:69:34:a8:
                    63:29:4f:00:e1:01:3d:8a:1d:17:0b:14:36:21:37:
                    1b:d1:1c:a1:84:38:13:04:c8:21:02:cc:e3:03:fe:
                    da:e2:0c:f8:69:7a:66:9a:2f:7b:80:fd:5f:91:6f:
                    2b:e3:6a:f3:fc:08:35:3e:03:76:fe:dc:85:80:5b:
                    c5:e6:c8:de:f9:59:38:15:3c:c2:7a:15:57:79:0a:
                    d7:fc:5b:0a:d8:9a:ed:87:c9:f6:9c:38:7c:08:19:
                    21:d0:a1:96:ef:ed:e4:1a:97:9f:57:a7:6b:4a:99:
                    61:03:77:da:f8:d1:35:0d:20:a5:8e:9e:66:62:c9:
                    0b:78:3b:4c:13:57:1d:a1:d1:57:2e:de:ed:49:ac:
                    7b:d0:0b:b9:60:b2:50:06:a6:94:22:24:bd:c8:3e:
                    df:55:3b:57:69:b0:c7:d1:1b:ce:d8:f3:45:a8:c2:
                    3b:7e:4c:bb:c3:b0:30:6f:2f:aa:b4:c1:60:de:ef:
                    ae:23:13:14:83:34:fb:95:37:ca:c5:fd:1e:32:40:
                    03:51:0f:8f:b2:de:73:b2:4d:2a:0d:e3:40:84:57:
                    8b:d4:dd:18:79:b9:8b:2e:30:c6:ae:6d:f1:57:2b:
                    c7:f7:26:b7:ca:ed:b8:97:60:13:d4:06:36:9d:63:
                    90:0e:29:e0:23:9f:7d:1c:81:2d:93:e1:e4:2f:7e:
                    5e:b1:12:fd:c9:b2:f3:15:28:c1:90:bd:83:7c:52:
                    3b:a3:0c:f1:21:a3:b3:91:c1:3d:8e:4e:38:1a:70:
                    c4:d5:d9:30:88:a6:8f:c3:aa:a2:23:8c:5f:2c:3b:
                    ae:96:dd:90:5b:2b:36:cc:87:4e:52:c1:f4:47:2f:
                    bb:b4:86:33:ad:e4:87:d5:9b:72:fe:ae:f6:c7:fc:
                    11:32:8d
                Exponent: 65537 (0x10001)
        X509v3 extensions:
            X509v3 Key Usage: critical
                Digital Signature, Key Encipherment
            X509v3 Basic Constraints: 
                CA:FALSE
            X509v3 Extended Key Usage: 
                TLS Web Client Authentication
            X509v3 Subject Key Identifier: 
                30:D9:24:54:5E:78:E8:3E:58:17:9B:33:6A:69:5C:5D:DB:5C:87:04
            X509v3 Authority Key Identifier: 
                keyid:40:4E:DB:7F:82:7A:7D:C2:97:CA:E6:8E:20:04:79:BE:F7:EB:CA:B7

            X509v3 Subject Alternative Name: 
                email:provided@email.com
    Signature Algorithm: sha1WithRSAEncryption
         64:ed:24:3c:8f:2c:1c:3c:57:81:01:c7:9c:b4:06:c5:f2:f4:
         9c:c6:b1:af:94:07:f6:87:3a:77:38:52:58:7a:67:ff:e4:53:
         56:80:d2:32:7e:b6:aa:10:31:ab:8c:f8:f2:72:fd:10:42:d4:
         7e:44:7e:7a:94:27:ab:ed:cc:1d:b2:fd:57:db:cd:b1:a6:ff:
         2a:fa:f1:1b:e9:d0:b1:9b:c0:b5:20:bc:20:92:62:9c:0a:22:
         68:e9:a6:0d:ac:af:c4:44:94:f2:5c:fd:33:9a:cd:33:06:c9:
         c6:f8:ea:91:8f:0f:c0:aa:a6:7b:e4:0a:12:78:17:0e:16:c5:
         21:5e:d4:04:4f:0e:83:52:bf:28:45:ae:b8:44:97:88:93:4d:
         a1:d3:43:e6:1b:ad:28:6e:80:df:e0:ad:88:b6:63:96:23:1a:
         9d:66:31:a6:59:87:b9:bc:7c:e1:ec:a3:3d:a3:eb:23:c9:5b:
         38:f5:ed:ed:48:37:d5:b8:fd:54:54:96:38:29:89:c8:65:9b:
         32:ab:0f:36:bc:85:46:b3:5a:7e:a6:a1:9e:bb:65:d8:e2:88:
         79:16:a1:69:f3:92:22:21:39:d3:4a:7b:c4:65:bf:02:f7:76:
         fa:77:4f:5f:d3:65:05:7a:90:5e:04:07:73:89:c1:3a:b8:42:
         29:ef:9f:b3:1d:fa:6e:8b:37:33:3d:2a:ba:72:36:96:66:28:
         96:8a:bd:78:63:28:6e:1f:76:d0:5a:ae:e6:e1:5a:4a:77:fd:
         26:b2:0e:43:2e:89:d2:5a:21:f9:6a:0f:67:be:49:43:c8:3c:
         6f:d0:f9:5c:9a:8f:ab:f4:7c:3e:4a:41:e6:14:99:52:c6:36:
         a8:0e:fb:40:89:3a:44:b0:c0:77:68:55:62:b7:54:0a:b0:c1:
         eb:43:48:ea:24:36:7a:f8:20:9d:7b:d2:35:cc:4a:06:7d:7c:
         86:45:bd:f0:da:48:12:6b:d4:24:d5:fa:05:dc:b0:19:49:da:
         06:b5:74:05:e6:80:be:36:8b:f5:2e:d3:e5:17:d6:cf:1f:72:
         3b:d8:6b:5e:70:cb:a5:15:f8:2c:3e:66:9a:3a:3d:84:11:66:
         3d:68:8d:1c:7b:21:20:98:45:2a:22:19:06:29:de:4c:46:cc:
         c7:74:cc:c9:c8:d1:20:2a:66:11:17:c1:17:eb:e2:04:4c:1c:
         a2:b9:2a:21:20:e8:77:64:60:a5:a8:54:76:0f:a0:1f:a2:f7:
         a6:70:03:af:ad:61:06:46:38:d9:5b:4d:86:e3:45:59:d2:f9:
         ac:76:cc:0c:49:8e:1d:81:93:78:86:aa:f4:0a:bf:88:7f:45:
         75:17:8e:31:a0:a3:e9:ee
-----BEGIN CERTIFICATE-----
MIIFsTCCA5mgAwIBAgIBCzANBgkqhkiG9w0BAQUFADBqMQswCQYDVQQGEwJSUzEP
MA0GA1UECAwGU2VyYmlhMREwDwYDVQQHDAhCZWxncmFkZTEQMA4GA1UECgwHQ29k
ZVJlZDERMA8GA1UECwwIU2VjdXJpdHkxEjAQBgNVBAMMCUNsaWVudCBDQTAeFw0x
ODAzMzExMjMzMjRaFw0xOTAzMzExMjMzMjRaMDkxETAPBgNVBAoMCENvZGUgUmVk
MREwDwYDVQQLDAhTZWN1cml0eTERMA8GA1UEAwwIdXNlcm5hbWUwggIiMA0GCSqG
SIb3DQEBAQUAA4ICDwAwggIKAoICAQCTBvW1NBUYLu44a0EWX5w5Dm7HUCka+dqp
O7jhF9IDccgflnS936mtoXgkqVR/4/xU76T0QFjL1zJ6+ZEgv4R3qKyNV5I60AZ3
Q9mjpgPWZvByLUhITiYf4MFs9IErMe6B9GvoO7CKvWpvfWMb7QNgWHhv5YtPXJcY
eBIjf2Zh4EdIvS4n0pRkpwg4CVfaQ3HpmmQF9OzEr1JLGgoEdBkWdCePcz3Tq3wf
1RP1ePyvXmk0qGMpTwDhAT2KHRcLFDYhNxvRHKGEOBMEyCECzOMD/triDPhpemaa
L3uA/V+RbyvjavP8CDU+A3b+3IWAW8XmyN75WTgVPMJ6FVd5Ctf8WwrYmu2Hyfac
OHwIGSHQoZbv7eQal59Xp2tKmWEDd9r40TUNIKWOnmZiyQt4O0wTVx2h0Vcu3u1J
rHvQC7lgslAGppQiJL3IPt9VO1dpsMfRG87Y80Wowjt+TLvDsDBvL6q0wWDe764j
ExSDNPuVN8rF/R4yQANRD4+y3nOyTSoN40CEV4vU3Rh5uYsuMMaubfFXK8f3JrfK
7biXYBPUBjadY5AOKeAjn30cgS2T4eQvfl6xEv3JsvMVKMGQvYN8UjujDPEho7OR
wT2OTjgacMTV2TCIpo/DqqIjjF8sO66W3ZBbKzbMh05SwfRHL7u0hjOt5IfVm3L+
rvbH/BEyjQIDAQABo4GSMIGPMA4GA1UdDwEB/wQEAwIFoDAJBgNVHRMEAjAAMBMG
A1UdJQQMMAoGCCsGAQUFBwMCMB0GA1UdDgQWBBQw2SRUXnjoPlgXmzNqaVxd21yH
BDAfBgNVHSMEGDAWgBRATtt/gnp9wpfK5o4gBHm+9+vKtzAdBgNVHREEFjAUgRJw
cm92aWRlZEBlbWFpbC5jb20wDQYJKoZIhvcNAQEFBQADggIBAGTtJDyPLBw8V4EB
x5y0BsXy9JzGsa+UB/aHOnc4Ulh6Z//kU1aA0jJ+tqoQMauM+PJy/RBC1H5EfnqU
J6vtzB2y/VfbzbGm/yr68Rvp0LGbwLUgvCCSYpwKImjppg2sr8RElPJc/TOazTMG
ycb46pGPD8CqpnvkChJ4Fw4WxSFe1ARPDoNSvyhFrrhEl4iTTaHTQ+YbrShugN/g
rYi2Y5YjGp1mMaZZh7m8fOHsoz2j6yPJWzj17e1IN9W4/VRUljgpichlmzKrDza8
hUazWn6moZ67ZdjiiHkWoWnzkiIhOdNKe8RlvwL3dvp3T1/TZQV6kF4EB3OJwTq4
Qinvn7Md+m6LNzM9KrpyNpZmKJaKvXhjKG4fdtBarubhWkp3/SayDkMuidJaIflq
D2e+SUPIPG/Q+Vyaj6v0fD5KQeYUmVLGNqgO+0CJOkSwwHdoVWK3VAqwwetDSOok
Nnr4IJ170jXMSgZ9fIZFvfDaSBJr1CTV+gXcsBlJ2ga1dAXmgL42i/Uu0+UX1s8f
cjvYa15wy6UV+Cw+Zpo6PYQRZj1ojRx7ISCYRSoiGQYp3kxGzMd0zMnI0SAqZhEX
wRfr4gRMHKK5KiEg6HdkYKWoVHYPoB+i96ZwA6+tYQZGONlbTYbjRVnS+ax2zAxJ
jh2Bk3iGqvQKv4h/RXUXjjGgo+nu
-----END CERTIFICATE-----
