Certificate:
    Data:
        Version: 3 (0x2)
        Serial Number: 12 (0xc)
    Signature Algorithm: sha1WithRSAEncryption
        Issuer: C=RS, ST=Serbia, L=Belgrade, O=CodeRed, OU=Security, CN=Client CA
        Validity
            Not Before: Mar 31 12:36:04 2018 GMT
            Not After : Mar 31 12:36:04 2019 GMT
        Subject: O=Code Red, OU=Security, CN=username
        Subject Public Key Info:
            Public Key Algorithm: rsaEncryption
                Public-Key: (4096 bit)
                Modulus:
                    00:c8:a0:90:f6:92:b8:2c:57:ba:73:97:de:21:81:
                    c5:59:43:c0:4d:c2:86:b1:13:ae:5c:d0:22:8e:f5:
                    29:d0:6e:3e:fc:4e:7b:37:01:04:97:e1:b7:fc:59:
                    e0:de:bc:a3:a5:ec:b8:fe:cb:a8:a9:51:aa:a8:86:
                    89:47:a6:24:56:1f:4c:f3:77:1a:08:e4:a5:18:1c:
                    0e:2c:bd:b4:37:af:50:39:04:af:34:3a:ac:d4:7c:
                    96:77:47:b4:ab:37:81:cc:db:dd:19:fb:d2:3f:90:
                    39:21:42:f5:e0:e9:7f:e6:1e:2d:90:06:c6:30:af:
                    1c:5e:de:3e:19:07:25:23:00:91:9e:94:73:bb:e1:
                    a6:d8:43:66:c1:94:6c:f6:9d:e9:01:3d:42:86:df:
                    30:96:b7:40:df:c8:5e:d5:0c:df:e8:b2:53:82:dd:
                    a3:13:dd:d4:80:3d:51:af:dd:51:b8:1a:6d:ec:05:
                    62:0b:65:63:f5:9e:4e:2d:3c:a9:be:e0:7c:2b:12:
                    4f:da:06:bf:77:27:f5:46:3d:5c:d6:b0:26:8f:c8:
                    30:b3:64:78:d5:4a:a8:dc:58:e7:76:7d:e9:b8:65:
                    40:40:a7:d2:47:71:29:3d:f8:9c:10:ec:89:f0:3b:
                    f4:bb:1a:0d:4f:62:02:ad:85:35:a5:68:96:ed:bc:
                    21:0e:46:f7:2e:b6:66:29:e4:59:5b:2a:40:bd:22:
                    d0:86:98:4f:11:54:f4:d1:e3:1c:41:1b:74:ac:ae:
                    3d:a4:5f:75:22:01:72:c0:20:f6:c7:e4:22:f5:be:
                    e5:fe:d0:29:7e:2f:95:03:36:19:d8:98:d3:db:ec:
                    34:1e:d6:1f:88:5e:9d:3b:7f:d0:ed:71:36:f4:e2:
                    b6:5e:3c:03:09:40:c3:41:79:61:99:ae:81:ea:3a:
                    f3:7e:f2:69:ad:a3:ba:73:16:08:18:c8:f4:44:32:
                    b4:dd:bc:7a:7e:d5:7f:65:9d:d1:31:fb:c5:1f:c8:
                    25:07:84:ba:d2:6d:6c:1f:a3:3f:de:b0:05:ac:06:
                    40:7c:98:16:37:4a:1b:34:9d:63:09:49:e8:c2:3f:
                    c0:f9:bb:e4:29:de:9a:dd:5c:5d:a1:68:d3:c6:0d:
                    1e:92:e6:cf:fd:18:d4:1b:64:9c:ba:da:6a:a3:9a:
                    2e:8d:64:b6:68:83:5d:95:0d:df:ce:c8:33:f5:9f:
                    a7:45:15:91:aa:6a:0d:5c:ae:64:d7:26:03:a9:62:
                    c6:7d:4a:a8:15:9b:19:43:ea:06:cf:a3:2b:5d:2f:
                    37:79:55:89:5d:b8:7a:57:3a:94:2e:7d:f3:0c:81:
                    81:d5:4d:ae:d6:48:97:e8:69:64:c4:ca:bd:f2:82:
                    02:2f:63
                Exponent: 65537 (0x10001)
        X509v3 extensions:
            X509v3 Key Usage: critical
                Digital Signature, Key Encipherment
            X509v3 Basic Constraints: 
                CA:FALSE
            X509v3 Extended Key Usage: 
                TLS Web Client Authentication
            X509v3 Subject Key Identifier: 
                96:8D:7F:26:1A:4B:13:12:AE:97:F1:AD:5E:6C:BE:89:9E:22:A2:D3
            X509v3 Authority Key Identifier: 
                keyid:40:4E:DB:7F:82:7A:7D:C2:97:CA:E6:8E:20:04:79:BE:F7:EB:CA:B7

            X509v3 Subject Alternative Name: 
                email:provided@email.com
    Signature Algorithm: sha1WithRSAEncryption
         0b:7c:4e:4c:46:4c:18:f9:0d:4e:74:6d:96:12:54:4c:56:00:
         64:b2:eb:80:bd:01:1a:49:e0:77:5b:9e:62:f4:c0:3a:7d:96:
         6f:69:13:24:60:85:7a:55:47:7b:c4:6d:a5:e9:dd:e0:5c:d8:
         9f:49:cd:00:9c:15:4c:23:fa:d3:03:3f:35:c1:33:97:ed:30:
         b1:30:01:4c:dc:20:9c:bc:78:c1:01:f7:12:4a:55:c4:07:2a:
         3e:95:33:bc:64:9b:39:12:fb:d8:43:67:5a:13:72:63:b8:bb:
         dd:21:63:7c:52:0d:b5:ce:3f:27:af:20:09:35:cf:82:ea:b0:
         9a:42:45:e2:f2:bd:c5:0c:d9:24:c0:4b:e2:2b:1c:8a:32:d7:
         88:61:91:1e:10:49:3e:fe:ea:00:84:c0:3d:6f:2c:be:aa:a6:
         96:7a:f3:6b:bf:51:63:03:82:58:a4:8a:e3:7b:b4:ed:98:49:
         5d:cb:31:ab:1a:38:ad:06:3d:c1:e8:ef:b7:fd:09:d0:6c:38:
         32:3a:e4:9f:35:d4:ff:fd:d2:9d:54:e5:e0:bd:f4:29:8c:94:
         b9:c9:62:d7:e2:8e:d1:e1:0b:49:9f:15:23:c6:b8:1c:6b:e2:
         5e:28:e1:f5:00:a4:4f:9a:0d:2a:e8:a1:c8:6a:65:05:a2:3d:
         3f:41:7a:35:ee:1b:02:e3:1a:a6:ca:ab:30:5c:b1:3d:90:36:
         af:5d:f8:1e:5f:16:dd:99:7d:47:68:99:48:dd:97:1e:7e:a7:
         cf:79:b2:cd:d1:69:fd:f7:fc:61:37:25:d2:11:a7:8e:28:28:
         f8:20:e9:f8:6d:2b:98:a7:03:24:37:45:b6:30:b7:e0:50:32:
         dc:90:21:55:19:05:93:27:c3:25:9f:8c:b4:a3:42:c7:9c:ad:
         3b:2d:29:90:71:3c:af:6b:30:b2:bc:83:63:1d:39:90:6d:ff:
         ec:60:74:c1:c3:a9:95:02:dd:34:6c:86:ff:24:c7:23:4b:51:
         9d:d1:5b:18:77:57:30:97:c5:13:78:d9:31:4f:1e:75:e8:81:
         5b:16:da:01:6d:de:4f:20:92:4a:57:d3:9f:01:7a:fb:d9:73:
         28:18:2d:b8:ed:3b:20:53:19:27:e2:5d:bc:21:89:23:f6:67:
         8c:78:ea:5d:c0:27:af:bb:84:cf:c6:1f:39:64:ff:78:0f:4f:
         5b:7b:19:04:a8:39:a7:c8:70:1f:c1:0f:ee:90:e3:cd:1f:a6:
         0f:61:93:06:46:3f:27:ca:38:c0:c1:f0:62:9e:99:41:01:52:
         5d:f3:a9:78:4e:09:34:8c:c9:c5:0d:7f:91:04:76:06:d8:74:
         b8:cf:69:a2:a2:6e:f8:71
-----BEGIN CERTIFICATE-----
MIIFsTCCA5mgAwIBAgIBDDANBgkqhkiG9w0BAQUFADBqMQswCQYDVQQGEwJSUzEP
MA0GA1UECAwGU2VyYmlhMREwDwYDVQQHDAhCZWxncmFkZTEQMA4GA1UECgwHQ29k
ZVJlZDERMA8GA1UECwwIU2VjdXJpdHkxEjAQBgNVBAMMCUNsaWVudCBDQTAeFw0x
ODAzMzExMjM2MDRaFw0xOTAzMzExMjM2MDRaMDkxETAPBgNVBAoMCENvZGUgUmVk
MREwDwYDVQQLDAhTZWN1cml0eTERMA8GA1UEAwwIdXNlcm5hbWUwggIiMA0GCSqG
SIb3DQEBAQUAA4ICDwAwggIKAoICAQDIoJD2krgsV7pzl94hgcVZQ8BNwoaxE65c
0CKO9SnQbj78Tns3AQSX4bf8WeDevKOl7Lj+y6ipUaqoholHpiRWH0zzdxoI5KUY
HA4svbQ3r1A5BK80OqzUfJZ3R7SrN4HM290Z+9I/kDkhQvXg6X/mHi2QBsYwrxxe
3j4ZByUjAJGelHO74abYQ2bBlGz2nekBPUKG3zCWt0DfyF7VDN/oslOC3aMT3dSA
PVGv3VG4Gm3sBWILZWP1nk4tPKm+4HwrEk/aBr93J/VGPVzWsCaPyDCzZHjVSqjc
WOd2fem4ZUBAp9JHcSk9+JwQ7InwO/S7Gg1PYgKthTWlaJbtvCEORvcutmYp5Flb
KkC9ItCGmE8RVPTR4xxBG3Ssrj2kX3UiAXLAIPbH5CL1vuX+0Cl+L5UDNhnYmNPb
7DQe1h+IXp07f9DtcTb04rZePAMJQMNBeWGZroHqOvN+8mmto7pzFggYyPREMrTd
vHp+1X9lndEx+8UfyCUHhLrSbWwfoz/esAWsBkB8mBY3Shs0nWMJSejCP8D5u+Qp
3prdXF2haNPGDR6S5s/9GNQbZJy62mqjmi6NZLZog12VDd/OyDP1n6dFFZGqag1c
rmTXJgOpYsZ9SqgVmxlD6gbPoytdLzd5VYlduHpXOpQuffMMgYHVTa7WSJfoaWTE
yr3yggIvYwIDAQABo4GSMIGPMA4GA1UdDwEB/wQEAwIFoDAJBgNVHRMEAjAAMBMG
A1UdJQQMMAoGCCsGAQUFBwMCMB0GA1UdDgQWBBSWjX8mGksTEq6X8a1ebL6JniKi
0zAfBgNVHSMEGDAWgBRATtt/gnp9wpfK5o4gBHm+9+vKtzAdBgNVHREEFjAUgRJw
cm92aWRlZEBlbWFpbC5jb20wDQYJKoZIhvcNAQEFBQADggIBAAt8TkxGTBj5DU50
bZYSVExWAGSy64C9ARpJ4HdbnmL0wDp9lm9pEyRghXpVR3vEbaXp3eBc2J9JzQCc
FUwj+tMDPzXBM5ftMLEwAUzcIJy8eMEB9xJKVcQHKj6VM7xkmzkS+9hDZ1oTcmO4
u90hY3xSDbXOPyevIAk1z4LqsJpCReLyvcUM2STAS+IrHIoy14hhkR4QST7+6gCE
wD1vLL6qppZ682u/UWMDglikiuN7tO2YSV3LMasaOK0GPcHo77f9CdBsODI65J81
1P/90p1U5eC99CmMlLnJYtfijtHhC0mfFSPGuBxr4l4o4fUApE+aDSroochqZQWi
PT9BejXuGwLjGqbKqzBcsT2QNq9d+B5fFt2ZfUdomUjdlx5+p895ss3Raf33/GE3
JdIRp44oKPgg6fhtK5inAyQ3RbYwt+BQMtyQIVUZBZMnwyWfjLSjQsecrTstKZBx
PK9rMLK8g2MdOZBt/+xgdMHDqZUC3TRshv8kxyNLUZ3RWxh3VzCXxRN42TFPHnXo
gVsW2gFt3k8gkkpX058BevvZcygYLbjtOyBTGSfiXbwhiSP2Z4x46l3AJ6+7hM/G
Hzlk/3gPT1t7GQSoOafIcB/BD+6Q480fpg9hkwZGPyfKOMDB8GKemUEBUl3zqXhO
CTSMycUNf5EEdgbYdLjPaaKibvhx
-----END CERTIFICATE-----
