Certificate:
    Data:
        Version: 3 (0x2)
        Serial Number: 13 (0xd)
    Signature Algorithm: sha1WithRSAEncryption
        Issuer: C=RS, ST=Serbia, L=Belgrade, O=CodeRed, OU=Security, CN=Client CA
        Validity
            Not Before: Mar 31 12:39:10 2018 GMT
            Not After : Mar 31 12:39:10 2019 GMT
        Subject: O=Code Red, OU=Security, CN=username
        Subject Public Key Info:
            Public Key Algorithm: rsaEncryption
                Public-Key: (4096 bit)
                Modulus:
                    00:d7:81:3d:1b:b1:93:43:e5:01:ee:ce:c3:26:83:
                    48:e7:3f:22:8d:5d:40:65:8a:1a:10:ca:7a:19:24:
                    32:05:2c:ac:1e:f7:e1:32:ad:12:14:be:f9:91:01:
                    6f:c9:96:2e:1b:18:6a:24:79:bd:17:6f:9e:bd:8b:
                    7d:ba:b8:ae:95:ae:40:09:70:db:92:4c:5d:76:cd:
                    ca:34:28:24:69:59:0c:97:49:da:05:af:ef:34:38:
                    55:c8:f1:92:d9:eb:9e:02:fb:49:4f:a1:d7:8f:e5:
                    18:6c:27:da:83:c8:27:a2:42:02:b8:bd:32:85:32:
                    3a:f9:b0:15:42:4e:ea:6e:78:fb:f6:f8:aa:20:e5:
                    8b:09:5c:2d:46:7e:4a:8d:e4:51:8e:8a:d7:87:8d:
                    69:b0:4e:1b:16:80:ff:d2:c7:a6:2a:fc:3b:7b:40:
                    7a:ef:28:19:84:65:ba:26:c6:b4:48:ea:24:06:b7:
                    46:32:e7:16:2c:6a:44:58:49:fd:07:05:41:46:ac:
                    e5:6e:5c:3a:d2:8f:9d:38:a9:44:3c:45:b3:9d:29:
                    57:3c:ec:b2:0b:40:ca:cc:95:85:8a:64:b0:7e:ed:
                    a9:3e:53:04:20:c3:0f:b5:0e:9d:87:47:6c:df:bc:
                    78:d8:d2:07:ec:04:6a:f4:1d:52:4e:72:e3:e4:c7:
                    18:dd:c3:f2:8c:03:16:fc:71:c3:70:43:07:73:d0:
                    d0:5c:38:84:b5:54:55:52:73:81:ac:bb:6b:ec:ed:
                    28:81:3b:fc:8c:ca:d0:53:a7:d4:81:10:2f:69:8a:
                    fa:45:b4:b6:bc:16:08:ef:d1:95:92:9f:77:22:66:
                    53:d6:09:40:aa:c6:ba:52:b8:0e:cb:f5:11:27:54:
                    55:4f:19:c4:13:64:77:8d:1a:5b:5b:f2:d4:b1:77:
                    1a:ad:7d:97:5c:bd:e3:5e:d8:46:44:9e:c2:85:20:
                    05:e8:dc:b3:db:bb:a9:28:30:85:b9:c5:e7:c9:fb:
                    5f:ba:5d:3b:6d:14:8d:e5:cb:34:f3:2c:a1:35:55:
                    15:02:8b:9c:ac:8c:52:d5:bd:42:69:6e:9f:73:7e:
                    a8:95:d2:98:03:be:3e:51:8a:88:36:1f:81:e0:fd:
                    33:d5:6e:03:16:dd:47:c4:d1:96:21:76:95:ed:dc:
                    00:93:da:0d:73:93:1b:a9:d0:6d:f1:c7:64:5a:ef:
                    3e:00:7d:25:d9:6b:0f:85:d6:f2:90:f5:aa:19:1c:
                    94:78:87:46:1a:2d:7a:d9:28:db:9c:78:31:0d:de:
                    0b:fb:de:35:fb:cb:00:78:c3:93:bd:bb:f9:0d:40:
                    c5:c5:43:9e:41:0f:d4:da:39:c4:05:0d:62:84:37:
                    d6:1c:b3
                Exponent: 65537 (0x10001)
        X509v3 extensions:
            X509v3 Key Usage: critical
                Digital Signature, Key Encipherment
            X509v3 Basic Constraints: 
                CA:FALSE
            X509v3 Extended Key Usage: 
                TLS Web Client Authentication
            X509v3 Subject Key Identifier: 
                69:40:9D:0F:CC:65:42:E8:4A:A3:B8:E9:2B:91:92:2D:F2:4E:CD:05
            X509v3 Authority Key Identifier: 
                keyid:40:4E:DB:7F:82:7A:7D:C2:97:CA:E6:8E:20:04:79:BE:F7:EB:CA:B7

            X509v3 Subject Alternative Name: 
                email:provided@email.com
    Signature Algorithm: sha1WithRSAEncryption
         ad:d1:18:d9:cd:67:9f:97:27:f8:64:81:87:61:3c:51:cc:91:
         ce:03:6e:0d:28:6b:6d:20:c8:79:79:47:ba:1d:50:dd:67:2e:
         73:06:fd:54:ed:de:48:51:85:ba:d1:57:b5:15:8c:e6:90:8a:
         54:bb:cb:a0:32:8b:a8:e2:d6:83:96:df:ec:1f:eb:90:47:84:
         db:a5:9c:36:f7:b0:bf:23:96:63:cb:1e:80:21:1a:f1:a2:35:
         47:ab:3c:8b:26:c4:02:c7:d5:e8:53:c1:46:05:91:ae:47:b2:
         6d:18:2e:30:e3:6d:7c:a7:c2:db:c3:9a:be:83:d2:04:35:b0:
         ce:74:bf:bc:91:3b:f3:84:4d:f2:ad:50:f2:af:fd:5f:97:2a:
         eb:b0:91:dc:ec:1a:80:21:5e:d5:22:2c:65:c3:fd:ec:4a:59:
         e4:00:45:ca:86:fd:cd:a2:c8:91:a1:1e:d7:d2:54:a7:19:c5:
         29:df:67:d3:4e:9d:be:fe:83:6a:dc:4d:51:c4:71:b4:49:02:
         75:4d:62:93:8c:39:d4:dc:54:31:d2:d1:54:dd:cb:27:20:f5:
         53:c1:60:85:d6:e2:55:39:0b:74:b5:ed:0c:81:f8:b7:c5:83:
         9a:ac:ee:61:02:ab:d3:35:79:bb:f0:a9:0c:7e:db:5b:5c:30:
         8e:23:79:3d:3e:b7:e7:70:d4:cc:03:aa:f6:a2:b8:1a:a5:b4:
         26:eb:51:21:07:e0:5f:28:2b:bd:a3:69:f2:c0:04:47:a6:5b:
         82:5c:94:8c:d3:33:e6:49:ec:89:c0:74:8d:f0:62:d3:56:b4:
         57:2a:b9:2e:89:ec:47:ae:a6:a8:63:62:7b:30:b6:d8:05:99:
         cd:04:9c:59:80:b8:ad:35:82:9c:d2:6a:cf:da:4d:35:59:f3:
         de:46:8b:33:34:a4:36:03:e5:95:69:2e:fd:f5:20:88:4a:24:
         db:08:c2:fd:fb:a0:79:5a:49:88:ff:2a:d1:37:b4:f6:25:bc:
         52:35:73:d8:a4:86:78:d8:3a:b9:ff:f0:6d:d4:dd:8a:f1:fe:
         b3:91:0c:02:22:07:65:40:61:7d:62:63:68:13:f8:65:1c:cf:
         1f:57:c1:3a:23:55:82:00:1b:f1:f5:66:1a:06:87:8a:bc:20:
         0b:49:d3:4d:17:80:e6:de:54:66:06:d9:82:09:72:c4:6e:65:
         d7:8d:3b:66:5c:a7:e4:cf:cf:df:6c:7e:68:4c:92:43:30:c6:
         62:bc:ea:98:b7:65:91:c2:4b:d0:91:75:e8:19:29:c4:21:80:
         85:8b:68:01:3a:f2:96:9e:e9:05:d8:ab:eb:f2:18:0c:c6:6d:
         9e:b1:db:e4:e0:49:b2:d9
-----BEGIN CERTIFICATE-----
MIIFsTCCA5mgAwIBAgIBDTANBgkqhkiG9w0BAQUFADBqMQswCQYDVQQGEwJSUzEP
MA0GA1UECAwGU2VyYmlhMREwDwYDVQQHDAhCZWxncmFkZTEQMA4GA1UECgwHQ29k
ZVJlZDERMA8GA1UECwwIU2VjdXJpdHkxEjAQBgNVBAMMCUNsaWVudCBDQTAeFw0x
ODAzMzExMjM5MTBaFw0xOTAzMzExMjM5MTBaMDkxETAPBgNVBAoMCENvZGUgUmVk
MREwDwYDVQQLDAhTZWN1cml0eTERMA8GA1UEAwwIdXNlcm5hbWUwggIiMA0GCSqG
SIb3DQEBAQUAA4ICDwAwggIKAoICAQDXgT0bsZND5QHuzsMmg0jnPyKNXUBlihoQ
ynoZJDIFLKwe9+EyrRIUvvmRAW/Jli4bGGokeb0Xb569i326uK6VrkAJcNuSTF12
zco0KCRpWQyXSdoFr+80OFXI8ZLZ654C+0lPodeP5RhsJ9qDyCeiQgK4vTKFMjr5
sBVCTupuePv2+Kog5YsJXC1GfkqN5FGOiteHjWmwThsWgP/Sx6Yq/Dt7QHrvKBmE
ZbomxrRI6iQGt0Yy5xYsakRYSf0HBUFGrOVuXDrSj504qUQ8RbOdKVc87LILQMrM
lYWKZLB+7ak+UwQgww+1Dp2HR2zfvHjY0gfsBGr0HVJOcuPkxxjdw/KMAxb8ccNw
Qwdz0NBcOIS1VFVSc4Gsu2vs7SiBO/yMytBTp9SBEC9pivpFtLa8Fgjv0ZWSn3ci
ZlPWCUCqxrpSuA7L9REnVFVPGcQTZHeNGltb8tSxdxqtfZdcveNe2EZEnsKFIAXo
3LPbu6koMIW5xefJ+1+6XTttFI3lyzTzLKE1VRUCi5ysjFLVvUJpbp9zfqiV0pgD
vj5Riog2H4Hg/TPVbgMW3UfE0ZYhdpXt3ACT2g1zkxup0G3xx2Ra7z4AfSXZaw+F
1vKQ9aoZHJR4h0YaLXrZKNuceDEN3gv73jX7ywB4w5O9u/kNQMXFQ55BD9TaOcQF
DWKEN9YcswIDAQABo4GSMIGPMA4GA1UdDwEB/wQEAwIFoDAJBgNVHRMEAjAAMBMG
A1UdJQQMMAoGCCsGAQUFBwMCMB0GA1UdDgQWBBRpQJ0PzGVC6EqjuOkrkZIt8k7N
BTAfBgNVHSMEGDAWgBRATtt/gnp9wpfK5o4gBHm+9+vKtzAdBgNVHREEFjAUgRJw
cm92aWRlZEBlbWFpbC5jb20wDQYJKoZIhvcNAQEFBQADggIBAK3RGNnNZ5+XJ/hk
gYdhPFHMkc4Dbg0oa20gyHl5R7odUN1nLnMG/VTt3khRhbrRV7UVjOaQilS7y6Ay
i6ji1oOW3+wf65BHhNulnDb3sL8jlmPLHoAhGvGiNUerPIsmxALH1ehTwUYFka5H
sm0YLjDjbXynwtvDmr6D0gQ1sM50v7yRO/OETfKtUPKv/V+XKuuwkdzsGoAhXtUi
LGXD/exKWeQARcqG/c2iyJGhHtfSVKcZxSnfZ9NOnb7+g2rcTVHEcbRJAnVNYpOM
OdTcVDHS0VTdyycg9VPBYIXW4lU5C3S17QyB+LfFg5qs7mECq9M1ebvwqQx+21tc
MI4jeT0+t+dw1MwDqvaiuBqltCbrUSEH4F8oK72jafLABEemW4JclIzTM+ZJ7InA
dI3wYtNWtFcquS6J7EeupqhjYnswttgFmc0EnFmAuK01gpzSas/aTTVZ895GizM0
pDYD5ZVpLv31IIhKJNsIwv37oHlaSYj/KtE3tPYlvFI1c9ikhnjYOrn/8G3U3Yrx
/rORDAIiB2VAYX1iY2gT+GUczx9XwTojVYIAG/H1ZhoGh4q8IAtJ000XgObeVGYG
2YIJcsRuZdeNO2Zcp+TPz99sfmhMkkMwxmK86pi3ZZHCS9CRdegZKcQhgIWLaAE6
8pae6QXYq+vyGAzGbZ6x2+TgSbLZ
-----END CERTIFICATE-----
