Certificate:
    Data:
        Version: 3 (0x2)
        Serial Number: 14 (0xe)
    Signature Algorithm: sha1WithRSAEncryption
        Issuer: C=RS, ST=Serbia, L=Belgrade, O=CodeRed, OU=Security, CN=Client CA
        Validity
            Not Before: Mar 31 12:41:05 2018 GMT
            Not After : Mar 31 12:41:05 2019 GMT
        Subject: O=Code Red, OU=Security, CN=username
        Subject Public Key Info:
            Public Key Algorithm: rsaEncryption
                Public-Key: (4096 bit)
                Modulus:
                    00:dc:10:77:46:3c:5c:13:e2:0a:a8:7e:64:37:a1:
                    9e:1c:04:a9:8e:fb:52:13:bb:1d:c9:ea:da:01:09:
                    a8:cf:6c:a7:0d:7a:91:6d:b0:81:33:97:f9:a1:49:
                    39:da:7e:03:06:14:6a:f5:a3:c0:54:fe:4b:c9:a7:
                    0c:6f:de:d5:00:bd:d1:cf:c1:c2:f7:f8:93:69:4d:
                    dc:57:aa:44:67:b7:db:97:38:d1:70:d1:bf:8a:38:
                    a4:44:f5:d7:8e:30:da:17:67:a3:21:be:f3:af:dc:
                    a5:1b:b1:7b:bd:42:bc:9d:be:b3:7a:a9:de:62:31:
                    12:16:af:7e:37:f5:f0:15:dc:33:b9:7c:8d:b7:9d:
                    f7:80:0c:67:2f:e6:b1:90:34:fe:97:39:8c:6e:d3:
                    09:8a:e6:c8:d2:cb:b5:67:46:f2:b4:db:05:f9:a3:
                    3c:26:36:c6:65:86:0b:57:3c:b6:ca:88:5f:d9:b7:
                    36:c1:a7:ea:3e:19:25:d8:4f:10:f8:b3:28:00:d1:
                    ff:7b:0f:c5:4e:f5:55:0b:5f:cd:c1:89:90:7d:32:
                    41:ff:b6:2b:a9:9f:ff:15:95:13:2e:a7:97:4a:e6:
                    57:6e:52:12:43:d4:79:ad:6e:8b:db:0c:c6:6c:fb:
                    83:d0:c9:72:7a:30:f8:46:e1:29:e3:d4:2a:4c:8a:
                    63:fc:02:bf:09:62:9e:6f:ad:2c:95:6d:1a:1b:20:
                    a3:10:2b:59:82:f8:ac:e2:16:9f:b6:a2:1f:44:51:
                    77:df:7c:31:de:99:81:28:e6:e0:43:34:6b:97:64:
                    28:ea:1d:32:fb:26:2b:50:8c:8c:28:57:88:c2:7f:
                    ba:2c:f6:d2:d7:f1:9e:68:cd:14:40:ea:3a:78:63:
                    f6:07:d8:ab:aa:86:22:49:37:3c:dd:dc:de:76:ae:
                    c9:a2:5b:5e:0f:ca:8f:c5:d5:d7:e7:a0:b8:19:6f:
                    44:d3:a1:1e:cb:a3:01:04:94:55:c9:74:88:c2:6a:
                    88:72:1b:20:b4:8f:9f:a8:0c:8c:b9:d9:18:3e:2f:
                    98:0e:35:a0:c7:e9:07:30:32:f6:b4:e8:04:5c:13:
                    93:3d:76:6a:a8:6e:63:e6:37:49:05:b7:a3:9f:bf:
                    8c:24:38:0d:ed:ae:d9:9b:74:09:8a:a9:6d:57:20:
                    3b:94:d8:22:8b:14:af:3b:df:38:11:0e:4b:9c:aa:
                    a2:a4:48:0d:4e:c4:8b:49:01:0b:f9:32:15:4b:72:
                    f7:86:ad:00:16:f9:5a:a6:53:d5:f9:db:c5:db:80:
                    ba:85:0a:9b:fd:73:be:c9:f6:7d:2b:c7:37:bb:78:
                    78:29:f5:93:e8:d5:ad:1f:95:b8:4d:f3:1e:47:6f:
                    51:55:a5
                Exponent: 65537 (0x10001)
        X509v3 extensions:
            X509v3 Key Usage: critical
                Digital Signature, Key Encipherment
            X509v3 Basic Constraints: 
                CA:FALSE
            X509v3 Extended Key Usage: 
                TLS Web Client Authentication
            X509v3 Subject Key Identifier: 
                08:F0:63:5C:02:6B:D9:FD:3A:11:B7:56:0A:AD:C9:AE:3F:96:99:D0
            X509v3 Authority Key Identifier: 
                keyid:40:4E:DB:7F:82:7A:7D:C2:97:CA:E6:8E:20:04:79:BE:F7:EB:CA:B7

            X509v3 Subject Alternative Name: 
                email:provided@email.com
    Signature Algorithm: sha1WithRSAEncryption
         1e:4d:c2:58:86:f9:43:90:18:82:09:1e:78:83:d6:db:13:2a:
         cd:08:af:43:e7:a2:fc:30:99:2c:8c:3a:63:6a:94:19:dc:01:
         9a:1d:08:9f:4f:13:ca:b6:33:7b:58:26:96:cc:01:c1:d3:9b:
         29:00:5c:e4:3f:f5:69:09:b4:ea:29:83:e6:4f:ba:b3:31:19:
         84:b8:30:b8:9d:11:3a:74:d5:2f:a6:2f:b7:2c:d0:3f:98:fc:
         0d:43:f7:5c:23:4e:00:2e:68:be:26:d1:40:f9:6b:94:53:e8:
         6b:fc:9c:9c:3d:0e:94:b2:85:87:d0:32:f9:66:7e:dd:5d:ff:
         4c:b6:7c:f7:b3:fc:ab:0c:d0:7f:a2:dd:fd:7f:78:f6:87:40:
         4c:b6:df:3c:48:fb:a5:1d:41:b9:a1:ef:93:50:cb:f6:ac:6d:
         d7:bb:ca:29:47:bc:56:41:51:b0:9b:57:dc:1e:ed:80:2d:98:
         7b:a9:68:f5:05:1b:35:5a:48:60:37:e1:3e:34:70:c0:96:34:
         ea:a6:68:42:6c:e7:88:fd:9f:6c:3a:00:03:93:b3:19:cd:74:
         40:57:1a:36:de:39:58:26:42:eb:d8:ee:82:e1:0e:a0:23:ed:
         a9:ef:6c:d0:28:3f:a7:a7:50:dd:96:9d:f3:20:6c:3b:b5:b6:
         2f:bb:ff:1a:d5:d6:4e:15:4e:1c:49:0e:ee:dc:b0:ed:93:4f:
         6c:ee:11:b6:1d:ed:ba:4c:e3:9a:b1:b8:c4:c7:d8:8d:15:e3:
         38:cb:90:d4:79:f6:5c:fa:f4:41:5d:ea:96:a6:79:44:23:6d:
         ee:fb:28:45:68:02:16:58:be:e3:8c:8d:58:44:b6:75:08:8d:
         cb:e9:f4:e0:5b:d5:8e:60:a0:50:2a:ff:dd:59:a1:a8:30:98:
         e9:34:15:77:43:62:a0:c3:8f:7c:62:c8:4e:36:3d:00:72:69:
         75:d7:6b:90:fb:02:76:d7:66:f7:60:fa:86:4e:51:61:52:c9:
         d6:0f:b6:d8:ff:43:ba:9c:17:a8:eb:43:33:d7:af:27:15:5a:
         d0:9b:df:15:39:ee:3d:e4:8a:c1:5d:54:53:8c:36:8b:a2:34:
         22:5a:2a:8d:0e:13:da:7a:df:47:f8:d0:d4:9d:71:e4:20:51:
         34:17:cb:c7:bb:e0:da:f8:f6:dc:e3:bf:25:d4:41:db:f5:b1:
         75:05:66:ed:31:77:aa:4b:62:0e:b8:ab:08:9a:aa:06:b3:15:
         5d:ba:90:05:59:be:e1:9a:b9:a9:67:6a:d1:20:9e:28:5c:f0:
         1a:e7:6e:40:b7:02:ae:3d:06:d3:85:9e:0e:2c:0f:81:19:fa:
         db:21:e6:42:64:27:b1:e8
-----BEGIN CERTIFICATE-----
MIIFsTCCA5mgAwIBAgIBDjANBgkqhkiG9w0BAQUFADBqMQswCQYDVQQGEwJSUzEP
MA0GA1UECAwGU2VyYmlhMREwDwYDVQQHDAhCZWxncmFkZTEQMA4GA1UECgwHQ29k
ZVJlZDERMA8GA1UECwwIU2VjdXJpdHkxEjAQBgNVBAMMCUNsaWVudCBDQTAeFw0x
ODAzMzExMjQxMDVaFw0xOTAzMzExMjQxMDVaMDkxETAPBgNVBAoMCENvZGUgUmVk
MREwDwYDVQQLDAhTZWN1cml0eTERMA8GA1UEAwwIdXNlcm5hbWUwggIiMA0GCSqG
SIb3DQEBAQUAA4ICDwAwggIKAoICAQDcEHdGPFwT4gqofmQ3oZ4cBKmO+1ITux3J
6toBCajPbKcNepFtsIEzl/mhSTnafgMGFGr1o8BU/kvJpwxv3tUAvdHPwcL3+JNp
TdxXqkRnt9uXONFw0b+KOKRE9deOMNoXZ6MhvvOv3KUbsXu9QrydvrN6qd5iMRIW
r3439fAV3DO5fI23nfeADGcv5rGQNP6XOYxu0wmK5sjSy7VnRvK02wX5ozwmNsZl
hgtXPLbKiF/ZtzbBp+o+GSXYTxD4sygA0f97D8VO9VULX83BiZB9MkH/tiupn/8V
lRMup5dK5lduUhJD1HmtbovbDMZs+4PQyXJ6MPhG4Snj1CpMimP8Ar8JYp5vrSyV
bRobIKMQK1mC+KziFp+2oh9EUXfffDHemYEo5uBDNGuXZCjqHTL7JitQjIwoV4jC
f7os9tLX8Z5ozRRA6jp4Y/YH2KuqhiJJNzzd3N52rsmiW14Pyo/F1dfnoLgZb0TT
oR7LowEElFXJdIjCaohyGyC0j5+oDIy52Rg+L5gONaDH6QcwMva06ARcE5M9dmqo
bmPmN0kFt6Ofv4wkOA3trtmbdAmKqW1XIDuU2CKLFK873zgRDkucqqKkSA1OxItJ
AQv5MhVLcveGrQAW+VqmU9X528XbgLqFCpv9c77J9n0rxze7eHgp9ZPo1a0flbhN
8x5Hb1FVpQIDAQABo4GSMIGPMA4GA1UdDwEB/wQEAwIFoDAJBgNVHRMEAjAAMBMG
A1UdJQQMMAoGCCsGAQUFBwMCMB0GA1UdDgQWBBQI8GNcAmvZ/ToRt1YKrcmuP5aZ
0DAfBgNVHSMEGDAWgBRATtt/gnp9wpfK5o4gBHm+9+vKtzAdBgNVHREEFjAUgRJw
cm92aWRlZEBlbWFpbC5jb20wDQYJKoZIhvcNAQEFBQADggIBAB5NwliG+UOQGIIJ
HniD1tsTKs0Ir0PnovwwmSyMOmNqlBncAZodCJ9PE8q2M3tYJpbMAcHTmykAXOQ/
9WkJtOopg+ZPurMxGYS4MLidETp01S+mL7cs0D+Y/A1D91wjTgAuaL4m0UD5a5RT
6Gv8nJw9DpSyhYfQMvlmft1d/0y2fPez/KsM0H+i3f1/ePaHQEy23zxI+6UdQbmh
75NQy/asbde7yilHvFZBUbCbV9we7YAtmHupaPUFGzVaSGA34T40cMCWNOqmaEJs
54j9n2w6AAOTsxnNdEBXGjbeOVgmQuvY7oLhDqAj7anvbNAoP6enUN2WnfMgbDu1
ti+7/xrV1k4VThxJDu7csO2TT2zuEbYd7bpM45qxuMTH2I0V4zjLkNR59lz69EFd
6pameUQjbe77KEVoAhZYvuOMjVhEtnUIjcvp9OBb1Y5goFAq/91ZoagwmOk0FXdD
YqDDj3xiyE42PQByaXXXa5D7AnbXZvdg+oZOUWFSydYPttj/Q7qcF6jrQzPXrycV
WtCb3xU57j3kisFdVFOMNouiNCJaKo0OE9p630f40NSdceQgUTQXy8e74Nr49tzj
vyXUQdv1sXUFZu0xd6pLYg64qwiaqgazFV26kAVZvuGaualnatEgnihc8BrnbkC3
Aq49BtOFng4sD4EZ+tsh5kJkJ7Ho
-----END CERTIFICATE-----
