Certificate:
    Data:
        Version: 3 (0x2)
        Serial Number: 15 (0xf)
    Signature Algorithm: sha1WithRSAEncryption
        Issuer: C=RS, ST=Serbia, L=Belgrade, O=CodeRed, OU=Security, CN=Client CA
        Validity
            Not Before: Mar 31 12:43:07 2018 GMT
            Not After : Mar 31 12:43:07 2019 GMT
        Subject: O=Code Red, OU=Security, CN=username
        Subject Public Key Info:
            Public Key Algorithm: rsaEncryption
                Public-Key: (4096 bit)
                Modulus:
                    00:dc:10:77:46:3c:5c:13:e2:0a:a8:7e:64:37:a1:
                    9e:1c:04:a9:8e:fb:52:13:bb:1d:c9:ea:da:01:09:
                    a8:cf:6c:a7:0d:7a:91:6d:b0:81:33:97:f9:a1:49:
                    39:da:7e:03:06:14:6a:f5:a3:c0:54:fe:4b:c9:a7:
                    0c:6f:de:d5:00:bd:d1:cf:c1:c2:f7:f8:93:69:4d:
                    dc:57:aa:44:67:b7:db:97:38:d1:70:d1:bf:8a:38:
                    a4:44:f5:d7:8e:30:da:17:67:a3:21:be:f3:af:dc:
                    a5:1b:b1:7b:bd:42:bc:9d:be:b3:7a:a9:de:62:31:
                    12:16:af:7e:37:f5:f0:15:dc:33:b9:7c:8d:b7:9d:
                    f7:80:0c:67:2f:e6:b1:90:34:fe:97:39:8c:6e:d3:
                    09:8a:e6:c8:d2:cb:b5:67:46:f2:b4:db:05:f9:a3:
                    3c:26:36:c6:65:86:0b:57:3c:b6:ca:88:5f:d9:b7:
                    36:c1:a7:ea:3e:19:25:d8:4f:10:f8:b3:28:00:d1:
                    ff:7b:0f:c5:4e:f5:55:0b:5f:cd:c1:89:90:7d:32:
                    41:ff:b6:2b:a9:9f:ff:15:95:13:2e:a7:97:4a:e6:
                    57:6e:52:12:43:d4:79:ad:6e:8b:db:0c:c6:6c:fb:
                    83:d0:c9:72:7a:30:f8:46:e1:29:e3:d4:2a:4c:8a:
                    63:fc:02:bf:09:62:9e:6f:ad:2c:95:6d:1a:1b:20:
                    a3:10:2b:59:82:f8:ac:e2:16:9f:b6:a2:1f:44:51:
                    77:df:7c:31:de:99:81:28:e6:e0:43:34:6b:97:64:
                    28:ea:1d:32:fb:26:2b:50:8c:8c:28:57:88:c2:7f:
                    ba:2c:f6:d2:d7:f1:9e:68:cd:14:40:ea:3a:78:63:
                    f6:07:d8:ab:aa:86:22:49:37:3c:dd:dc:de:76:ae:
                    c9:a2:5b:5e:0f:ca:8f:c5:d5:d7:e7:a0:b8:19:6f:
                    44:d3:a1:1e:cb:a3:01:04:94:55:c9:74:88:c2:6a:
                    88:72:1b:20:b4:8f:9f:a8:0c:8c:b9:d9:18:3e:2f:
                    98:0e:35:a0:c7:e9:07:30:32:f6:b4:e8:04:5c:13:
                    93:3d:76:6a:a8:6e:63:e6:37:49:05:b7:a3:9f:bf:
                    8c:24:38:0d:ed:ae:d9:9b:74:09:8a:a9:6d:57:20:
                    3b:94:d8:22:8b:14:af:3b:df:38:11:0e:4b:9c:aa:
                    a2:a4:48:0d:4e:c4:8b:49:01:0b:f9:32:15:4b:72:
                    f7:86:ad:00:16:f9:5a:a6:53:d5:f9:db:c5:db:80:
                    ba:85:0a:9b:fd:73:be:c9:f6:7d:2b:c7:37:bb:78:
                    78:29:f5:93:e8:d5:ad:1f:95:b8:4d:f3:1e:47:6f:
                    51:55:a5
                Exponent: 65537 (0x10001)
        X509v3 extensions:
            X509v3 Key Usage: critical
                Digital Signature, Key Encipherment
            X509v3 Basic Constraints: 
                CA:FALSE
            X509v3 Extended Key Usage: 
                TLS Web Client Authentication
            X509v3 Subject Key Identifier: 
                08:F0:63:5C:02:6B:D9:FD:3A:11:B7:56:0A:AD:C9:AE:3F:96:99:D0
            X509v3 Authority Key Identifier: 
                keyid:40:4E:DB:7F:82:7A:7D:C2:97:CA:E6:8E:20:04:79:BE:F7:EB:CA:B7

            X509v3 Subject Alternative Name: 
                email:provided@email.com
    Signature Algorithm: sha1WithRSAEncryption
         64:8d:1e:10:51:99:f9:c1:c2:ff:bd:ce:a9:8d:92:a6:e6:3d:
         d5:49:0f:66:92:79:b5:b3:21:54:06:4e:7f:cd:4f:76:cb:76:
         85:d8:ca:cf:66:d3:cf:37:0f:aa:c7:73:b0:8c:44:d1:fa:a4:
         cb:d0:cf:fd:8e:f1:a4:79:4f:e0:3e:3b:76:b4:05:59:36:ca:
         eb:8f:46:44:ea:d5:cd:3f:fb:8d:be:aa:75:74:22:5b:1c:99:
         0e:17:57:13:57:d3:79:fb:67:52:94:38:1e:a6:e0:c8:cd:37:
         e3:fb:d8:4f:bc:61:40:80:bf:66:10:a1:c3:ad:c9:f1:39:60:
         34:6a:fd:b3:49:ab:b5:cb:f4:1a:31:75:e6:dd:3f:40:00:7d:
         a5:15:10:09:5b:d9:b8:88:eb:ec:d5:6b:17:01:ce:94:51:c3:
         ba:ae:d8:48:08:1d:2a:35:ed:b5:a5:6f:ad:62:3e:73:a6:c3:
         20:27:bd:7e:e8:50:b2:ae:56:9d:4b:27:c2:97:28:6e:31:32:
         7c:22:48:0f:9f:69:5b:f3:d2:52:22:03:a7:86:a1:f6:91:43:
         7c:43:2c:86:db:28:4b:54:a4:56:de:43:3b:d0:fd:34:41:ea:
         bf:08:7c:9a:11:e7:23:6f:5b:4e:51:04:bb:ce:6a:2c:03:9d:
         4a:67:00:d7:eb:c7:e0:d6:23:0f:d4:90:c9:d6:da:6b:c3:e6:
         dc:fd:9a:0b:da:a6:fb:00:36:e3:9b:62:98:3b:b2:8c:bb:a0:
         a6:98:94:d2:ff:88:e4:d9:9f:7b:ec:b3:02:7f:f0:3c:65:5f:
         a7:d8:c8:00:b9:9d:a8:34:25:66:0a:79:92:6a:01:42:02:b0:
         d0:6e:55:f8:f4:81:62:69:25:b7:ab:d2:03:de:db:12:8d:33:
         e0:9e:fd:3b:7b:87:c6:b4:1a:09:7a:c2:cf:a1:ae:0b:28:96:
         af:46:8e:42:c6:f4:10:ad:54:8f:47:8b:d2:f6:2b:61:a8:da:
         38:7b:3c:05:9f:65:5b:ce:e1:60:10:19:22:4f:1d:12:c3:6e:
         a5:f2:f5:76:83:29:f6:b9:2a:aa:2d:f5:79:4f:39:03:39:22:
         8f:c2:94:9e:3e:e3:77:cf:a2:ac:f9:04:96:18:9e:dc:da:0a:
         9d:31:fb:7a:49:3d:d2:30:d2:9d:00:a6:81:80:d1:2b:94:0d:
         57:b5:c3:c0:01:7d:5b:62:70:7e:44:7d:a4:3f:23:b6:55:02:
         bc:16:99:9b:b8:70:5c:5e:5a:39:af:99:ba:61:ec:97:ba:59:
         5f:d9:ad:63:0f:90:4f:e9:b5:74:42:ab:20:6a:18:3a:2d:3b:
         c1:02:77:e5:e7:a1:95:a8
-----BEGIN CERTIFICATE-----
MIIFsTCCA5mgAwIBAgIBDzANBgkqhkiG9w0BAQUFADBqMQswCQYDVQQGEwJSUzEP
MA0GA1UECAwGU2VyYmlhMREwDwYDVQQHDAhCZWxncmFkZTEQMA4GA1UECgwHQ29k
ZVJlZDERMA8GA1UECwwIU2VjdXJpdHkxEjAQBgNVBAMMCUNsaWVudCBDQTAeFw0x
ODAzMzExMjQzMDdaFw0xOTAzMzExMjQzMDdaMDkxETAPBgNVBAoMCENvZGUgUmVk
MREwDwYDVQQLDAhTZWN1cml0eTERMA8GA1UEAwwIdXNlcm5hbWUwggIiMA0GCSqG
SIb3DQEBAQUAA4ICDwAwggIKAoICAQDcEHdGPFwT4gqofmQ3oZ4cBKmO+1ITux3J
6toBCajPbKcNepFtsIEzl/mhSTnafgMGFGr1o8BU/kvJpwxv3tUAvdHPwcL3+JNp
TdxXqkRnt9uXONFw0b+KOKRE9deOMNoXZ6MhvvOv3KUbsXu9QrydvrN6qd5iMRIW
r3439fAV3DO5fI23nfeADGcv5rGQNP6XOYxu0wmK5sjSy7VnRvK02wX5ozwmNsZl
hgtXPLbKiF/ZtzbBp+o+GSXYTxD4sygA0f97D8VO9VULX83BiZB9MkH/tiupn/8V
lRMup5dK5lduUhJD1HmtbovbDMZs+4PQyXJ6MPhG4Snj1CpMimP8Ar8JYp5vrSyV
bRobIKMQK1mC+KziFp+2oh9EUXfffDHemYEo5uBDNGuXZCjqHTL7JitQjIwoV4jC
f7os9tLX8Z5ozRRA6jp4Y/YH2KuqhiJJNzzd3N52rsmiW14Pyo/F1dfnoLgZb0TT
oR7LowEElFXJdIjCaohyGyC0j5+oDIy52Rg+L5gONaDH6QcwMva06ARcE5M9dmqo
bmPmN0kFt6Ofv4wkOA3trtmbdAmKqW1XIDuU2CKLFK873zgRDkucqqKkSA1OxItJ
AQv5MhVLcveGrQAW+VqmU9X528XbgLqFCpv9c77J9n0rxze7eHgp9ZPo1a0flbhN
8x5Hb1FVpQIDAQABo4GSMIGPMA4GA1UdDwEB/wQEAwIFoDAJBgNVHRMEAjAAMBMG
A1UdJQQMMAoGCCsGAQUFBwMCMB0GA1UdDgQWBBQI8GNcAmvZ/ToRt1YKrcmuP5aZ
0DAfBgNVHSMEGDAWgBRATtt/gnp9wpfK5o4gBHm+9+vKtzAdBgNVHREEFjAUgRJw
cm92aWRlZEBlbWFpbC5jb20wDQYJKoZIhvcNAQEFBQADggIBAGSNHhBRmfnBwv+9
zqmNkqbmPdVJD2aSebWzIVQGTn/NT3bLdoXYys9m0883D6rHc7CMRNH6pMvQz/2O
8aR5T+A+O3a0BVk2yuuPRkTq1c0/+42+qnV0IlscmQ4XVxNX03n7Z1KUOB6m4MjN
N+P72E+8YUCAv2YQocOtyfE5YDRq/bNJq7XL9BoxdebdP0AAfaUVEAlb2biI6+zV
axcBzpRRw7qu2EgIHSo17bWlb61iPnOmwyAnvX7oULKuVp1LJ8KXKG4xMnwiSA+f
aVvz0lIiA6eGofaRQ3xDLIbbKEtUpFbeQzvQ/TRB6r8IfJoR5yNvW05RBLvOaiwD
nUpnANfrx+DWIw/UkMnW2mvD5tz9mgvapvsANuObYpg7soy7oKaYlNL/iOTZn3vs
swJ/8DxlX6fYyAC5nag0JWYKeZJqAUICsNBuVfj0gWJpJber0gPe2xKNM+Ce/Tt7
h8a0Ggl6ws+hrgsolq9GjkLG9BCtVI9Hi9L2K2Go2jh7PAWfZVvO4WAQGSJPHRLD
bqXy9XaDKfa5Kqot9XlPOQM5Io/ClJ4+43fPoqz5BJYYntzaCp0x+3pJPdIw0p0A
poGA0SuUDVe1w8ABfVticH5EfaQ/I7ZVArwWmZu4cFxeWjmvmbph7Je6WV/ZrWMP
kE/ptXRCqyBqGDotO8ECd+XnoZWo
-----END CERTIFICATE-----
