Certificate:
    Data:
        Version: 3 (0x2)
        Serial Number: 16 (0x10)
    Signature Algorithm: sha1WithRSAEncryption
        Issuer: C=RS, ST=Serbia, L=Belgrade, O=CodeRed, OU=Security, CN=Client CA
        Validity
            Not Before: Mar 31 12:43:25 2018 GMT
            Not After : Mar 31 12:43:25 2019 GMT
        Subject: O=Code Red, OU=Security, CN=username
        Subject Public Key Info:
            Public Key Algorithm: rsaEncryption
                Public-Key: (4096 bit)
                Modulus:
                    00:ce:da:b1:96:bf:1b:03:3e:be:eb:f2:af:0c:16:
                    e2:7e:94:e4:d9:7c:0d:5a:82:c1:b2:41:80:77:3d:
                    47:14:2e:3b:16:83:14:12:42:89:2f:de:44:6a:b3:
                    b1:39:8b:09:2c:94:af:18:dd:4d:72:64:3d:a9:cd:
                    5e:dd:bd:d3:1e:05:6c:4d:9a:6f:ef:44:27:b2:37:
                    70:e2:ba:55:a2:8d:ee:71:38:11:46:a2:28:22:24:
                    0c:82:34:cd:b1:13:36:24:8a:0d:73:b6:c0:cd:42:
                    5d:20:4f:38:77:b9:77:ec:ec:94:c9:38:4a:12:d5:
                    16:41:80:74:10:29:97:da:e1:7e:59:bc:db:cd:7f:
                    e9:69:7b:fb:5b:f0:1e:32:d0:0a:5b:02:2d:fd:e0:
                    fd:37:b5:45:17:3f:75:a9:c8:50:78:da:42:3e:58:
                    00:53:b4:2b:37:df:c8:85:5c:7d:09:09:1b:5c:c9:
                    91:07:23:14:19:c1:d2:a9:38:38:89:81:66:6d:a1:
                    f1:10:0d:77:a3:d1:25:87:67:3f:fd:d9:79:d8:ec:
                    56:9f:70:26:04:29:9b:04:2a:23:68:89:bf:4d:ba:
                    e1:d6:60:e4:7f:0e:dd:72:6a:d0:4e:a5:44:65:69:
                    d9:5a:23:44:01:82:a2:35:59:a8:a1:58:43:3d:63:
                    b9:ba:7d:7a:8c:71:6b:80:8c:a0:d5:9d:db:02:1e:
                    68:a3:ae:1f:23:bd:53:7f:53:74:d8:37:38:f1:64:
                    02:ee:b0:06:4b:56:86:9e:22:65:1c:24:88:59:ff:
                    9f:c7:6b:57:b8:b2:1e:04:bd:e6:36:f6:f0:1d:39:
                    77:5c:af:66:3a:ca:ee:29:1c:16:30:c7:75:42:d5:
                    ac:19:aa:af:04:0c:f3:48:21:87:d1:95:0e:c2:bc:
                    0f:6b:53:0a:fe:13:7f:04:6c:35:43:e0:f0:cc:3f:
                    cc:d2:d1:8b:1a:f4:6e:83:54:6a:3b:70:14:0c:45:
                    29:05:d5:38:9b:ea:5a:e2:d0:38:b9:6a:11:44:4d:
                    46:cb:6b:c6:ca:a7:c3:db:df:25:85:ee:e6:04:91:
                    a0:75:95:c0:93:ca:8d:fb:d9:08:90:80:89:fb:e0:
                    a0:73:50:38:db:36:be:8d:3a:f1:db:54:41:7e:13:
                    e7:b0:03:52:e3:e7:8c:d0:1e:da:61:4d:7a:03:6c:
                    9b:f4:bb:bf:0f:be:c2:0b:6f:33:73:47:f2:24:0b:
                    f4:d2:56:46:1e:c1:3d:19:02:e9:de:1e:73:8d:4a:
                    45:77:a7:62:64:23:33:62:30:22:b2:9f:59:8c:42:
                    85:84:4a:f8:b9:6b:0c:77:17:cc:ff:05:8f:d8:48:
                    68:a3:81
                Exponent: 65537 (0x10001)
        X509v3 extensions:
            X509v3 Key Usage: critical
                Digital Signature, Key Encipherment
            X509v3 Basic Constraints: 
                CA:FALSE
            X509v3 Extended Key Usage: 
                TLS Web Client Authentication
            X509v3 Subject Key Identifier: 
                6E:24:2E:34:49:5C:6F:66:36:24:0F:16:D5:28:55:A5:1E:DC:86:07
            X509v3 Authority Key Identifier: 
                keyid:40:4E:DB:7F:82:7A:7D:C2:97:CA:E6:8E:20:04:79:BE:F7:EB:CA:B7

            X509v3 Subject Alternative Name: 
                email:provided@email.com
    Signature Algorithm: sha1WithRSAEncryption
         77:73:5a:34:8d:28:57:53:5a:46:c3:06:b8:18:29:31:d2:b9:
         09:62:0a:c4:67:b3:04:e2:78:89:33:ce:b6:ab:83:bb:ed:5e:
         b5:63:b9:ea:37:43:0a:8f:4c:e0:15:e6:16:b7:07:d7:de:6f:
         3f:b9:e4:f5:6a:01:52:10:93:5a:bf:45:a5:f2:a8:8f:43:e0:
         92:14:29:2c:9e:a9:26:3c:3c:15:01:cf:5b:1d:2a:cd:c2:cd:
         77:9b:d4:e0:8a:74:db:c2:85:e5:27:63:54:8b:10:eb:93:44:
         5b:66:54:6c:d9:2f:09:98:73:21:f1:a0:c4:00:a6:a3:da:23:
         4b:3a:d8:60:04:18:a8:9d:f3:dd:21:90:86:82:4e:e3:0d:5b:
         23:25:42:21:23:89:86:7e:5e:e1:60:0a:2a:7b:e5:2f:6c:80:
         57:40:d3:10:99:6a:08:91:bc:29:aa:5a:ef:7c:0f:12:f7:13:
         08:6f:8c:79:be:54:60:fe:49:5d:10:a9:1f:55:8d:cd:27:ea:
         16:d4:bf:82:ed:48:c1:0c:7f:77:f6:12:f3:74:2b:a9:97:01:
         35:c0:3a:cd:5c:7a:f4:92:b1:b9:d0:b9:9a:2f:0b:05:4c:ad:
         7b:0a:17:f4:d2:58:f5:a0:9a:bf:7e:f7:23:11:a9:f1:31:70:
         d9:62:5a:f0:81:91:20:eb:4b:25:e8:c1:3f:48:f0:59:3a:4d:
         ab:85:da:85:e3:28:32:23:83:e9:c5:81:6d:fd:f1:53:53:f1:
         0b:35:13:38:74:48:a3:5d:a3:43:21:55:8c:a9:fe:a5:51:2a:
         83:b1:e7:0e:33:69:40:56:ad:08:86:6c:17:ff:31:e7:3c:36:
         e6:08:32:00:a4:46:f5:e3:a3:40:7f:72:6a:b1:3e:44:62:4d:
         dc:ab:6e:34:eb:c6:e5:bf:7b:fb:e3:e5:6f:0b:50:bf:09:0b:
         27:5a:f9:05:e7:dc:95:b0:b9:09:74:51:e2:29:28:75:a2:cf:
         f1:e5:37:2c:15:26:2b:56:07:68:23:8d:8a:f5:00:35:cb:93:
         db:cd:df:d4:19:0b:57:76:d9:da:bc:5d:68:06:60:d3:17:dd:
         37:92:3f:01:5e:81:8e:ed:6d:02:c3:95:74:5a:cd:df:51:46:
         8a:04:9d:5c:ed:25:97:c3:21:8e:ef:1e:f2:87:26:a0:5c:b5:
         85:4d:29:ae:ac:1e:b2:aa:b0:51:c9:c8:fd:cb:2d:58:d2:86:
         7a:4e:84:f6:0e:10:bb:f4:0d:5a:9b:12:71:e1:cd:5a:74:df:
         0e:01:98:6b:2a:21:25:31:c9:f2:91:b0:ef:6a:30:60:48:44:
         7f:40:6c:95:2a:d9:90:25
-----BEGIN CERTIFICATE-----
MIIFsTCCA5mgAwIBAgIBEDANBgkqhkiG9w0BAQUFADBqMQswCQYDVQQGEwJSUzEP
MA0GA1UECAwGU2VyYmlhMREwDwYDVQQHDAhCZWxncmFkZTEQMA4GA1UECgwHQ29k
ZVJlZDERMA8GA1UECwwIU2VjdXJpdHkxEjAQBgNVBAMMCUNsaWVudCBDQTAeFw0x
ODAzMzExMjQzMjVaFw0xOTAzMzExMjQzMjVaMDkxETAPBgNVBAoMCENvZGUgUmVk
MREwDwYDVQQLDAhTZWN1cml0eTERMA8GA1UEAwwIdXNlcm5hbWUwggIiMA0GCSqG
SIb3DQEBAQUAA4ICDwAwggIKAoICAQDO2rGWvxsDPr7r8q8MFuJ+lOTZfA1agsGy
QYB3PUcULjsWgxQSQokv3kRqs7E5iwkslK8Y3U1yZD2pzV7dvdMeBWxNmm/vRCey
N3DiulWije5xOBFGoigiJAyCNM2xEzYkig1ztsDNQl0gTzh3uXfs7JTJOEoS1RZB
gHQQKZfa4X5ZvNvNf+lpe/tb8B4y0ApbAi394P03tUUXP3WpyFB42kI+WABTtCs3
38iFXH0JCRtcyZEHIxQZwdKpODiJgWZtofEQDXej0SWHZz/92XnY7FafcCYEKZsE
KiNoib9NuuHWYOR/Dt1yatBOpURladlaI0QBgqI1WaihWEM9Y7m6fXqMcWuAjKDV
ndsCHmijrh8jvVN/U3TYNzjxZALusAZLVoaeImUcJIhZ/5/Ha1e4sh4EveY29vAd
OXdcr2Y6yu4pHBYwx3VC1awZqq8EDPNIIYfRlQ7CvA9rUwr+E38EbDVD4PDMP8zS
0Ysa9G6DVGo7cBQMRSkF1Tib6lri0Di5ahFETUbLa8bKp8Pb3yWF7uYEkaB1lcCT
yo372QiQgIn74KBzUDjbNr6NOvHbVEF+E+ewA1Lj54zQHtphTXoDbJv0u78PvsIL
bzNzR/IkC/TSVkYewT0ZAuneHnONSkV3p2JkIzNiMCKyn1mMQoWESvi5awx3F8z/
BY/YSGijgQIDAQABo4GSMIGPMA4GA1UdDwEB/wQEAwIFoDAJBgNVHRMEAjAAMBMG
A1UdJQQMMAoGCCsGAQUFBwMCMB0GA1UdDgQWBBRuJC40SVxvZjYkDxbVKFWlHtyG
BzAfBgNVHSMEGDAWgBRATtt/gnp9wpfK5o4gBHm+9+vKtzAdBgNVHREEFjAUgRJw
cm92aWRlZEBlbWFpbC5jb20wDQYJKoZIhvcNAQEFBQADggIBAHdzWjSNKFdTWkbD
BrgYKTHSuQliCsRnswTieIkzzrarg7vtXrVjueo3QwqPTOAV5ha3B9febz+55PVq
AVIQk1q/RaXyqI9D4JIUKSyeqSY8PBUBz1sdKs3CzXeb1OCKdNvCheUnY1SLEOuT
RFtmVGzZLwmYcyHxoMQApqPaI0s62GAEGKid890hkIaCTuMNWyMlQiEjiYZ+XuFg
Cip75S9sgFdA0xCZagiRvCmqWu98DxL3EwhvjHm+VGD+SV0QqR9Vjc0n6hbUv4Lt
SMEMf3f2EvN0K6mXATXAOs1cevSSsbnQuZovCwVMrXsKF/TSWPWgmr9+9yMRqfEx
cNliWvCBkSDrSyXowT9I8Fk6TauF2oXjKDIjg+nFgW398VNT8Qs1Ezh0SKNdo0Mh
VYyp/qVRKoOx5w4zaUBWrQiGbBf/Mec8NuYIMgCkRvXjo0B/cmqxPkRiTdyrbjTr
xuW/e/vj5W8LUL8JCyda+QXn3JWwuQl0UeIpKHWiz/HlNywVJitWB2gjjYr1ADXL
k9vN39QZC1d22dq8XWgGYNMX3TeSPwFegY7tbQLDlXRazd9RRooEnVztJZfDIY7v
HvKHJqBctYVNKa6sHrKqsFHJyP3LLVjShnpOhPYOELv0DVqbEnHhzVp03w4BmGsq
ISUxyfKRsO9qMGBIRH9AbJUq2ZAl
-----END CERTIFICATE-----
