Certificate:
    Data:
        Version: 3 (0x2)
        Serial Number: 17 (0x11)
    Signature Algorithm: sha1WithRSAEncryption
        Issuer: C=RS, ST=Serbia, L=Belgrade, O=CodeRed, OU=Security, CN=Client CA
        Validity
            Not Before: Mar 31 12:44:31 2018 GMT
            Not After : Mar 31 12:44:31 2019 GMT
        Subject: O=Code Red, OU=Security, CN=username
        Subject Public Key Info:
            Public Key Algorithm: rsaEncryption
                Public-Key: (4096 bit)
                Modulus:
                    00:cd:c4:16:97:79:9e:58:15:49:c1:94:bc:20:ed:
                    5e:48:8d:d4:45:cc:a3:04:1e:98:fa:34:d6:8c:d4:
                    a5:c8:d8:67:a0:69:85:92:80:f9:e3:f1:85:b4:90:
                    35:97:72:d9:bb:59:86:73:f2:f9:4b:44:a6:ac:2b:
                    c9:7b:d7:8a:fb:78:3a:65:57:02:2f:64:83:8d:dd:
                    10:3f:04:6d:23:07:ce:86:d4:d8:bf:b7:2e:89:08:
                    0a:fb:48:ab:33:46:49:91:02:25:18:09:14:e5:03:
                    eb:fb:07:e0:97:08:0e:56:0f:67:a1:9a:56:6b:3c:
                    ea:f8:8a:1e:00:56:1f:54:91:b5:55:3f:e6:12:ee:
                    16:e8:db:eb:f4:6b:8f:9b:e5:15:94:88:68:22:37:
                    9c:70:44:32:6a:eb:4e:91:c6:86:fc:f9:01:1e:ca:
                    b7:2b:53:bb:32:83:2a:76:89:72:09:d3:5f:0d:af:
                    d6:8e:28:4b:a4:14:6a:5b:53:b9:18:48:84:40:7a:
                    7a:6b:08:d0:81:e7:31:f0:13:fb:33:11:ec:d3:9b:
                    f2:ba:fa:96:6f:6e:39:5c:0c:60:3e:6a:5d:38:a3:
                    6f:08:61:82:b8:88:b9:9b:aa:fa:81:6e:26:59:27:
                    e1:7b:b4:5b:c8:78:ec:f2:e1:66:67:95:23:80:03:
                    01:e3:56:d5:15:c8:76:ea:7f:e8:d4:39:6e:d1:68:
                    01:eb:91:6f:40:70:10:22:f1:f7:44:e0:cc:f5:0f:
                    ac:ef:07:dc:1c:de:0d:1d:24:53:75:8d:c5:3f:e9:
                    17:66:da:9e:67:6b:e0:2c:81:06:41:50:fa:55:10:
                    bd:d9:48:1f:74:35:01:b6:dc:9f:c1:9b:ea:3d:c4:
                    f0:32:e1:c5:cc:69:77:07:fe:27:59:45:3d:9a:88:
                    c0:5a:ea:09:8d:53:81:19:94:76:85:d0:9f:2d:be:
                    bb:c3:09:d7:ec:2c:a3:1e:a1:a5:50:0d:54:44:73:
                    87:b6:28:9c:af:80:59:e7:80:49:f9:8a:c4:d7:97:
                    9e:13:50:cd:72:6f:11:99:1e:e6:63:a2:08:c0:57:
                    85:49:f3:52:fa:6d:25:84:bb:0e:94:c2:5e:4a:53:
                    7c:07:e2:5d:ad:c5:f6:65:b5:a1:7a:c1:e2:ab:80:
                    da:49:39:fe:5e:5e:9e:94:7c:8f:c0:fe:c8:0d:71:
                    dd:6c:e1:b1:37:d3:70:26:28:c3:54:5e:41:88:74:
                    11:a5:16:58:8a:3e:35:66:e1:0a:1c:2d:46:cb:ab:
                    98:ca:3f:61:2d:67:d5:7b:03:ae:cb:ac:37:2d:f1:
                    58:5a:ca:8a:1d:79:8e:b1:5a:d0:c9:cf:09:d5:85:
                    20:00:fd
                Exponent: 65537 (0x10001)
        X509v3 extensions:
            X509v3 Key Usage: critical
                Digital Signature, Key Encipherment
            X509v3 Basic Constraints: 
                CA:FALSE
            X509v3 Extended Key Usage: 
                TLS Web Client Authentication
            X509v3 Subject Key Identifier: 
                04:23:4C:7F:70:E6:C4:21:BA:0C:B7:AD:05:08:16:AE:A3:85:D4:8F
            X509v3 Authority Key Identifier: 
                keyid:40:4E:DB:7F:82:7A:7D:C2:97:CA:E6:8E:20:04:79:BE:F7:EB:CA:B7

            X509v3 Subject Alternative Name: 
                email:provided@email.com
    Signature Algorithm: sha1WithRSAEncryption
         9e:88:89:51:4a:47:d9:43:e7:24:12:7f:90:83:1b:04:5e:ed:
         c6:24:d7:3b:2d:39:f0:10:7b:e2:4e:d3:4a:4b:4a:6c:19:39:
         f5:3b:19:0f:5c:57:55:44:97:8d:b8:0d:30:d0:0c:52:5b:90:
         f4:5a:93:30:5a:36:13:8e:0f:d7:3d:3a:15:da:3b:2d:4d:af:
         6a:5d:6b:ed:fe:3c:7b:90:b9:28:78:78:b5:53:d0:18:a6:2a:
         ef:5f:1c:2c:31:95:b6:b5:e1:fe:0c:2a:e4:d2:dc:05:bb:a3:
         d4:09:03:6c:67:d2:6d:82:d8:20:d1:f3:fe:34:f1:19:2a:db:
         ed:9c:77:dc:fb:db:85:8c:b2:8e:62:8b:b3:20:8c:31:37:1f:
         79:7c:6e:87:67:3e:ec:c2:40:e4:1e:d3:db:f2:72:fc:a0:86:
         0a:64:f5:c3:c2:5b:4a:06:67:63:40:44:07:a2:b0:5d:bd:fe:
         43:90:ee:53:58:a2:f5:28:29:d3:91:47:6c:3d:b7:da:a0:c0:
         bb:ef:24:0a:65:ea:3f:a0:f5:cb:98:90:93:33:ad:6e:01:74:
         eb:88:9c:a4:4c:b5:cf:5f:ce:45:9f:20:2e:79:c6:a5:b9:a8:
         04:1e:9e:4c:18:d2:4a:c1:ba:ac:89:dd:20:b1:2a:40:46:38:
         5a:57:0d:46:74:4f:24:4b:55:65:70:4c:d6:a4:d0:a6:cb:16:
         0c:2b:4f:a9:e3:ee:77:79:6f:9b:5b:0e:14:f7:5c:bb:50:ff:
         c7:cd:c7:cb:d1:7e:98:b2:f9:1e:fb:92:d1:bb:38:41:bd:d6:
         59:50:38:4b:0d:99:be:f5:df:00:fb:b3:83:35:17:37:2f:2d:
         6a:ee:85:4a:de:70:9e:5e:ee:bb:97:a2:be:aa:27:46:4c:97:
         07:3e:45:41:e1:0c:30:5a:4e:06:8c:fe:98:13:7b:22:3f:76:
         63:3d:d2:bc:fc:03:a0:66:25:b1:4d:9d:0e:c6:11:c4:66:89:
         01:dd:b3:83:2f:a0:0c:5f:2e:1c:87:05:95:da:85:c1:65:75:
         aa:e2:36:cd:c6:e3:86:f6:fd:bd:aa:d3:78:6d:39:f7:e0:01:
         74:9c:8d:26:3b:6d:7a:50:99:89:51:32:56:49:27:b5:de:79:
         5d:5c:ae:52:e8:23:c8:b3:86:02:eb:18:68:0f:31:cb:5a:8b:
         1f:73:c9:d5:b8:d8:07:c2:49:38:12:ce:3b:ff:96:4f:fd:13:
         3a:cb:2b:7f:8c:7f:be:05:bc:98:57:92:f8:12:31:c9:65:60:
         90:c9:28:9d:cc:9f:eb:d6:2f:39:eb:56:86:71:8e:3c:85:ae:
         82:71:c8:9c:7e:26:ff:02
-----BEGIN CERTIFICATE-----
MIIFsTCCA5mgAwIBAgIBETANBgkqhkiG9w0BAQUFADBqMQswCQYDVQQGEwJSUzEP
MA0GA1UECAwGU2VyYmlhMREwDwYDVQQHDAhCZWxncmFkZTEQMA4GA1UECgwHQ29k
ZVJlZDERMA8GA1UECwwIU2VjdXJpdHkxEjAQBgNVBAMMCUNsaWVudCBDQTAeFw0x
ODAzMzExMjQ0MzFaFw0xOTAzMzExMjQ0MzFaMDkxETAPBgNVBAoMCENvZGUgUmVk
MREwDwYDVQQLDAhTZWN1cml0eTERMA8GA1UEAwwIdXNlcm5hbWUwggIiMA0GCSqG
SIb3DQEBAQUAA4ICDwAwggIKAoICAQDNxBaXeZ5YFUnBlLwg7V5IjdRFzKMEHpj6
NNaM1KXI2GegaYWSgPnj8YW0kDWXctm7WYZz8vlLRKasK8l714r7eDplVwIvZION
3RA/BG0jB86G1Ni/ty6JCAr7SKszRkmRAiUYCRTlA+v7B+CXCA5WD2ehmlZrPOr4
ih4AVh9UkbVVP+YS7hbo2+v0a4+b5RWUiGgiN5xwRDJq606Rxob8+QEeyrcrU7sy
gyp2iXIJ018Nr9aOKEukFGpbU7kYSIRAenprCNCB5zHwE/szEezTm/K6+pZvbjlc
DGA+al04o28IYYK4iLmbqvqBbiZZJ+F7tFvIeOzy4WZnlSOAAwHjVtUVyHbqf+jU
OW7RaAHrkW9AcBAi8fdE4Mz1D6zvB9wc3g0dJFN1jcU/6Rdm2p5na+AsgQZBUPpV
EL3ZSB90NQG23J/Bm+o9xPAy4cXMaXcH/idZRT2aiMBa6gmNU4EZlHaF0J8tvrvD
CdfsLKMeoaVQDVREc4e2KJyvgFnngEn5isTXl54TUM1ybxGZHuZjogjAV4VJ81L6
bSWEuw6Uwl5KU3wH4l2txfZltaF6weKrgNpJOf5eXp6UfI/A/sgNcd1s4bE303Am
KMNUXkGIdBGlFliKPjVm4QocLUbLq5jKP2EtZ9V7A67LrDct8VhayoodeY6xWtDJ
zwnVhSAA/QIDAQABo4GSMIGPMA4GA1UdDwEB/wQEAwIFoDAJBgNVHRMEAjAAMBMG
A1UdJQQMMAoGCCsGAQUFBwMCMB0GA1UdDgQWBBQEI0x/cObEIboMt60FCBauo4XU
jzAfBgNVHSMEGDAWgBRATtt/gnp9wpfK5o4gBHm+9+vKtzAdBgNVHREEFjAUgRJw
cm92aWRlZEBlbWFpbC5jb20wDQYJKoZIhvcNAQEFBQADggIBAJ6IiVFKR9lD5yQS
f5CDGwRe7cYk1zstOfAQe+JO00pLSmwZOfU7GQ9cV1VEl424DTDQDFJbkPRakzBa
NhOOD9c9OhXaOy1Nr2pda+3+PHuQuSh4eLVT0BimKu9fHCwxlba14f4MKuTS3AW7
o9QJA2xn0m2C2CDR8/408Rkq2+2cd9z724WMso5ii7MgjDE3H3l8bodnPuzCQOQe
09vycvyghgpk9cPCW0oGZ2NARAeisF29/kOQ7lNYovUoKdORR2w9t9qgwLvvJApl
6j+g9cuYkJMzrW4BdOuInKRMtc9fzkWfIC55xqW5qAQenkwY0krBuqyJ3SCxKkBG
OFpXDUZ0TyRLVWVwTNak0KbLFgwrT6nj7nd5b5tbDhT3XLtQ/8fNx8vRfpiy+R77
ktG7OEG91llQOEsNmb713wD7s4M1FzcvLWruhUrecJ5e7ruXor6qJ0ZMlwc+RUHh
DDBaTgaM/pgTeyI/dmM90rz8A6BmJbFNnQ7GEcRmiQHds4MvoAxfLhyHBZXahcFl
dariNs3G44b2/b2q03htOffgAXScjSY7bXpQmYlRMlZJJ7XeeV1crlLoI8izhgLr
GGgPMctaix9zydW42AfCSTgSzjv/lk/9EzrLK3+Mf74FvJhXkvgSMcllYJDJKJ3M
n+vWLznrVoZxjjyFroJxyJx+Jv8C
-----END CERTIFICATE-----
