Certificate:
    Data:
        Version: 3 (0x2)
        Serial Number: 18 (0x12)
    Signature Algorithm: sha1WithRSAEncryption
        Issuer: C=RS, ST=Serbia, L=Belgrade, O=CodeRed, OU=Security, CN=Client CA
        Validity
            Not Before: Mar 31 12:45:07 2018 GMT
            Not After : Mar 31 12:45:07 2019 GMT
        Subject: O=Code Red, OU=Security, CN=username
        Subject Public Key Info:
            Public Key Algorithm: rsaEncryption
                Public-Key: (4096 bit)
                Modulus:
                    00:b2:4b:5f:ae:f0:1c:6b:03:e1:a3:4b:b4:18:49:
                    3b:26:14:55:bc:c1:8b:71:be:2c:68:b4:11:24:73:
                    bf:5d:de:eb:5f:0c:bf:e9:47:41:09:9b:03:c5:0a:
                    9c:8b:db:74:04:f5:cb:78:05:26:8e:ba:a3:cd:0a:
                    b8:34:37:dd:df:40:77:f8:d4:c3:36:29:a9:f3:54:
                    d0:f9:60:93:56:8b:45:50:99:0d:71:98:c7:f6:56:
                    80:1d:1e:91:d7:3a:2e:e3:df:80:7a:79:4c:33:03:
                    32:a2:3f:03:8b:47:77:86:6f:0a:43:b0:b4:a6:01:
                    0e:b9:8c:18:24:00:51:70:1a:5d:99:62:f8:97:5e:
                    4d:53:83:91:de:db:55:56:5c:75:9c:cd:2f:58:98:
                    89:20:3b:eb:1b:49:25:69:6a:22:ce:d4:ef:62:d7:
                    95:73:e1:eb:9b:45:ea:d2:80:18:82:5e:a9:1b:22:
                    06:fb:81:dd:0d:8e:98:32:af:47:30:0f:2b:86:4b:
                    85:b7:2e:84:62:47:5b:36:ee:a9:43:62:4f:0b:03:
                    35:a0:69:32:06:31:3a:fe:da:f8:1f:d1:87:3e:62:
                    4c:f0:8a:d5:30:cb:4f:34:8c:6d:d7:24:4a:98:60:
                    f8:de:35:6c:2d:04:f9:67:c2:e2:3b:36:8c:85:c6:
                    eb:09:c4:9c:bd:85:4a:e6:35:c0:cb:4a:94:3b:dd:
                    2c:cd:dd:1f:bf:e9:79:4e:cd:e8:dc:64:ef:e5:44:
                    d4:29:64:33:c3:63:49:78:b5:65:67:73:09:87:a4:
                    6d:78:46:d7:98:e9:47:10:5e:17:13:c5:b8:8d:12:
                    15:09:7b:20:68:d2:87:af:20:3e:92:35:8a:d3:cb:
                    0b:15:97:52:2b:2a:18:05:d0:57:c8:ce:08:0c:8f:
                    ce:03:02:40:40:ef:1c:c8:5e:5e:3f:79:a0:7f:d9:
                    08:02:c0:b7:c5:a0:32:96:45:7c:a3:49:f4:30:08:
                    33:47:8e:d4:45:e8:38:26:bf:ab:c5:b5:35:dc:f1:
                    ce:d2:b7:77:85:c4:78:80:1e:00:4f:53:3e:8a:e4:
                    e3:dd:97:50:48:a7:67:60:a3:21:b9:31:93:34:d3:
                    8e:1b:fe:5c:c0:2d:ef:eb:ce:c7:12:03:40:9a:8a:
                    49:13:60:e9:e5:9a:f9:9a:ca:d2:97:29:3f:d5:a2:
                    36:f3:cb:5f:80:dd:ba:c5:d6:3c:79:dc:aa:4b:b6:
                    a3:e1:b4:01:95:ac:2e:d3:87:5a:77:a8:7a:97:6b:
                    e6:33:d4:90:8d:a8:91:00:5c:f9:c5:79:3b:df:ee:
                    87:c6:b9:59:23:fa:fb:9c:e2:21:f1:f2:f7:dc:45:
                    98:8b:0b
                Exponent: 65537 (0x10001)
        X509v3 extensions:
            X509v3 Key Usage: critical
                Digital Signature, Key Encipherment
            X509v3 Basic Constraints: 
                CA:FALSE
            X509v3 Extended Key Usage: 
                TLS Web Client Authentication
            X509v3 Subject Key Identifier: 
                B9:CA:1D:B0:F3:0A:30:D6:B4:B5:2B:C1:D4:86:02:12:E7:8A:9E:2E
            X509v3 Authority Key Identifier: 
                keyid:40:4E:DB:7F:82:7A:7D:C2:97:CA:E6:8E:20:04:79:BE:F7:EB:CA:B7

            X509v3 Subject Alternative Name: 
                email:provided@email.com
    Signature Algorithm: sha1WithRSAEncryption
         7f:57:86:ba:2e:3b:e7:29:a9:14:80:23:d0:35:2f:8b:6d:e8:
         c5:5f:12:3e:2a:db:97:2f:26:a5:3b:3a:c1:4b:48:c0:b7:e6:
         13:d3:22:66:53:6f:8b:2b:52:c6:34:42:92:68:74:43:c5:c1:
         dd:cb:b7:fa:46:03:2f:61:52:38:90:2c:ff:68:fc:fe:7f:06:
         3f:62:ed:6f:29:25:96:12:0c:f8:76:62:1c:98:09:4d:ce:b7:
         74:5e:c6:47:35:b5:f0:03:56:11:5e:89:72:f4:85:bc:f4:f7:
         7a:f1:5e:92:9f:f5:72:cf:bf:3b:a2:24:c2:04:8a:4c:a1:b2:
         5f:02:c3:fc:c0:94:24:a7:c9:08:d5:13:84:95:45:19:04:46:
         62:67:7a:87:7d:da:0a:29:e8:3a:ff:e5:53:61:94:d3:74:c7:
         72:ce:4a:20:2f:25:d8:3b:da:b4:82:61:8f:9b:0a:4e:99:08:
         b8:57:65:bb:17:ec:3e:57:f8:34:aa:39:13:a7:54:2a:bc:82:
         c9:5c:ab:0d:76:ed:ba:50:0e:40:d1:c8:c5:0a:75:ca:26:d7:
         b5:d0:f6:9c:0b:6d:54:13:f7:90:2e:64:4c:76:59:2d:d7:e0:
         a9:43:b0:44:c1:c5:d4:04:65:0d:fe:6c:e5:2c:33:73:e5:7d:
         50:e2:6b:ef:4f:ac:62:ac:47:ae:a2:42:96:8b:60:c4:a9:b5:
         8a:98:72:48:99:56:6a:04:70:84:64:f1:a6:57:a1:95:76:90:
         fc:e3:23:ca:e0:06:38:bb:7b:16:28:67:de:19:f8:b7:da:d9:
         81:4f:e9:95:46:34:56:1b:7a:23:ac:b0:fb:5c:80:86:56:34:
         a3:89:57:87:f2:f4:5d:47:46:c1:d0:3d:cd:e6:d6:e4:ed:2a:
         e8:b6:6d:85:11:e6:f7:de:8d:1d:83:7a:07:dc:25:33:c6:94:
         7d:43:6c:32:a6:c1:8f:7b:a9:bd:f9:b4:0f:50:5c:4b:f5:ae:
         2a:7d:f6:63:d2:c4:82:38:44:7d:77:14:d8:a3:41:b7:66:11:
         6a:21:36:9f:26:56:ce:ad:29:32:c3:b0:d9:2c:70:67:7a:f2:
         66:bb:57:90:56:6f:86:a6:97:04:4a:14:f6:04:a3:09:6b:e9:
         65:8d:e6:8b:33:34:d6:39:e7:74:1c:84:27:6a:48:81:d9:6c:
         e8:b3:d9:8f:8f:f8:1e:2a:65:da:ec:41:be:e2:b9:38:10:47:
         4d:d0:67:9c:55:bb:59:26:e2:80:f9:34:07:49:cc:c9:09:ab:
         d1:9e:6b:50:30:e0:9f:aa:4e:70:04:6b:30:a7:14:f9:93:9f:
         99:5e:55:59:c0:09:ad:da
-----BEGIN CERTIFICATE-----
MIIFsTCCA5mgAwIBAgIBEjANBgkqhkiG9w0BAQUFADBqMQswCQYDVQQGEwJSUzEP
MA0GA1UECAwGU2VyYmlhMREwDwYDVQQHDAhCZWxncmFkZTEQMA4GA1UECgwHQ29k
ZVJlZDERMA8GA1UECwwIU2VjdXJpdHkxEjAQBgNVBAMMCUNsaWVudCBDQTAeFw0x
ODAzMzExMjQ1MDdaFw0xOTAzMzExMjQ1MDdaMDkxETAPBgNVBAoMCENvZGUgUmVk
MREwDwYDVQQLDAhTZWN1cml0eTERMA8GA1UEAwwIdXNlcm5hbWUwggIiMA0GCSqG
SIb3DQEBAQUAA4ICDwAwggIKAoICAQCyS1+u8BxrA+GjS7QYSTsmFFW8wYtxvixo
tBEkc79d3utfDL/pR0EJmwPFCpyL23QE9ct4BSaOuqPNCrg0N93fQHf41MM2Kanz
VND5YJNWi0VQmQ1xmMf2VoAdHpHXOi7j34B6eUwzAzKiPwOLR3eGbwpDsLSmAQ65
jBgkAFFwGl2ZYviXXk1Tg5He21VWXHWczS9YmIkgO+sbSSVpaiLO1O9i15Vz4eub
RerSgBiCXqkbIgb7gd0Njpgyr0cwDyuGS4W3LoRiR1s27qlDYk8LAzWgaTIGMTr+
2vgf0Yc+YkzwitUwy080jG3XJEqYYPjeNWwtBPlnwuI7NoyFxusJxJy9hUrmNcDL
SpQ73SzN3R+/6XlOzejcZO/lRNQpZDPDY0l4tWVncwmHpG14RteY6UcQXhcTxbiN
EhUJeyBo0oevID6SNYrTywsVl1IrKhgF0FfIzggMj84DAkBA7xzIXl4/eaB/2QgC
wLfFoDKWRXyjSfQwCDNHjtRF6Dgmv6vFtTXc8c7St3eFxHiAHgBPUz6K5OPdl1BI
p2dgoyG5MZM0044b/lzALe/rzscSA0CaikkTYOnlmvmaytKXKT/Vojbzy1+A3brF
1jx53KpLtqPhtAGVrC7Th1p3qHqXa+Yz1JCNqJEAXPnFeTvf7ofGuVkj+vuc4iHx
8vfcRZiLCwIDAQABo4GSMIGPMA4GA1UdDwEB/wQEAwIFoDAJBgNVHRMEAjAAMBMG
A1UdJQQMMAoGCCsGAQUFBwMCMB0GA1UdDgQWBBS5yh2w8wow1rS1K8HUhgIS54qe
LjAfBgNVHSMEGDAWgBRATtt/gnp9wpfK5o4gBHm+9+vKtzAdBgNVHREEFjAUgRJw
cm92aWRlZEBlbWFpbC5jb20wDQYJKoZIhvcNAQEFBQADggIBAH9XhrouO+cpqRSA
I9A1L4tt6MVfEj4q25cvJqU7OsFLSMC35hPTImZTb4srUsY0QpJodEPFwd3Lt/pG
Ay9hUjiQLP9o/P5/Bj9i7W8pJZYSDPh2YhyYCU3Ot3Rexkc1tfADVhFeiXL0hbz0
93rxXpKf9XLPvzuiJMIEikyhsl8Cw/zAlCSnyQjVE4SVRRkERmJneod92gop6Dr/
5VNhlNN0x3LOSiAvJdg72rSCYY+bCk6ZCLhXZbsX7D5X+DSqOROnVCq8gslcqw12
7bpQDkDRyMUKdcom17XQ9pwLbVQT95AuZEx2WS3X4KlDsETBxdQEZQ3+bOUsM3Pl
fVDia+9PrGKsR66iQpaLYMSptYqYckiZVmoEcIRk8aZXoZV2kPzjI8rgBji7exYo
Z94Z+Lfa2YFP6ZVGNFYbeiOssPtcgIZWNKOJV4fy9F1HRsHQPc3m1uTtKui2bYUR
5vfejR2DegfcJTPGlH1DbDKmwY97qb35tA9QXEv1rip99mPSxII4RH13FNijQbdm
EWohNp8mVs6tKTLDsNkscGd68ma7V5BWb4amlwRKFPYEowlr6WWN5oszNNY553Qc
hCdqSIHZbOiz2Y+P+B4qZdrsQb7iuTgQR03QZ5xVu1km4oD5NAdJzMkJq9Gea1Aw
4J+qTnAEazCnFPmTn5leVVnACa3a
-----END CERTIFICATE-----
