Certificate:
    Data:
        Version: 3 (0x2)
        Serial Number: 19 (0x13)
    Signature Algorithm: sha1WithRSAEncryption
        Issuer: C=RS, ST=Serbia, L=Belgrade, O=CodeRed, OU=Security, CN=Client CA
        Validity
            Not Before: Mar 31 12:46:10 2018 GMT
            Not After : Mar 31 12:46:10 2019 GMT
        Subject: O=Code Red, OU=Security, CN=username
        Subject Public Key Info:
            Public Key Algorithm: rsaEncryption
                Public-Key: (4096 bit)
                Modulus:
                    00:a1:b8:08:72:c9:9a:c9:ed:b7:a8:11:25:35:d3:
                    1f:d3:52:c8:5e:33:f9:9d:d4:4c:df:b4:2c:3c:a1:
                    29:54:4a:89:33:00:86:fd:80:55:e2:1b:ae:ec:b9:
                    2c:9c:51:2b:ec:8f:79:41:b8:ed:4c:7e:9e:f0:86:
                    54:d5:7e:f1:58:25:db:88:18:dd:c6:77:88:4f:55:
                    58:16:36:32:16:4a:68:3f:d2:f7:5b:ae:91:9b:29:
                    17:7d:36:bf:79:da:ca:58:79:71:d6:8b:a5:88:83:
                    4d:3b:5b:43:2d:97:f4:34:ee:ce:71:18:c5:b5:11:
                    d6:14:a8:2b:d2:8e:dd:13:01:06:cc:f2:97:af:10:
                    d9:77:b5:8f:bc:65:84:9a:d0:f8:3b:b8:7d:03:98:
                    a0:48:f2:87:02:76:a7:fd:9c:3d:61:33:0d:23:41:
                    71:1e:c9:e0:db:4c:49:71:bc:d3:82:2e:5e:d9:77:
                    85:35:28:de:e8:66:cd:be:20:17:64:2a:36:70:4f:
                    bc:83:58:0b:25:94:f1:80:56:80:35:78:58:c1:ea:
                    51:ea:57:27:ec:90:6f:59:b7:3c:7c:0e:da:7a:ce:
                    74:2d:4c:a9:8c:ed:80:71:75:78:94:bc:15:e5:fc:
                    ea:a0:93:89:84:8f:06:71:e8:4f:d9:23:3a:64:47:
                    f5:bc:4a:26:b1:85:e0:db:bf:2e:18:27:1d:93:05:
                    92:cd:ff:13:e5:c2:6a:91:e7:30:dc:bb:fb:d8:77:
                    de:27:e7:48:d2:45:31:58:9a:80:4f:4e:bf:bb:70:
                    69:6b:7d:e0:a2:cc:60:09:b6:57:e2:60:4a:3b:0e:
                    7e:68:26:d6:1e:e6:de:88:5f:87:4a:f5:00:b3:49:
                    2a:7a:f7:00:85:3c:14:d9:4e:3d:fe:6b:98:ae:dd:
                    1a:6f:44:ef:28:d3:15:e8:39:66:10:3e:7b:e7:55:
                    6e:5b:e1:fb:7a:f9:66:bf:12:c1:da:c6:29:19:52:
                    a3:44:bb:c9:e7:5c:96:1b:2d:e2:15:82:0f:6b:55:
                    da:13:fe:13:ac:ba:3b:12:6b:94:d0:1b:05:cf:af:
                    c5:98:22:3e:77:5a:9d:14:98:7f:de:f1:ad:8a:52:
                    f6:d9:ad:da:8b:42:a1:15:e1:a4:60:6f:d8:d6:7d:
                    fa:12:cb:5a:e9:21:28:dd:70:0d:f4:f6:d1:d8:55:
                    e7:ab:12:8b:74:11:a2:fe:40:73:b0:96:26:91:8f:
                    0a:c7:de:d3:33:5a:11:9e:6b:d1:cb:ee:30:7c:99:
                    cf:6d:02:16:cc:e6:c3:ad:bf:a6:b7:28:d6:4e:78:
                    51:25:32:9f:31:d5:26:32:93:d2:9b:5e:a4:4a:04:
                    e0:e9:b9
                Exponent: 65537 (0x10001)
        X509v3 extensions:
            X509v3 Key Usage: critical
                Digital Signature, Key Encipherment
            X509v3 Basic Constraints: 
                CA:FALSE
            X509v3 Extended Key Usage: 
                TLS Web Client Authentication
            X509v3 Subject Key Identifier: 
                63:D3:51:6C:63:29:AF:AA:1F:33:E2:1F:37:8E:7C:61:9C:AD:BB:8A
            X509v3 Authority Key Identifier: 
                keyid:40:4E:DB:7F:82:7A:7D:C2:97:CA:E6:8E:20:04:79:BE:F7:EB:CA:B7

            X509v3 Subject Alternative Name: 
                email:provided@email.com
    Signature Algorithm: sha1WithRSAEncryption
         36:2d:5f:b9:f4:2f:c9:ba:92:1b:c7:ac:08:09:fc:e9:40:ed:
         52:4c:f8:b7:17:35:1d:c6:6b:7b:e1:d7:66:34:7b:11:0a:95:
         c3:a8:4c:10:6a:89:2a:e2:b8:62:64:02:79:ff:55:7b:1d:86:
         a9:b6:2a:e4:ea:bb:ee:d7:14:a3:e9:0f:2e:59:d2:63:59:01:
         e7:05:0e:72:27:80:95:96:7a:97:7a:28:35:56:e5:8b:1f:ae:
         19:37:ca:67:2b:da:4b:99:59:fa:c8:98:66:64:19:2f:9f:e1:
         f2:70:3a:47:1b:b6:bb:43:58:7d:c0:b3:b0:e5:18:80:89:89:
         60:cb:94:ef:b0:55:55:da:54:fb:da:62:7a:e8:9c:53:93:a4:
         cf:1d:21:76:57:4b:d3:19:34:53:f0:12:97:4a:84:00:05:9f:
         51:50:76:7e:6d:d6:e7:bd:01:16:e7:fc:31:05:08:0d:08:d0:
         f0:86:5d:4d:0c:5d:d8:d4:72:43:82:4e:55:19:56:2c:f1:69:
         93:ce:4e:cb:45:0c:e8:28:03:31:01:b2:2e:50:8b:27:80:4e:
         1c:ce:50:a7:b4:e5:19:9a:bf:76:0d:6b:b8:28:93:6f:4e:23:
         d9:53:d1:6d:4d:82:25:59:62:8a:1e:c8:01:8b:b5:07:78:83:
         06:5f:eb:55:e5:d3:9a:87:3b:50:25:49:59:f6:c9:67:bb:c6:
         10:10:bc:f9:b8:e4:ff:0e:ac:59:d0:df:00:06:9b:f8:6f:1f:
         f8:a8:5b:60:fa:55:5f:ec:63:6d:56:2c:d9:4b:77:bd:73:e0:
         ae:17:62:56:f1:d0:82:3b:02:dc:4d:01:f4:f9:2d:c5:85:4b:
         3c:a3:70:2f:e3:f7:bb:b0:64:be:d2:9c:df:fa:eb:70:e9:7c:
         c8:e7:73:25:9d:da:ba:3e:f4:40:bb:56:ff:b2:0c:b1:79:2a:
         b1:8a:c1:5d:86:4a:b0:95:d3:f8:20:00:fc:f3:dd:fb:f3:a1:
         a7:aa:e0:ae:97:ef:5c:01:b8:11:05:39:1e:2b:00:0c:21:77:
         58:3b:29:7d:70:26:f6:79:39:ff:27:c1:13:f1:98:57:7c:55:
         c4:92:a1:eb:97:8c:5c:c4:ed:51:4f:9f:93:fc:e5:ec:dd:43:
         ef:4e:5b:aa:3a:50:b7:2f:a9:44:72:80:81:d1:0d:ee:c7:cd:
         75:e5:fa:bb:e4:e7:96:38:b2:17:73:dd:44:a5:4b:8f:eb:3f:
         f8:ad:a0:08:e3:04:98:d3:0c:e8:b6:08:f4:cd:ae:91:bd:ca:
         47:fb:0e:56:ed:a5:ca:28:14:ef:9b:57:d5:ad:76:9b:c7:14:
         63:f4:31:67:59:6b:72:65
-----BEGIN CERTIFICATE-----
MIIFsTCCA5mgAwIBAgIBEzANBgkqhkiG9w0BAQUFADBqMQswCQYDVQQGEwJSUzEP
MA0GA1UECAwGU2VyYmlhMREwDwYDVQQHDAhCZWxncmFkZTEQMA4GA1UECgwHQ29k
ZVJlZDERMA8GA1UECwwIU2VjdXJpdHkxEjAQBgNVBAMMCUNsaWVudCBDQTAeFw0x
ODAzMzExMjQ2MTBaFw0xOTAzMzExMjQ2MTBaMDkxETAPBgNVBAoMCENvZGUgUmVk
MREwDwYDVQQLDAhTZWN1cml0eTERMA8GA1UEAwwIdXNlcm5hbWUwggIiMA0GCSqG
SIb3DQEBAQUAA4ICDwAwggIKAoICAQChuAhyyZrJ7beoESU10x/TUsheM/md1Ezf
tCw8oSlUSokzAIb9gFXiG67suSycUSvsj3lBuO1Mfp7whlTVfvFYJduIGN3Gd4hP
VVgWNjIWSmg/0vdbrpGbKRd9Nr952spYeXHWi6WIg007W0Mtl/Q07s5xGMW1EdYU
qCvSjt0TAQbM8pevENl3tY+8ZYSa0Pg7uH0DmKBI8ocCdqf9nD1hMw0jQXEeyeDb
TElxvNOCLl7Zd4U1KN7oZs2+IBdkKjZwT7yDWAsllPGAVoA1eFjB6lHqVyfskG9Z
tzx8Dtp6znQtTKmM7YBxdXiUvBXl/Oqgk4mEjwZx6E/ZIzpkR/W8SiaxheDbvy4Y
Jx2TBZLN/xPlwmqR5zDcu/vYd94n50jSRTFYmoBPTr+7cGlrfeCizGAJtlfiYEo7
Dn5oJtYe5t6IX4dK9QCzSSp69wCFPBTZTj3+a5iu3RpvRO8o0xXoOWYQPnvnVW5b
4ft6+Wa/EsHaxikZUqNEu8nnXJYbLeIVgg9rVdoT/hOsujsSa5TQGwXPr8WYIj53
Wp0UmH/e8a2KUvbZrdqLQqEV4aRgb9jWffoSy1rpISjdcA309tHYVeerEot0EaL+
QHOwliaRjwrH3tMzWhGea9HL7jB8mc9tAhbM5sOtv6a3KNZOeFElMp8x1SYyk9Kb
XqRKBODpuQIDAQABo4GSMIGPMA4GA1UdDwEB/wQEAwIFoDAJBgNVHRMEAjAAMBMG
A1UdJQQMMAoGCCsGAQUFBwMCMB0GA1UdDgQWBBRj01FsYymvqh8z4h83jnxhnK27
ijAfBgNVHSMEGDAWgBRATtt/gnp9wpfK5o4gBHm+9+vKtzAdBgNVHREEFjAUgRJw
cm92aWRlZEBlbWFpbC5jb20wDQYJKoZIhvcNAQEFBQADggIBADYtX7n0L8m6khvH
rAgJ/OlA7VJM+LcXNR3Ga3vh12Y0exEKlcOoTBBqiSriuGJkAnn/VXsdhqm2KuTq
u+7XFKPpDy5Z0mNZAecFDnIngJWWepd6KDVW5Ysfrhk3ymcr2kuZWfrImGZkGS+f
4fJwOkcbtrtDWH3As7DlGICJiWDLlO+wVVXaVPvaYnronFOTpM8dIXZXS9MZNFPw
EpdKhAAFn1FQdn5t1ue9ARbn/DEFCA0I0PCGXU0MXdjUckOCTlUZVizxaZPOTstF
DOgoAzEBsi5QiyeAThzOUKe05Rmav3YNa7gok29OI9lT0W1NgiVZYooeyAGLtQd4
gwZf61Xl05qHO1AlSVn2yWe7xhAQvPm45P8OrFnQ3wAGm/hvH/ioW2D6VV/sY21W
LNlLd71z4K4XYlbx0II7AtxNAfT5LcWFSzyjcC/j97uwZL7SnN/663DpfMjncyWd
2ro+9EC7Vv+yDLF5KrGKwV2GSrCV0/ggAPzz3fvzoaeq4K6X71wBuBEFOR4rAAwh
d1g7KX1wJvZ5Of8nwRPxmFd8VcSSoeuXjFzE7VFPn5P85ezdQ+9OW6o6ULcvqURy
gIHRDe7HzXXl+rvk55Y4shdz3USlS4/rP/itoAjjBJjTDOi2CPTNrpG9ykf7Dlbt
pcooFO+bV9WtdpvHFGP0MWdZa3Jl
-----END CERTIFICATE-----
