Certificate:
    Data:
        Version: 3 (0x2)
        Serial Number: 20 (0x14)
    Signature Algorithm: sha1WithRSAEncryption
        Issuer: C=RS, ST=Serbia, L=Belgrade, O=CodeRed, OU=Security, CN=Client CA
        Validity
            Not Before: Mar 31 14:57:12 2018 GMT
            Not After : Mar 31 14:57:12 2019 GMT
        Subject: O=Code Red, OU=Security, CN=username
        Subject Public Key Info:
            Public Key Algorithm: rsaEncryption
                Public-Key: (4096 bit)
                Modulus:
                    00:ba:86:8c:d0:4d:c1:ec:04:53:12:7a:da:fc:27:
                    71:c7:d9:66:1d:4a:30:a1:f3:fd:7d:cf:3b:41:7e:
                    1e:1e:b7:76:44:aa:41:4a:23:8a:50:69:34:66:5c:
                    cc:c9:cd:09:60:a1:60:3a:b1:5a:7e:5d:2a:d6:1b:
                    45:d9:88:a6:05:a5:da:72:c6:ff:a0:f1:17:97:6a:
                    9c:4f:bd:d7:30:3b:d4:09:b7:cd:94:05:aa:ee:0e:
                    88:ea:5b:7a:44:35:aa:1f:ca:e5:79:4a:a9:f0:83:
                    e9:0d:9b:b4:48:37:2e:ca:c2:ac:18:46:95:85:94:
                    56:eb:63:66:5d:f5:b2:b9:c3:92:27:8b:37:37:dd:
                    ad:51:fe:68:92:b4:97:c6:0b:78:9a:77:6f:30:3d:
                    bd:dd:68:8b:94:dd:e9:3c:b7:32:1a:31:3c:3b:cb:
                    fd:05:24:1b:ef:c8:40:fb:69:86:a7:3a:9a:18:61:
                    82:80:11:f3:dc:86:92:37:8a:f5:3b:6c:b3:99:2a:
                    cb:37:69:4a:59:c5:28:aa:a6:69:a1:82:dd:51:be:
                    3e:08:b4:6d:23:d7:1e:a9:c1:19:6f:a6:5c:ab:48:
                    bc:d1:8b:ef:f7:ad:da:ce:8b:ac:e8:f3:6f:43:61:
                    bb:f1:96:60:a9:80:15:cb:19:b8:1d:01:35:ab:b0:
                    01:fb:a3:17:01:1f:fd:e7:d6:31:35:32:ef:0a:9e:
                    1d:ec:97:dc:60:14:bb:5c:97:c9:03:08:15:b3:1f:
                    d5:ea:51:19:b3:ea:4d:17:b3:1a:f4:04:bf:95:04:
                    d0:27:2a:31:b0:d8:96:3e:55:b6:54:ff:1c:e7:82:
                    4f:9a:6e:65:66:57:c4:b8:bf:aa:ba:68:cb:db:fd:
                    de:7d:88:d7:52:db:72:17:5b:84:67:ce:d4:12:4a:
                    a2:a0:40:2a:17:31:e8:07:95:83:5a:d1:73:82:17:
                    63:eb:77:bd:1c:a1:e5:00:38:69:c0:ed:80:c6:92:
                    e6:3e:b6:f2:da:4d:1f:80:ab:0e:c5:e3:6a:d5:61:
                    5d:b4:0c:c4:3b:92:3f:50:27:b0:99:4a:af:f0:de:
                    ab:1d:31:f1:70:44:9a:53:18:1a:bc:5f:56:2a:40:
                    53:bc:29:7c:99:83:dc:50:89:63:87:ab:22:bf:f8:
                    6e:2e:fa:db:26:88:dc:8b:37:60:6d:bd:b4:42:ae:
                    37:21:4b:71:18:de:16:d1:ed:80:7b:bd:4e:d7:b3:
                    60:b9:62:4f:e7:23:d7:93:bb:68:2a:28:71:73:6f:
                    c7:56:60:79:4f:d8:e2:16:3c:68:f0:f0:fe:38:75:
                    63:da:dd:67:fe:bb:4a:50:a9:d4:a5:33:bc:98:40:
                    16:63:49
                Exponent: 65537 (0x10001)
        X509v3 extensions:
            X509v3 Key Usage: critical
                Digital Signature, Key Encipherment
            X509v3 Basic Constraints: 
                CA:FALSE
            X509v3 Extended Key Usage: 
                TLS Web Client Authentication
            X509v3 Subject Key Identifier: 
                89:1A:78:B5:08:EC:F0:98:CA:23:26:8C:A1:1C:1D:92:7C:11:B6:61
            X509v3 Authority Key Identifier: 
                keyid:40:4E:DB:7F:82:7A:7D:C2:97:CA:E6:8E:20:04:79:BE:F7:EB:CA:B7

            X509v3 Subject Alternative Name: 
                email:provided@email.com
    Signature Algorithm: sha1WithRSAEncryption
         aa:82:8e:f7:62:87:85:96:72:40:cf:ed:57:78:27:4d:bb:fc:
         35:34:81:7a:50:e6:ff:0d:4f:9d:a6:94:1b:f6:58:98:ff:a9:
         7a:0b:e9:e5:c8:73:77:ad:b6:da:c2:36:b9:60:14:19:a8:13:
         6c:cc:ae:2c:fa:d5:25:fb:08:e4:94:c8:2b:44:7f:cc:46:e7:
         99:01:a2:d6:ce:96:b4:83:da:50:10:a0:88:30:77:6e:aa:89:
         04:9b:4f:4b:c1:db:57:2d:2f:fd:24:9c:35:e3:79:49:4f:f7:
         53:2c:18:53:d1:fb:cf:7a:18:d2:41:ce:a5:ca:96:9a:49:89:
         5e:59:6d:93:d5:ec:04:32:45:53:ba:8f:23:36:22:c1:9b:26:
         66:01:5c:2c:41:55:62:e2:73:ea:9b:88:83:a5:77:35:14:62:
         72:18:17:05:58:a9:ef:f4:0a:73:1a:d2:2e:8f:24:eb:24:bb:
         2a:cb:2d:c3:6e:2a:5b:1e:02:1d:f0:da:51:72:73:f0:59:41:
         d3:4a:27:24:04:90:b1:97:b2:87:c0:e1:70:97:4f:e6:2a:2c:
         85:d6:1e:95:97:96:81:3a:90:4f:ae:2e:f0:30:23:fa:a6:06:
         42:66:e6:d0:df:e0:05:e4:72:a7:52:94:3a:23:a6:e1:53:80:
         43:8a:21:5d:04:9f:e9:ff:cf:ba:90:17:3e:bd:c6:4b:5c:e3:
         a1:bf:20:28:e0:37:75:ae:db:32:c5:9c:c5:28:0c:1a:de:94:
         08:c7:fc:1a:de:70:d8:65:70:73:23:d5:53:b1:85:9e:a3:5d:
         b2:37:56:b4:bb:31:ae:b0:be:09:cc:de:f7:be:31:8a:94:3e:
         e8:39:55:df:05:66:71:ff:96:4a:3e:d3:31:51:8c:20:2f:57:
         4e:d8:31:58:9d:be:7b:9e:87:01:84:c8:34:47:3a:c8:86:cf:
         39:bf:cb:e0:ee:29:0c:80:1c:61:b0:02:85:f5:61:c2:d2:89:
         66:b5:36:cf:9f:80:a0:8e:d3:44:2c:d9:5d:71:8b:97:01:34:
         bd:c9:e0:a4:dd:b3:87:12:8b:2e:5e:1c:91:4d:87:96:c5:a2:
         25:d2:ed:d7:9b:60:0b:59:b7:ab:56:2b:34:ed:a5:58:6a:59:
         17:8d:3c:93:47:a1:90:28:30:f1:10:6c:c8:33:e3:fe:a3:13:
         98:72:c4:59:ab:54:20:1a:98:51:0f:5c:b1:bb:52:75:c5:c0:
         a6:c3:8e:25:57:65:09:80:d9:08:3e:59:e4:80:f6:8a:9f:33:
         e5:17:b7:94:f2:d1:7f:bd:5c:be:a9:d9:d6:f3:82:af:1e:3e:
         b7:1f:a6:e3:1a:01:d5:14
-----BEGIN CERTIFICATE-----
MIIFsTCCA5mgAwIBAgIBFDANBgkqhkiG9w0BAQUFADBqMQswCQYDVQQGEwJSUzEP
MA0GA1UECAwGU2VyYmlhMREwDwYDVQQHDAhCZWxncmFkZTEQMA4GA1UECgwHQ29k
ZVJlZDERMA8GA1UECwwIU2VjdXJpdHkxEjAQBgNVBAMMCUNsaWVudCBDQTAeFw0x
ODAzMzExNDU3MTJaFw0xOTAzMzExNDU3MTJaMDkxETAPBgNVBAoMCENvZGUgUmVk
MREwDwYDVQQLDAhTZWN1cml0eTERMA8GA1UEAwwIdXNlcm5hbWUwggIiMA0GCSqG
SIb3DQEBAQUAA4ICDwAwggIKAoICAQC6hozQTcHsBFMSetr8J3HH2WYdSjCh8/19
zztBfh4et3ZEqkFKI4pQaTRmXMzJzQlgoWA6sVp+XSrWG0XZiKYFpdpyxv+g8ReX
apxPvdcwO9QJt82UBaruDojqW3pENaofyuV5Sqnwg+kNm7RINy7KwqwYRpWFlFbr
Y2Zd9bK5w5Inizc33a1R/miStJfGC3iad28wPb3daIuU3ek8tzIaMTw7y/0FJBvv
yED7aYanOpoYYYKAEfPchpI3ivU7bLOZKss3aUpZxSiqpmmhgt1Rvj4ItG0j1x6p
wRlvplyrSLzRi+/3rdrOi6zo829DYbvxlmCpgBXLGbgdATWrsAH7oxcBH/3n1jE1
Mu8Knh3sl9xgFLtcl8kDCBWzH9XqURmz6k0Xsxr0BL+VBNAnKjGw2JY+VbZU/xzn
gk+abmVmV8S4v6q6aMvb/d59iNdS23IXW4RnztQSSqKgQCoXMegHlYNa0XOCF2Pr
d70coeUAOGnA7YDGkuY+tvLaTR+Aqw7F42rVYV20DMQ7kj9QJ7CZSq/w3qsdMfFw
RJpTGBq8X1YqQFO8KXyZg9xQiWOHqyK/+G4u+tsmiNyLN2BtvbRCrjchS3EY3hbR
7YB7vU7Xs2C5Yk/nI9eTu2gqKHFzb8dWYHlP2OIWPGjw8P44dWPa3Wf+u0pQqdSl
M7yYQBZjSQIDAQABo4GSMIGPMA4GA1UdDwEB/wQEAwIFoDAJBgNVHRMEAjAAMBMG
A1UdJQQMMAoGCCsGAQUFBwMCMB0GA1UdDgQWBBSJGni1COzwmMojJoyhHB2SfBG2
YTAfBgNVHSMEGDAWgBRATtt/gnp9wpfK5o4gBHm+9+vKtzAdBgNVHREEFjAUgRJw
cm92aWRlZEBlbWFpbC5jb20wDQYJKoZIhvcNAQEFBQADggIBAKqCjvdih4WWckDP
7Vd4J027/DU0gXpQ5v8NT52mlBv2WJj/qXoL6eXIc3etttrCNrlgFBmoE2zMriz6
1SX7COSUyCtEf8xG55kBotbOlrSD2lAQoIgwd26qiQSbT0vB21ctL/0knDXjeUlP
91MsGFPR+896GNJBzqXKlppJiV5ZbZPV7AQyRVO6jyM2IsGbJmYBXCxBVWLic+qb
iIOldzUUYnIYFwVYqe/0CnMa0i6PJOskuyrLLcNuKlseAh3w2lFyc/BZQdNKJyQE
kLGXsofA4XCXT+YqLIXWHpWXloE6kE+uLvAwI/qmBkJm5tDf4AXkcqdSlDojpuFT
gEOKIV0En+n/z7qQFz69xktc46G/ICjgN3Wu2zLFnMUoDBrelAjH/BrecNhlcHMj
1VOxhZ6jXbI3VrS7Ma6wvgnM3ve+MYqUPug5Vd8FZnH/lko+0zFRjCAvV07YMVid
vnuehwGEyDRHOsiGzzm/y+DuKQyAHGGwAoX1YcLSiWa1Ns+fgKCO00Qs2V1xi5cB
NL3J4KTds4cSiy5eHJFNh5bFoiXS7debYAtZt6tWKzTtpVhqWReNPJNHoZAoMPEQ
bMgz4/6jE5hyxFmrVCAamFEPXLG7UnXFwKbDjiVXZQmA2Qg+WeSA9oqfM+UXt5Ty
0X+9XL6p2dbzgq8ePrcfpuMaAdUU
-----END CERTIFICATE-----
