Certificate:
    Data:
        Version: 3 (0x2)
        Serial Number: 21 (0x15)
    Signature Algorithm: sha1WithRSAEncryption
        Issuer: C=RS, ST=Serbia, L=Belgrade, O=CodeRed, OU=Security, CN=Client CA
        Validity
            Not Before: Mar 31 14:57:42 2018 GMT
            Not After : Mar 31 14:57:42 2019 GMT
        Subject: O=Code Red, OU=Security, CN=username
        Subject Public Key Info:
            Public Key Algorithm: rsaEncryption
                Public-Key: (4096 bit)
                Modulus:
                    00:c7:32:c5:4a:1c:d8:11:87:0b:f7:a4:fb:e3:eb:
                    47:2c:37:0c:2a:f7:56:3d:b2:43:0c:8c:85:a6:0b:
                    97:13:d3:f1:87:93:da:8c:22:11:74:f8:c2:f3:2a:
                    ca:df:5b:8b:90:b2:9f:e1:43:f5:4d:36:3a:e7:12:
                    f1:f8:56:c1:49:52:23:c1:a7:ad:34:c7:5e:0d:7c:
                    d4:47:75:60:82:4e:cf:bd:c6:b2:a2:cc:06:fb:1b:
                    3a:c3:b2:e4:00:46:aa:fd:d8:28:5a:2c:37:01:7b:
                    a4:16:39:d1:cf:c6:e4:a1:ae:e1:32:1c:da:f9:00:
                    28:99:7e:51:bf:1a:0e:a0:78:3a:b0:f6:71:03:0d:
                    29:d9:66:c4:ef:61:de:39:dd:05:fc:9e:4a:25:2c:
                    a3:c4:74:22:10:4b:22:12:d8:a6:56:e7:aa:86:04:
                    62:96:87:95:55:69:05:07:6a:7d:ae:7b:1c:86:49:
                    3c:26:82:a9:58:2b:3f:7f:88:2f:6e:88:9f:d1:b2:
                    cd:1e:3f:3d:00:62:61:bb:04:38:ce:4a:f6:b9:77:
                    39:14:9f:c8:cf:6e:b8:ed:a5:14:a2:8d:1e:ee:5b:
                    de:ce:e0:e1:ee:6e:5d:c5:75:d4:b6:73:c8:ce:92:
                    81:e3:76:b1:eb:c7:d9:b8:72:3d:6e:43:2e:71:77:
                    99:12:88:c5:2c:dc:b4:47:a4:87:68:9f:37:ce:bf:
                    2b:c3:74:d5:d1:74:b1:0a:44:ae:8c:eb:c0:c0:22:
                    91:51:9f:34:0f:09:3b:c4:0b:39:e2:4a:e2:0b:65:
                    3e:9e:3e:80:7d:bf:ad:1d:8f:f2:81:1b:8f:ce:93:
                    5d:c4:19:dd:80:65:f5:3e:dd:09:94:13:fd:b5:2a:
                    b9:86:c6:76:02:8e:70:97:9c:dc:48:48:39:f8:09:
                    37:e0:68:c0:f5:ae:31:29:af:db:49:31:6e:9a:ca:
                    b9:31:ea:32:97:e0:4c:b8:c0:9a:08:79:9d:b8:f1:
                    bc:8e:96:e5:19:dd:91:7f:42:aa:62:bd:8b:84:67:
                    36:81:79:ad:81:2a:93:ab:5d:85:f7:ac:93:48:96:
                    76:98:b7:e9:a5:79:69:2b:d5:c8:87:73:4a:27:8d:
                    e7:70:90:4d:30:3e:e8:7f:ed:55:eb:50:46:36:e5:
                    9c:f7:3a:a1:32:f5:cc:2d:3e:a4:c4:0c:ce:a7:01:
                    13:4f:1b:b4:28:6b:22:1c:f9:ff:74:39:15:df:d8:
                    40:1f:56:31:55:7e:94:74:8f:b1:1b:44:f5:4d:a9:
                    3f:9b:6e:67:e8:68:f6:19:1b:c9:f2:46:ab:93:50:
                    ed:1d:28:78:ba:7e:14:62:a5:4a:c3:a1:fb:5b:9e:
                    67:0d:e1
                Exponent: 65537 (0x10001)
        X509v3 extensions:
            X509v3 Key Usage: critical
                Digital Signature, Key Encipherment
            X509v3 Basic Constraints: 
                CA:FALSE
            X509v3 Extended Key Usage: 
                TLS Web Client Authentication
            X509v3 Subject Key Identifier: 
                7B:37:DF:F6:4D:37:A0:2C:A8:1A:6A:C7:33:25:E2:54:DB:F5:2A:CA
            X509v3 Authority Key Identifier: 
                keyid:40:4E:DB:7F:82:7A:7D:C2:97:CA:E6:8E:20:04:79:BE:F7:EB:CA:B7

            X509v3 Subject Alternative Name: 
                email:provided@email.com
    Signature Algorithm: sha1WithRSAEncryption
         4f:3b:a4:ba:09:7e:f8:38:8e:5d:53:d1:c0:af:90:c5:fa:ad:
         90:b3:c4:69:e2:05:78:1e:06:7a:84:79:0f:97:0a:41:7d:fc:
         e8:51:f4:51:2b:9f:37:83:c1:7a:26:b3:88:39:47:bb:5d:ef:
         07:0d:4c:7b:7a:a3:ef:d6:4e:f5:57:36:a5:6a:f5:bf:ed:0c:
         56:9b:53:b3:64:a4:b2:e9:49:e0:e9:2a:d4:61:2f:ec:62:13:
         28:66:a5:b4:b1:0f:e1:7c:e7:83:66:ef:67:fc:5e:8c:30:b4:
         7e:e9:fb:ea:c4:a1:de:9d:2e:d3:80:59:99:0d:00:9d:1b:3f:
         ea:ff:ea:ec:3f:b6:ad:43:31:8e:dc:2c:0a:e4:05:d1:14:bf:
         76:ea:ed:08:89:13:f7:7e:51:1f:40:33:bf:c5:c5:73:22:36:
         a9:26:db:96:88:47:ca:4e:8b:b1:41:65:58:0e:1b:e2:f8:b9:
         93:48:1c:cb:5a:78:8e:32:86:a8:ad:0e:aa:e5:fb:03:bc:0b:
         bb:39:14:ed:4b:be:67:4a:70:c8:ef:ab:ff:68:35:63:30:50:
         bb:48:5b:9a:cc:c9:4d:1f:7e:99:22:43:f1:70:83:d1:73:46:
         49:80:4c:45:a3:58:4d:8e:3e:a3:9a:ea:22:55:d5:2e:c3:5c:
         3f:62:ff:74:bb:c7:00:d7:69:ff:8a:28:45:b2:94:54:39:36:
         6d:09:31:31:b7:ce:7a:a6:bc:df:6d:d3:81:66:d6:ae:bf:e1:
         4c:13:82:a4:c2:e1:dc:5e:e9:56:c7:2f:16:f2:d6:a3:66:a4:
         af:d3:22:20:c6:81:e7:8a:dc:ef:5c:74:27:9e:9a:8c:66:c2:
         d4:6b:70:a2:3b:8e:0e:c9:2f:94:d3:50:91:14:83:87:4b:0e:
         e8:5b:54:e4:34:2e:4d:e6:2f:b8:ab:31:b9:65:2d:f3:48:56:
         af:c7:f2:d3:5a:8e:35:f4:4d:9e:f5:2a:e9:c0:78:64:f9:30:
         17:08:b2:24:3f:69:54:ef:52:76:b7:5a:51:49:5c:fb:00:6a:
         47:71:39:c0:eb:a8:da:db:08:4a:a2:6a:0c:fe:e6:ea:ab:2c:
         eb:b9:5e:ce:de:50:ca:2b:3c:d6:a8:69:eb:a8:d3:c6:f9:5a:
         70:26:16:6e:56:cf:1a:d4:2b:29:a4:1c:b7:7f:47:34:31:e2:
         1a:20:14:fa:a5:66:08:7b:47:78:49:36:a2:2f:0c:dc:07:9c:
         4d:ac:94:8e:81:6d:07:9a:99:71:da:ff:c0:4e:f2:01:b1:bd:
         36:76:8e:ee:da:c7:76:e2:b0:a6:74:d5:13:06:9a:33:4c:4b:
         19:16:9b:df:8e:94:d9:4c
-----BEGIN CERTIFICATE-----
MIIFsTCCA5mgAwIBAgIBFTANBgkqhkiG9w0BAQUFADBqMQswCQYDVQQGEwJSUzEP
MA0GA1UECAwGU2VyYmlhMREwDwYDVQQHDAhCZWxncmFkZTEQMA4GA1UECgwHQ29k
ZVJlZDERMA8GA1UECwwIU2VjdXJpdHkxEjAQBgNVBAMMCUNsaWVudCBDQTAeFw0x
ODAzMzExNDU3NDJaFw0xOTAzMzExNDU3NDJaMDkxETAPBgNVBAoMCENvZGUgUmVk
MREwDwYDVQQLDAhTZWN1cml0eTERMA8GA1UEAwwIdXNlcm5hbWUwggIiMA0GCSqG
SIb3DQEBAQUAA4ICDwAwggIKAoICAQDHMsVKHNgRhwv3pPvj60csNwwq91Y9skMM
jIWmC5cT0/GHk9qMIhF0+MLzKsrfW4uQsp/hQ/VNNjrnEvH4VsFJUiPBp600x14N
fNRHdWCCTs+9xrKizAb7GzrDsuQARqr92ChaLDcBe6QWOdHPxuShruEyHNr5ACiZ
flG/Gg6geDqw9nEDDSnZZsTvYd453QX8nkolLKPEdCIQSyIS2KZW56qGBGKWh5VV
aQUHan2uexyGSTwmgqlYKz9/iC9uiJ/Rss0ePz0AYmG7BDjOSva5dzkUn8jPbrjt
pRSijR7uW97O4OHubl3FddS2c8jOkoHjdrHrx9m4cj1uQy5xd5kSiMUs3LRHpIdo
nzfOvyvDdNXRdLEKRK6M68DAIpFRnzQPCTvECzniSuILZT6ePoB9v60dj/KBG4/O
k13EGd2AZfU+3QmUE/21KrmGxnYCjnCXnNxISDn4CTfgaMD1rjEpr9tJMW6ayrkx
6jKX4Ey4wJoIeZ248byOluUZ3ZF/QqpivYuEZzaBea2BKpOrXYX3rJNIlnaYt+ml
eWkr1ciHc0onjedwkE0wPuh/7VXrUEY25Zz3OqEy9cwtPqTEDM6nARNPG7QoayIc
+f90ORXf2EAfVjFVfpR0j7EbRPVNqT+bbmfoaPYZG8nyRquTUO0dKHi6fhRipUrD
oftbnmcN4QIDAQABo4GSMIGPMA4GA1UdDwEB/wQEAwIFoDAJBgNVHRMEAjAAMBMG
A1UdJQQMMAoGCCsGAQUFBwMCMB0GA1UdDgQWBBR7N9/2TTegLKgaasczJeJU2/Uq
yjAfBgNVHSMEGDAWgBRATtt/gnp9wpfK5o4gBHm+9+vKtzAdBgNVHREEFjAUgRJw
cm92aWRlZEBlbWFpbC5jb20wDQYJKoZIhvcNAQEFBQADggIBAE87pLoJfvg4jl1T
0cCvkMX6rZCzxGniBXgeBnqEeQ+XCkF9/OhR9FErnzeDwXoms4g5R7td7wcNTHt6
o+/WTvVXNqVq9b/tDFabU7NkpLLpSeDpKtRhL+xiEyhmpbSxD+F854Nm72f8Xoww
tH7p++rEod6dLtOAWZkNAJ0bP+r/6uw/tq1DMY7cLArkBdEUv3bq7QiJE/d+UR9A
M7/FxXMiNqkm25aIR8pOi7FBZVgOG+L4uZNIHMtaeI4yhqitDqrl+wO8C7s5FO1L
vmdKcMjvq/9oNWMwULtIW5rMyU0ffpkiQ/Fwg9FzRkmATEWjWE2OPqOa6iJV1S7D
XD9i/3S7xwDXaf+KKEWylFQ5Nm0JMTG3znqmvN9t04Fm1q6/4UwTgqTC4dxe6VbH
Lxby1qNmpK/TIiDGgeeK3O9cdCeemoxmwtRrcKI7jg7JL5TTUJEUg4dLDuhbVOQ0
Lk3mL7irMbllLfNIVq/H8tNajjX0TZ71KunAeGT5MBcIsiQ/aVTvUna3WlFJXPsA
akdxOcDrqNrbCEqiagz+5uqrLOu5Xs7eUMorPNaoaeuo08b5WnAmFm5WzxrUKymk
HLd/RzQx4hogFPqlZgh7R3hJNqIvDNwHnE2slI6BbQeamXHa/8BO8gGxvTZ2ju7a
x3bisKZ01RMGmjNMSxkWm9+OlNlM
-----END CERTIFICATE-----
