Certificate:
    Data:
        Version: 3 (0x2)
        Serial Number: 22 (0x16)
    Signature Algorithm: sha1WithRSAEncryption
        Issuer: C=RS, ST=Serbia, L=Belgrade, O=CodeRed, OU=Security, CN=Client CA
        Validity
            Not Before: Mar 31 15:09:19 2018 GMT
            Not After : Mar 31 15:09:19 2019 GMT
        Subject: O=Code Red, OU=Security, CN=username
        Subject Public Key Info:
            Public Key Algorithm: rsaEncryption
                Public-Key: (4096 bit)
                Modulus:
                    00:b3:5b:3e:4e:8f:9c:c3:ef:a3:35:7a:25:38:44:
                    28:a2:29:39:a0:15:04:df:cf:ff:f3:a0:86:5c:a2:
                    e7:ca:d6:c2:75:b5:ff:a0:aa:a9:57:de:88:82:8c:
                    73:ed:9d:51:13:68:79:3c:c1:3c:f8:ca:37:ea:bb:
                    4f:41:cb:b2:07:95:15:90:c6:51:16:a0:fd:7a:19:
                    a1:2d:c0:7f:f3:fa:f8:d2:0c:bb:d8:b4:33:ba:1e:
                    c4:c5:96:e6:da:0b:f0:63:78:b1:59:a2:3d:09:b3:
                    d7:94:6c:bb:16:44:40:27:e6:42:36:d3:05:f1:97:
                    dc:54:79:a0:16:a8:2b:8c:e4:04:68:ed:8a:a3:b5:
                    bb:c4:35:c2:69:f4:39:5e:bb:57:16:d3:96:b2:65:
                    b9:34:8e:50:62:ab:f1:8c:12:8b:6a:c4:e2:e2:ae:
                    d2:84:ee:1c:49:ec:8c:0e:6f:79:5c:c9:81:00:41:
                    f8:28:c2:0d:f9:85:3b:49:c4:44:de:49:66:72:70:
                    e5:e3:10:73:63:da:15:3b:d5:e7:df:4a:5b:bd:f9:
                    f7:69:81:1f:03:53:cc:c0:16:53:9f:1e:c3:46:24:
                    f8:7e:5a:18:50:77:5b:85:db:41:65:a8:0d:d5:98:
                    65:bf:45:45:b3:aa:e7:58:9d:52:d5:b3:9b:ec:68:
                    a7:bf:90:82:fb:91:0d:42:aa:d0:f7:ac:38:61:77:
                    78:86:6a:00:73:3f:03:37:41:d5:d7:34:7c:75:b0:
                    74:32:b7:ce:d2:b6:e2:51:7c:de:54:ee:83:9a:d1:
                    d8:13:e6:12:e1:32:4c:e2:c7:9e:29:a1:dc:34:62:
                    dd:56:44:b3:20:ba:f1:2f:e7:68:a6:9f:08:25:7a:
                    4a:54:f8:0c:d1:02:3a:08:99:c9:ff:c8:e8:ed:eb:
                    9e:fa:ff:96:84:47:c0:8b:48:28:2f:32:7d:e3:c6:
                    61:27:33:4a:97:98:93:1c:52:7b:0e:bf:90:ed:86:
                    58:c1:35:57:b3:98:2e:cd:c4:26:09:a1:21:dc:ba:
                    79:6d:b0:7a:c9:bd:58:22:f5:7b:96:ed:66:13:8c:
                    38:c0:15:59:69:f6:c5:fb:5d:9b:07:fe:63:42:87:
                    b5:f9:8b:fc:85:ad:3d:2b:18:16:5e:18:a0:e2:79:
                    b1:93:2e:13:a5:cb:09:6e:c1:fe:2f:5a:29:66:0c:
                    fe:53:2a:1c:45:89:cc:cd:2e:a9:ba:45:44:c7:8c:
                    42:c8:85:5f:4c:f3:e8:e3:9b:11:05:5c:21:18:a1:
                    d6:ce:e2:69:91:0e:14:55:37:23:1a:f2:e4:86:82:
                    37:e3:6f:35:6e:9a:f5:59:b6:e9:31:91:db:e8:80:
                    a6:07:d3
                Exponent: 65537 (0x10001)
        X509v3 extensions:
            X509v3 Key Usage: critical
                Digital Signature, Key Encipherment
            X509v3 Basic Constraints: 
                CA:FALSE
            X509v3 Extended Key Usage: 
                TLS Web Client Authentication
            X509v3 Subject Key Identifier: 
                DE:FB:E5:59:54:29:9F:67:2B:D5:0C:D2:0B:B7:AA:5B:93:43:07:86
            X509v3 Authority Key Identifier: 
                keyid:40:4E:DB:7F:82:7A:7D:C2:97:CA:E6:8E:20:04:79:BE:F7:EB:CA:B7

            X509v3 Subject Alternative Name: 
                email:provided@email.com
    Signature Algorithm: sha1WithRSAEncryption
         79:6b:3e:a9:30:fd:5b:eb:9b:e2:d1:9d:ce:dc:fb:20:40:98:
         30:e2:cd:f1:3b:0a:6b:ae:f5:04:60:55:de:4a:89:bf:2d:2c:
         05:54:13:87:4f:51:3c:5c:3a:05:de:05:c4:94:95:06:7b:35:
         fb:1c:6d:66:c3:35:d1:d8:2c:2d:16:3d:2d:c6:d4:dc:c8:7c:
         62:5f:e0:24:79:18:8d:97:38:e0:01:60:ed:22:51:c5:09:c2:
         9a:ab:25:85:b4:35:be:cb:30:da:52:ba:30:db:4c:76:6e:19:
         e5:ff:05:63:fc:2e:3a:e2:86:d9:1f:cb:d8:1e:54:b8:63:aa:
         8a:88:f5:af:18:4d:f6:97:10:3a:94:21:d7:1a:e2:f5:ee:d4:
         d6:56:b4:fa:32:6e:9b:08:a8:78:b6:b6:66:63:39:7f:65:4c:
         ab:fc:b5:e3:5d:a8:a9:28:ca:ea:d8:33:b2:2b:a1:48:8f:e2:
         fa:39:fb:b8:1c:61:16:7b:9c:d8:41:4e:bd:e3:66:36:8a:cc:
         82:f8:5e:a3:0f:a9:02:a7:45:e5:8d:cf:cc:14:2b:ea:98:03:
         d6:13:52:78:d7:85:34:4d:72:81:96:2c:3f:d2:6b:de:0f:6c:
         80:3d:a3:cd:4f:5e:3b:8c:48:01:a7:8a:e2:3a:8e:2e:12:aa:
         7b:10:06:14:70:03:2c:59:d3:b7:34:0b:f3:ca:14:88:ef:48:
         79:ee:a1:b8:d9:3a:59:27:73:0d:0f:a9:0c:7b:5a:bb:37:8f:
         89:75:29:21:7e:91:47:2a:f7:cd:2c:50:d6:c9:db:0c:4f:7e:
         9b:16:82:1e:85:f4:de:61:fb:45:a2:e0:cc:10:e5:ac:d1:69:
         75:43:96:14:1e:21:9f:d3:2b:64:02:90:1f:7f:02:6d:88:fd:
         c8:0d:4c:2e:ee:8f:8d:2c:9c:db:66:65:95:9b:22:bd:5a:47:
         a6:17:85:eb:c1:16:a8:3f:40:72:55:5e:ca:6f:c4:17:d2:e2:
         3c:ce:3d:21:0c:a5:d4:0f:d9:25:a6:30:69:96:59:55:aa:ea:
         ae:60:98:4f:23:c7:6f:4a:90:21:b1:34:53:37:75:e9:b3:51:
         9f:b0:9c:e7:94:f8:b6:67:38:68:7f:56:9f:d7:eb:77:30:f6:
         7f:e9:5b:98:73:b0:27:83:98:60:20:84:c5:af:d0:e3:0b:bc:
         8f:0f:cd:c8:d8:e5:31:4d:b5:d6:ec:f4:fa:44:d8:2e:70:c6:
         4e:68:a6:b5:ca:d2:c2:31:8f:da:fa:ac:5f:52:70:21:21:a2:
         56:98:df:15:87:90:a9:be:f4:57:34:02:05:a4:60:14:85:d5:
         bb:12:d9:3c:51:21:14:05
-----BEGIN CERTIFICATE-----
MIIFsTCCA5mgAwIBAgIBFjANBgkqhkiG9w0BAQUFADBqMQswCQYDVQQGEwJSUzEP
MA0GA1UECAwGU2VyYmlhMREwDwYDVQQHDAhCZWxncmFkZTEQMA4GA1UECgwHQ29k
ZVJlZDERMA8GA1UECwwIU2VjdXJpdHkxEjAQBgNVBAMMCUNsaWVudCBDQTAeFw0x
ODAzMzExNTA5MTlaFw0xOTAzMzExNTA5MTlaMDkxETAPBgNVBAoMCENvZGUgUmVk
MREwDwYDVQQLDAhTZWN1cml0eTERMA8GA1UEAwwIdXNlcm5hbWUwggIiMA0GCSqG
SIb3DQEBAQUAA4ICDwAwggIKAoICAQCzWz5Oj5zD76M1eiU4RCiiKTmgFQTfz//z
oIZcoufK1sJ1tf+gqqlX3oiCjHPtnVETaHk8wTz4yjfqu09By7IHlRWQxlEWoP16
GaEtwH/z+vjSDLvYtDO6HsTFlubaC/BjeLFZoj0Js9eUbLsWREAn5kI20wXxl9xU
eaAWqCuM5ARo7YqjtbvENcJp9Dleu1cW05ayZbk0jlBiq/GMEotqxOLirtKE7hxJ
7IwOb3lcyYEAQfgowg35hTtJxETeSWZycOXjEHNj2hU71effSlu9+fdpgR8DU8zA
FlOfHsNGJPh+WhhQd1uF20FlqA3VmGW/RUWzqudYnVLVs5vsaKe/kIL7kQ1CqtD3
rDhhd3iGagBzPwM3QdXXNHx1sHQyt87StuJRfN5U7oOa0dgT5hLhMkzix54podw0
Yt1WRLMguvEv52imnwglekpU+AzRAjoImcn/yOjt6576/5aER8CLSCgvMn3jxmEn
M0qXmJMcUnsOv5DthljBNVezmC7NxCYJoSHcunltsHrJvVgi9XuW7WYTjDjAFVlp
9sX7XZsH/mNCh7X5i/yFrT0rGBZeGKDiebGTLhOlywluwf4vWilmDP5TKhxFiczN
Lqm6RUTHjELIhV9M8+jjmxEFXCEYodbO4mmRDhRVNyMa8uSGgjfjbzVumvVZtukx
kdvogKYH0wIDAQABo4GSMIGPMA4GA1UdDwEB/wQEAwIFoDAJBgNVHRMEAjAAMBMG
A1UdJQQMMAoGCCsGAQUFBwMCMB0GA1UdDgQWBBTe++VZVCmfZyvVDNILt6pbk0MH
hjAfBgNVHSMEGDAWgBRATtt/gnp9wpfK5o4gBHm+9+vKtzAdBgNVHREEFjAUgRJw
cm92aWRlZEBlbWFpbC5jb20wDQYJKoZIhvcNAQEFBQADggIBAHlrPqkw/Vvrm+LR
nc7c+yBAmDDizfE7Cmuu9QRgVd5Kib8tLAVUE4dPUTxcOgXeBcSUlQZ7NfscbWbD
NdHYLC0WPS3G1NzIfGJf4CR5GI2XOOABYO0iUcUJwpqrJYW0Nb7LMNpSujDbTHZu
GeX/BWP8Ljrihtkfy9geVLhjqoqI9a8YTfaXEDqUIdca4vXu1NZWtPoybpsIqHi2
tmZjOX9lTKv8teNdqKkoyurYM7IroUiP4vo5+7gcYRZ7nNhBTr3jZjaKzIL4XqMP
qQKnReWNz8wUK+qYA9YTUnjXhTRNcoGWLD/Sa94PbIA9o81PXjuMSAGniuI6ji4S
qnsQBhRwAyxZ07c0C/PKFIjvSHnuobjZOlkncw0PqQx7Wrs3j4l1KSF+kUcq980s
UNbJ2wxPfpsWgh6F9N5h+0Wi4MwQ5azRaXVDlhQeIZ/TK2QCkB9/Am2I/cgNTC7u
j40snNtmZZWbIr1aR6YXhevBFqg/QHJVXspvxBfS4jzOPSEMpdQP2SWmMGmWWVWq
6q5gmE8jx29KkCGxNFM3demzUZ+wnOeU+LZnOGh/Vp/X63cw9n/pW5hzsCeDmGAg
hMWv0OMLvI8PzcjY5TFNtdbs9PpE2C5wxk5oprXK0sIxj9r6rF9ScCEholaY3xWH
kKm+9Fc0AgWkYBSF1bsS2TxRIRQF
-----END CERTIFICATE-----
