Certificate:
    Data:
        Version: 3 (0x2)
        Serial Number: 23 (0x17)
    Signature Algorithm: sha1WithRSAEncryption
        Issuer: C=RS, ST=Serbia, L=Belgrade, O=CodeRed, OU=Security, CN=Client CA
        Validity
            Not Before: Mar 31 15:13:00 2018 GMT
            Not After : Mar 31 15:13:00 2019 GMT
        Subject: O=Code Red, OU=Security, CN=username
        Subject Public Key Info:
            Public Key Algorithm: rsaEncryption
                Public-Key: (4096 bit)
                Modulus:
                    00:c8:0a:af:64:26:aa:6d:1c:32:94:3c:b5:1e:25:
                    10:a1:a0:cf:0f:13:d1:dd:51:f8:89:58:e6:00:ef:
                    d6:99:94:3a:0d:4a:76:df:3f:fd:f8:27:64:98:1d:
                    9c:c5:02:40:54:40:55:35:ed:51:4f:99:9c:d5:cb:
                    94:45:14:c5:88:ee:60:2c:7f:51:4a:d6:4a:4e:d0:
                    b5:a6:93:f6:f1:a0:62:d8:4a:72:89:0d:83:5d:63:
                    b8:23:4f:40:f2:9a:5d:94:fd:46:a1:91:bb:d5:4e:
                    0e:06:05:cb:18:25:88:b4:2d:d7:26:f2:a5:2c:ce:
                    c8:3e:e2:f0:e7:25:01:21:6b:b6:41:c3:cf:35:21:
                    df:b8:24:8e:33:40:5c:db:8a:66:af:2b:86:40:b5:
                    e0:bd:80:62:6c:42:97:b1:c1:3e:3a:db:c4:08:49:
                    ca:fc:55:c0:ec:19:13:fb:35:35:03:62:16:dd:19:
                    65:80:49:38:a1:28:1b:5b:f0:9d:6d:5d:aa:f8:7f:
                    c3:f7:4f:22:ad:74:df:7e:4d:d1:c6:42:35:7c:0f:
                    e2:ab:69:8b:b3:4c:a5:51:95:d7:0c:fb:a6:a0:43:
                    2f:8b:28:aa:e3:c5:e5:00:3e:36:5c:db:f4:0e:6b:
                    b2:0f:ba:42:0f:e2:ee:51:5e:ef:fd:04:6a:5a:97:
                    09:af:ee:12:95:71:7b:cf:bb:32:0d:b3:eb:6a:f2:
                    3b:5b:01:c0:63:ea:f1:c0:50:40:81:dc:c7:cd:64:
                    aa:00:01:f8:cf:7b:d2:4f:f8:9c:15:8f:a6:01:48:
                    83:c8:d3:63:3e:36:e1:3c:78:d7:c4:58:9a:6f:3d:
                    a0:aa:43:d5:87:24:46:70:b4:95:d8:0c:2e:32:28:
                    40:ff:d4:ca:f0:a0:b8:44:67:4c:b2:97:b8:cc:85:
                    30:39:71:0f:0b:5c:ee:9d:7f:f7:18:6c:3a:47:73:
                    f1:9f:00:6d:25:eb:f3:8c:8d:ff:43:80:cc:34:b0:
                    1c:d5:8a:7c:cc:b5:9a:bb:86:90:c8:a6:8c:df:57:
                    14:da:c9:dc:6b:69:35:1b:6a:f0:ce:2b:42:2a:de:
                    57:50:c9:0b:0d:ee:8c:d4:8e:62:f9:ad:d1:8c:05:
                    41:e4:9d:79:1e:ce:09:33:ea:5f:07:83:16:fe:b4:
                    94:01:eb:96:6a:1a:59:2c:2f:f8:b5:f7:7a:38:e3:
                    80:11:68:c3:d6:17:e3:ec:c2:d6:ea:db:96:b6:ba:
                    09:ec:42:5f:65:d3:03:a3:5f:af:e6:e6:b3:d9:ac:
                    75:c7:03:b4:e5:46:a6:02:b2:66:c7:de:4c:5c:0f:
                    cd:a7:40:1a:09:a5:57:94:c4:da:18:b1:26:2c:c8:
                    6a:ae:8d
                Exponent: 65537 (0x10001)
        X509v3 extensions:
            X509v3 Key Usage: critical
                Digital Signature, Key Encipherment
            X509v3 Basic Constraints: 
                CA:FALSE
            X509v3 Extended Key Usage: 
                TLS Web Client Authentication
            X509v3 Subject Key Identifier: 
                71:11:31:02:66:56:2D:4C:98:12:25:36:CB:73:84:E4:1C:96:02:65
            X509v3 Authority Key Identifier: 
                keyid:40:4E:DB:7F:82:7A:7D:C2:97:CA:E6:8E:20:04:79:BE:F7:EB:CA:B7

            X509v3 Subject Alternative Name: 
                email:provided@email.com
    Signature Algorithm: sha1WithRSAEncryption
         ae:eb:58:c9:89:fc:32:88:ec:3a:8c:97:ea:8a:db:91:0a:1c:
         2f:e5:a8:b5:d4:22:8d:18:94:dd:c0:20:be:5a:f3:0c:45:94:
         6c:16:cc:0b:e1:c9:8b:62:b7:34:ec:f9:8c:83:84:d7:8f:7f:
         9b:be:d0:ce:9f:13:1a:2e:1c:a3:ca:3f:4b:aa:4c:71:b3:32:
         6f:c5:74:00:0a:65:e2:97:fb:05:07:b0:bc:30:c0:b6:d8:b6:
         bb:86:fb:cb:ed:b6:9b:93:73:89:08:aa:a4:14:40:49:54:7b:
         95:8a:59:89:52:49:97:3d:e6:8d:45:b7:50:b0:2f:71:e0:07:
         0b:53:bb:91:7e:48:2d:17:f8:e5:8b:9c:e9:74:f9:0e:c1:d4:
         5a:2f:d5:5b:65:e8:13:82:8a:83:2e:e5:3a:98:77:3d:da:ca:
         7f:04:0e:62:c0:fc:eb:8f:4d:4d:31:e9:ba:39:05:41:48:32:
         e1:c8:e6:db:9a:c0:cc:14:22:6e:ca:c3:0f:f1:ee:09:bf:dc:
         69:aa:c4:69:80:a5:98:84:a8:1b:5a:c3:9a:61:d1:b3:33:30:
         66:8a:8e:f2:a0:ea:06:33:2c:3c:5c:bf:47:96:80:cb:1f:32:
         79:2f:7b:52:fc:93:35:93:50:76:d8:55:2c:34:ac:c3:9c:9c:
         a4:6c:8e:07:c4:ca:0a:72:03:94:d3:0f:7a:eb:ca:b6:3f:06:
         b0:3c:64:ed:a3:2a:5b:b8:27:1e:8b:c1:c9:c5:c5:0b:53:78:
         ef:69:50:19:13:9b:e5:54:16:fb:b3:39:ef:d9:de:40:31:da:
         9b:e3:37:21:b6:de:2b:a5:82:09:ad:22:52:bf:dd:38:6d:36:
         c5:95:7e:42:e4:a5:10:1e:c8:8f:f4:df:05:62:9e:df:a7:b3:
         0a:6c:8e:c5:22:ee:56:9e:33:57:d3:37:b8:2d:cc:6a:03:35:
         0b:97:1f:9b:97:20:2b:8b:00:ed:59:ad:21:f8:f0:7f:dd:68:
         0c:a3:0f:c1:0e:89:e8:99:d6:28:ad:e4:c8:d6:0d:5f:fe:70:
         d8:98:6f:b0:c0:e1:5c:a0:67:eb:78:7b:aa:7b:df:59:c8:41:
         09:fa:a4:8c:1a:50:7d:b2:4c:53:2a:a1:b8:80:d2:27:47:b3:
         7d:00:dc:e2:14:00:72:ca:95:67:5d:f1:b2:b5:a5:14:af:cf:
         a6:2e:32:38:50:ee:8e:e2:d1:81:28:86:c8:f3:fb:62:98:03:
         55:42:81:87:38:d8:79:6d:36:f3:19:0c:b8:7b:80:93:73:01:
         0f:3e:9f:b2:ce:23:75:ef:36:c2:24:3c:40:2f:79:f0:b6:74:
         cf:16:ea:09:27:d3:87:a2
-----BEGIN CERTIFICATE-----
MIIFsTCCA5mgAwIBAgIBFzANBgkqhkiG9w0BAQUFADBqMQswCQYDVQQGEwJSUzEP
MA0GA1UECAwGU2VyYmlhMREwDwYDVQQHDAhCZWxncmFkZTEQMA4GA1UECgwHQ29k
ZVJlZDERMA8GA1UECwwIU2VjdXJpdHkxEjAQBgNVBAMMCUNsaWVudCBDQTAeFw0x
ODAzMzExNTEzMDBaFw0xOTAzMzExNTEzMDBaMDkxETAPBgNVBAoMCENvZGUgUmVk
MREwDwYDVQQLDAhTZWN1cml0eTERMA8GA1UEAwwIdXNlcm5hbWUwggIiMA0GCSqG
SIb3DQEBAQUAA4ICDwAwggIKAoICAQDICq9kJqptHDKUPLUeJRChoM8PE9HdUfiJ
WOYA79aZlDoNSnbfP/34J2SYHZzFAkBUQFU17VFPmZzVy5RFFMWI7mAsf1FK1kpO
0LWmk/bxoGLYSnKJDYNdY7gjT0Dyml2U/UahkbvVTg4GBcsYJYi0Ldcm8qUszsg+
4vDnJQEha7ZBw881Id+4JI4zQFzbimavK4ZAteC9gGJsQpexwT4628QIScr8VcDs
GRP7NTUDYhbdGWWASTihKBtb8J1tXar4f8P3TyKtdN9+TdHGQjV8D+KraYuzTKVR
ldcM+6agQy+LKKrjxeUAPjZc2/QOa7IPukIP4u5RXu/9BGpalwmv7hKVcXvPuzIN
s+tq8jtbAcBj6vHAUECB3MfNZKoAAfjPe9JP+JwVj6YBSIPI02M+NuE8eNfEWJpv
PaCqQ9WHJEZwtJXYDC4yKED/1MrwoLhEZ0yyl7jMhTA5cQ8LXO6df/cYbDpHc/Gf
AG0l6/OMjf9DgMw0sBzVinzMtZq7hpDIpozfVxTaydxraTUbavDOK0Iq3ldQyQsN
7ozUjmL5rdGMBUHknXkezgkz6l8Hgxb+tJQB65ZqGlksL/i193o444ARaMPWF+Ps
wtbq25a2ugnsQl9l0wOjX6/m5rPZrHXHA7TlRqYCsmbH3kxcD82nQBoJpVeUxNoY
sSYsyGqujQIDAQABo4GSMIGPMA4GA1UdDwEB/wQEAwIFoDAJBgNVHRMEAjAAMBMG
A1UdJQQMMAoGCCsGAQUFBwMCMB0GA1UdDgQWBBRxETECZlYtTJgSJTbLc4TkHJYC
ZTAfBgNVHSMEGDAWgBRATtt/gnp9wpfK5o4gBHm+9+vKtzAdBgNVHREEFjAUgRJw
cm92aWRlZEBlbWFpbC5jb20wDQYJKoZIhvcNAQEFBQADggIBAK7rWMmJ/DKI7DqM
l+qK25EKHC/lqLXUIo0YlN3AIL5a8wxFlGwWzAvhyYtitzTs+YyDhNePf5u+0M6f
ExouHKPKP0uqTHGzMm/FdAAKZeKX+wUHsLwwwLbYtruG+8vttpuTc4kIqqQUQElU
e5WKWYlSSZc95o1Ft1CwL3HgBwtTu5F+SC0X+OWLnOl0+Q7B1Fov1Vtl6BOCioMu
5TqYdz3ayn8EDmLA/OuPTU0x6bo5BUFIMuHI5tuawMwUIm7Kww/x7gm/3GmqxGmA
pZiEqBtaw5ph0bMzMGaKjvKg6gYzLDxcv0eWgMsfMnkve1L8kzWTUHbYVSw0rMOc
nKRsjgfEygpyA5TTD3rryrY/BrA8ZO2jKlu4Jx6LwcnFxQtTeO9pUBkTm+VUFvuz
Oe/Z3kAx2pvjNyG23iulggmtIlK/3ThtNsWVfkLkpRAeyI/03wVint+nswpsjsUi
7laeM1fTN7gtzGoDNQuXH5uXICuLAO1ZrSH48H/daAyjD8EOieiZ1iit5MjWDV/+
cNiYb7DA4VygZ+t4e6p731nIQQn6pIwaUH2yTFMqobiA0idHs30A3OIUAHLKlWdd
8bK1pRSvz6YuMjhQ7o7i0YEohsjz+2KYA1VCgYc42HltNvMZDLh7gJNzAQ8+n7LO
I3XvNsIkPEAvefC2dM8W6gkn04ei
-----END CERTIFICATE-----
