Certificate:
    Data:
        Version: 3 (0x2)
        Serial Number: 24 (0x18)
    Signature Algorithm: sha1WithRSAEncryption
        Issuer: C=RS, ST=Serbia, L=Belgrade, O=CodeRed, OU=Security, CN=Client CA
        Validity
            Not Before: Mar 31 15:13:24 2018 GMT
            Not After : Mar 31 15:13:24 2019 GMT
        Subject: O=Code Red, OU=Security, CN=username
        Subject Public Key Info:
            Public Key Algorithm: rsaEncryption
                Public-Key: (4096 bit)
                Modulus:
                    00:c1:79:89:54:de:75:f0:90:52:22:0b:e8:64:ff:
                    7f:d9:4b:b6:48:29:f1:51:36:01:a2:7f:9c:50:04:
                    c7:48:9a:e6:43:0d:2f:48:95:15:17:ab:c1:5c:1e:
                    2a:98:62:c8:53:c4:78:78:28:f3:9d:f3:4d:8d:87:
                    f5:91:82:da:ab:2e:bb:af:81:72:de:93:e8:f9:15:
                    82:42:91:bf:fa:0d:bd:1d:b0:85:d3:49:45:ce:db:
                    3d:e4:ae:1c:f1:f3:19:17:d9:74:3c:b4:3c:2c:ca:
                    9d:67:a1:4c:75:1c:30:23:cc:a7:d4:e8:c9:e3:48:
                    d4:29:43:4a:90:88:9b:66:5d:98:30:fe:65:9c:03:
                    9e:fa:26:5e:72:8f:50:12:6a:13:22:a1:19:9a:d5:
                    14:69:ca:a7:60:09:4b:37:db:97:84:7c:56:d1:3c:
                    e3:82:ee:b7:75:3a:92:e8:ad:c6:42:eb:24:1e:9b:
                    5a:3d:80:08:16:cf:dd:51:a1:70:d9:9a:99:46:b9:
                    9a:28:9d:36:95:05:31:55:4b:49:9e:72:0d:d1:98:
                    2d:2c:ee:cf:60:f1:32:b3:6c:c5:d3:1e:dc:de:97:
                    03:00:89:bb:f1:8d:f9:f5:62:cd:56:a1:07:ce:05:
                    15:e0:bb:86:58:f3:ef:26:84:3f:59:1d:b9:fa:fe:
                    07:33:96:16:2a:f3:92:43:46:3f:50:3c:33:7d:40:
                    aa:7d:8c:aa:d7:dd:63:ca:2c:29:3d:86:91:27:27:
                    01:a5:a8:d8:27:de:dd:d0:7f:e1:4e:4f:4c:b4:5a:
                    b3:7a:00:48:6f:e9:2f:53:d3:54:30:e5:96:76:9d:
                    4c:62:74:fd:b5:0e:32:ba:79:a5:f0:f6:bf:df:8f:
                    c0:82:ee:23:0e:54:1d:b4:00:97:85:6b:f2:d2:b7:
                    8e:9f:6e:e0:6e:8b:14:75:11:51:a6:78:18:4e:17:
                    a6:f1:81:bf:d7:a0:a9:01:24:f7:52:c2:0b:30:ae:
                    5e:f0:d3:1b:81:11:ea:a1:83:2e:f9:9a:9b:3c:b7:
                    e2:51:b0:ec:bb:ba:e1:f2:93:cf:b4:a7:17:3d:f2:
                    b5:2d:67:c0:0a:6b:83:71:0e:e4:91:d4:31:4c:18:
                    0c:ef:a8:91:de:15:2a:71:9b:41:d5:77:ae:23:0b:
                    be:8d:ad:c8:32:36:73:a0:d9:bd:70:6f:de:6b:54:
                    e8:f0:24:fd:c7:1a:45:64:ab:c9:23:74:7f:2b:d4:
                    48:2f:72:7c:26:29:dc:9e:2a:f9:64:6b:6d:51:b7:
                    cd:5b:b8:af:f4:23:ca:92:30:15:46:94:ae:5c:93:
                    b6:97:47:5e:5d:d3:2c:81:f3:34:20:c5:e7:4a:21:
                    89:cf:e3
                Exponent: 65537 (0x10001)
        X509v3 extensions:
            X509v3 Key Usage: critical
                Digital Signature, Key Encipherment
            X509v3 Basic Constraints: 
                CA:FALSE
            X509v3 Extended Key Usage: 
                TLS Web Client Authentication
            X509v3 Subject Key Identifier: 
                25:1A:26:C9:14:DD:18:17:61:2D:C9:44:E0:0D:04:87:EA:08:9F:D3
            X509v3 Authority Key Identifier: 
                keyid:40:4E:DB:7F:82:7A:7D:C2:97:CA:E6:8E:20:04:79:BE:F7:EB:CA:B7

            X509v3 Subject Alternative Name: 
                email:provided@email.com
    Signature Algorithm: sha1WithRSAEncryption
         39:b0:77:34:22:09:ba:72:38:4f:03:e0:d9:eb:10:28:30:de:
         8c:a6:4c:22:6f:5d:e0:ef:d2:4b:ed:07:69:6b:fe:1f:bb:3e:
         4c:81:6d:2a:73:a8:9a:6e:0a:42:4d:1a:43:86:5c:11:53:cf:
         eb:ce:d7:93:d4:ef:0b:f4:16:68:dd:0f:01:f4:63:5c:d9:2d:
         a1:73:fc:63:58:1a:70:1d:ee:58:84:d6:c6:a4:43:46:f1:ad:
         6e:7a:85:d4:f5:a3:06:f2:2e:2d:35:0e:9b:cf:7b:99:b1:dd:
         bf:e0:69:2d:a4:7f:9e:d0:b8:49:1f:c8:41:8b:c2:c8:17:8f:
         d9:f9:3f:f1:2d:3b:02:af:5e:be:16:05:76:87:98:dd:78:70:
         ba:0b:35:60:2c:0e:60:bf:1f:d3:36:21:93:d9:cf:25:39:66:
         05:67:8b:b2:a4:41:3c:b1:e5:5f:11:05:30:cf:7e:50:31:04:
         3a:72:63:09:01:a8:e2:30:a5:67:50:13:1b:fa:f4:96:3d:ee:
         6d:80:4d:4b:72:02:10:ec:3e:42:db:d7:cc:ab:f1:cd:b1:64:
         af:27:70:d4:fe:f3:2c:4a:84:62:0a:7a:82:26:2f:f3:ed:5d:
         fe:4f:37:30:0d:0a:f5:fa:1b:e2:4f:72:42:9d:d9:1b:ba:7b:
         ff:79:d6:99:ce:60:a5:d1:e5:74:8a:4a:3b:2f:bd:cc:aa:c3:
         69:43:29:73:27:ae:19:71:39:c2:0b:c7:df:c8:b5:71:26:82:
         88:57:bc:46:21:b1:ad:72:85:da:64:9b:c9:10:9b:0b:fd:44:
         0a:63:24:72:1a:3b:c1:0d:12:e5:84:c6:85:92:81:f2:8b:29:
         01:4b:c0:a2:b4:7e:40:94:c7:32:aa:b7:29:9a:11:1d:96:cf:
         d4:bd:07:72:b9:ab:53:27:08:d5:0f:60:c3:0f:33:ee:2c:f4:
         f9:ac:95:65:87:c3:bb:68:95:26:4f:ad:d9:36:37:de:e6:0c:
         b0:47:37:75:4a:80:db:0f:16:86:4f:a9:77:5e:91:c0:ad:0e:
         7f:e9:e2:37:fb:59:cc:e8:d1:a5:8c:91:67:6b:31:81:ba:3b:
         ca:f7:f6:72:1e:af:0d:5e:e8:f1:39:be:17:f6:d9:b8:ba:9e:
         0b:20:13:24:01:d7:33:b9:37:3e:62:c4:31:e7:a1:c8:47:d5:
         4c:ef:ec:ac:23:3f:73:56:23:7d:fe:d4:c9:f2:b0:63:1f:e4:
         6f:ff:9b:c3:3b:41:95:61:c8:68:30:44:ef:d2:7c:d2:2b:b7:
         99:8f:90:82:43:c4:c1:2c:14:4f:1c:1d:ff:89:26:43:75:ff:
         ba:12:7e:e3:bf:45:24:16
-----BEGIN CERTIFICATE-----
MIIFsTCCA5mgAwIBAgIBGDANBgkqhkiG9w0BAQUFADBqMQswCQYDVQQGEwJSUzEP
MA0GA1UECAwGU2VyYmlhMREwDwYDVQQHDAhCZWxncmFkZTEQMA4GA1UECgwHQ29k
ZVJlZDERMA8GA1UECwwIU2VjdXJpdHkxEjAQBgNVBAMMCUNsaWVudCBDQTAeFw0x
ODAzMzExNTEzMjRaFw0xOTAzMzExNTEzMjRaMDkxETAPBgNVBAoMCENvZGUgUmVk
MREwDwYDVQQLDAhTZWN1cml0eTERMA8GA1UEAwwIdXNlcm5hbWUwggIiMA0GCSqG
SIb3DQEBAQUAA4ICDwAwggIKAoICAQDBeYlU3nXwkFIiC+hk/3/ZS7ZIKfFRNgGi
f5xQBMdImuZDDS9IlRUXq8FcHiqYYshTxHh4KPOd802Nh/WRgtqrLruvgXLek+j5
FYJCkb/6Db0dsIXTSUXO2z3krhzx8xkX2XQ8tDwsyp1noUx1HDAjzKfU6MnjSNQp
Q0qQiJtmXZgw/mWcA576Jl5yj1ASahMioRma1RRpyqdgCUs325eEfFbRPOOC7rd1
OpLorcZC6yQem1o9gAgWz91RoXDZmplGuZoonTaVBTFVS0mecg3RmC0s7s9g8TKz
bMXTHtzelwMAibvxjfn1Ys1WoQfOBRXgu4ZY8+8mhD9ZHbn6/gczlhYq85JDRj9Q
PDN9QKp9jKrX3WPKLCk9hpEnJwGlqNgn3t3Qf+FOT0y0WrN6AEhv6S9T01Qw5ZZ2
nUxidP21DjK6eaXw9r/fj8CC7iMOVB20AJeFa/LSt46fbuBuixR1EVGmeBhOF6bx
gb/XoKkBJPdSwgswrl7w0xuBEeqhgy75mps8t+JRsOy7uuHyk8+0pxc98rUtZ8AK
a4NxDuSR1DFMGAzvqJHeFSpxm0HVd64jC76NrcgyNnOg2b1wb95rVOjwJP3HGkVk
q8kjdH8r1EgvcnwmKdyeKvlka21Rt81buK/0I8qSMBVGlK5ck7aXR15d0yyB8zQg
xedKIYnP4wIDAQABo4GSMIGPMA4GA1UdDwEB/wQEAwIFoDAJBgNVHRMEAjAAMBMG
A1UdJQQMMAoGCCsGAQUFBwMCMB0GA1UdDgQWBBQlGibJFN0YF2EtyUTgDQSH6gif
0zAfBgNVHSMEGDAWgBRATtt/gnp9wpfK5o4gBHm+9+vKtzAdBgNVHREEFjAUgRJw
cm92aWRlZEBlbWFpbC5jb20wDQYJKoZIhvcNAQEFBQADggIBADmwdzQiCbpyOE8D
4NnrECgw3oymTCJvXeDv0kvtB2lr/h+7PkyBbSpzqJpuCkJNGkOGXBFTz+vO15PU
7wv0FmjdDwH0Y1zZLaFz/GNYGnAd7liE1sakQ0bxrW56hdT1owbyLi01DpvPe5mx
3b/gaS2kf57QuEkfyEGLwsgXj9n5P/EtOwKvXr4WBXaHmN14cLoLNWAsDmC/H9M2
IZPZzyU5ZgVni7KkQTyx5V8RBTDPflAxBDpyYwkBqOIwpWdQExv69JY97m2ATUty
AhDsPkLb18yr8c2xZK8ncNT+8yxKhGIKeoImL/PtXf5PNzANCvX6G+JPckKd2Ru6
e/951pnOYKXR5XSKSjsvvcyqw2lDKXMnrhlxOcILx9/ItXEmgohXvEYhsa1yhdpk
m8kQmwv9RApjJHIaO8ENEuWExoWSgfKLKQFLwKK0fkCUxzKqtymaER2Wz9S9B3K5
q1MnCNUPYMMPM+4s9PmslWWHw7tolSZPrdk2N97mDLBHN3VKgNsPFoZPqXdekcCt
Dn/p4jf7Wczo0aWMkWdrMYG6O8r39nIerw1e6PE5vhf22bi6ngsgEyQB1zO5Nz5i
xDHnochH1Uzv7KwjP3NWI33+1MnysGMf5G//m8M7QZVhyGgwRO/SfNIrt5mPkIJD
xMEsFE8cHf+JJkN1/7oSfuO/RSQW
-----END CERTIFICATE-----
