Certificate:
    Data:
        Version: 3 (0x2)
        Serial Number: 25 (0x19)
    Signature Algorithm: sha1WithRSAEncryption
        Issuer: C=RS, ST=Serbia, L=Belgrade, O=CodeRed, OU=Security, CN=Client CA
        Validity
            Not Before: Mar 31 15:15:02 2018 GMT
            Not After : Mar 31 15:15:02 2019 GMT
        Subject: O=Code Red, OU=Security, CN=username
        Subject Public Key Info:
            Public Key Algorithm: rsaEncryption
                Public-Key: (4096 bit)
                Modulus:
                    00:cf:ce:11:07:cb:30:1a:5f:a1:83:cf:e3:c6:52:
                    c9:a3:dc:6b:bd:3d:a4:ee:9d:51:f6:18:7e:f3:a5:
                    e4:7d:38:a6:bd:ba:96:53:17:fb:1f:e6:02:e6:da:
                    0a:7b:ab:af:0f:31:3c:f0:db:51:ed:f2:87:a6:4a:
                    70:f4:70:1e:ca:b8:ab:2f:a7:a9:b0:de:50:63:01:
                    d3:e8:50:28:e8:b2:7c:a2:f7:16:fd:c4:17:d8:5f:
                    1a:52:81:7d:c5:db:56:56:fd:8b:6b:71:40:42:99:
                    e9:20:97:b2:c3:8a:87:31:b9:74:d5:b3:51:1d:5a:
                    84:dd:c9:a6:23:35:e6:42:93:9c:d3:1c:c3:f5:3b:
                    56:3f:ad:12:db:12:78:88:5c:3e:58:54:93:c8:da:
                    c0:1b:e1:cd:89:df:6b:46:4e:29:37:b2:99:f9:a1:
                    06:ad:5a:b7:a9:36:9c:37:17:63:fc:fe:d9:e1:05:
                    75:2a:4e:c3:bb:50:51:57:c7:6c:8e:57:4e:4b:09:
                    14:7d:af:e4:4e:fb:e7:cf:cf:03:f5:a8:8f:a7:f6:
                    2f:41:2b:71:b7:2a:49:f8:69:2e:90:6b:57:fa:c8:
                    6f:f9:96:9e:ee:e5:27:96:92:8f:d1:4b:3e:5a:b1:
                    cc:42:97:cf:9e:07:e7:b8:01:bd:4e:e9:8e:40:6c:
                    a0:66:73:e3:8c:c2:78:ab:08:95:a9:02:f4:dc:7f:
                    4b:b6:c5:68:0c:70:50:fe:5a:b7:47:65:87:c2:f3:
                    20:ef:16:bd:22:47:2d:a6:ee:99:6e:c3:9a:72:6f:
                    9a:06:63:3d:59:59:3e:e5:10:48:2a:09:06:20:a5:
                    4c:a6:41:ce:b6:3d:a3:db:71:a1:2f:2d:c8:a0:e5:
                    ed:55:ac:c8:0c:e5:00:f0:1f:c5:01:57:a2:f6:7b:
                    1b:f0:e6:ef:a1:70:7d:44:f8:f7:81:db:88:54:16:
                    5b:ea:b8:f1:9c:c8:47:62:61:c1:0d:72:9e:09:30:
                    7d:0e:8d:39:dd:27:1d:a1:95:eb:3e:6f:d7:c0:b1:
                    e0:9b:7d:16:de:bb:42:7c:56:8a:78:14:50:dd:32:
                    43:4c:43:a9:48:48:2c:16:0f:8d:5b:f8:1d:a7:e7:
                    50:7a:aa:27:ac:e1:55:86:b5:1b:af:a7:2b:59:a5:
                    de:f1:d3:37:95:1d:e7:f6:1b:4d:d9:f9:5f:7f:17:
                    a3:9e:c0:76:2c:48:df:95:b4:8a:40:ac:40:9e:e8:
                    8d:3e:58:79:bd:e2:3a:ef:d3:e8:ce:3f:0e:c0:83:
                    31:9b:af:07:cc:05:d6:ae:4b:38:06:a7:ac:e6:03:
                    29:2b:86:a4:7e:ae:89:cd:1b:e7:50:df:14:a0:9f:
                    30:d2:f5
                Exponent: 65537 (0x10001)
        X509v3 extensions:
            X509v3 Key Usage: critical
                Digital Signature, Key Encipherment
            X509v3 Basic Constraints: 
                CA:FALSE
            X509v3 Extended Key Usage: 
                TLS Web Client Authentication
            X509v3 Subject Key Identifier: 
                69:5A:D2:10:20:55:53:8B:C9:07:0C:8F:B3:FC:7E:14:CC:E2:FE:E2
            X509v3 Authority Key Identifier: 
                keyid:40:4E:DB:7F:82:7A:7D:C2:97:CA:E6:8E:20:04:79:BE:F7:EB:CA:B7

            X509v3 Subject Alternative Name: 
                email:provided@email.com
    Signature Algorithm: sha1WithRSAEncryption
         74:9f:17:c6:e2:3c:78:68:81:d1:ff:0d:f3:3a:c8:ac:6e:b5:
         2b:ce:e6:7c:79:9a:d4:10:14:cc:03:bf:f1:23:b8:0e:52:aa:
         fa:cd:64:55:0a:c9:f4:03:df:08:9f:30:8c:76:dd:39:5e:d3:
         cd:4d:5d:d8:92:c2:d1:f2:43:00:58:93:8b:1a:df:c1:5b:aa:
         1f:56:d3:b1:04:4b:6b:79:2c:4f:76:e0:67:60:a5:78:e8:be:
         aa:9b:2d:29:0d:8e:67:a6:de:30:a3:ce:b4:e5:d1:6a:4d:f9:
         72:05:db:5f:85:94:1b:a2:20:b1:cd:3f:e1:ca:ef:34:19:65:
         92:08:5c:2f:4e:fd:e4:29:bd:cd:7e:d5:35:70:40:39:7a:97:
         f6:cb:75:06:35:91:14:47:69:89:48:29:ce:15:51:49:e9:0f:
         1f:d4:bb:70:54:56:ef:67:45:8a:86:a7:fa:0c:4c:ae:14:0c:
         81:ea:e4:a5:57:42:cb:2a:46:9b:77:72:a9:56:d0:34:b2:52:
         dd:54:24:e6:64:cb:9a:22:da:eb:ec:be:d7:d6:d6:ea:8b:6b:
         cf:ea:23:00:57:0a:58:78:1f:f4:b3:8c:83:91:88:81:7b:5d:
         9b:5f:3a:54:06:ab:b7:49:6c:d8:ce:d4:22:16:10:50:f0:00:
         a4:bf:ca:18:f8:50:9e:46:3d:fc:04:4b:da:a0:43:22:ea:6d:
         c1:62:7a:93:98:97:76:ff:5c:00:d7:92:51:20:41:3e:77:15:
         69:d0:8d:70:37:5c:fc:5c:2a:f4:e6:62:85:55:30:26:15:f2:
         2f:78:9a:f8:74:70:67:93:4c:88:ac:37:b8:e8:43:a4:fc:2a:
         0f:42:73:87:a2:91:a4:c1:7c:98:5c:3a:ef:34:81:dc:ae:dc:
         d3:55:a3:44:48:6f:ce:25:ef:83:11:ec:c2:45:41:4e:52:df:
         46:1a:01:c3:6d:76:9a:85:a9:e7:cc:43:97:05:42:85:0a:cb:
         55:34:a5:b9:08:f5:05:ab:bd:df:72:34:ea:aa:cc:f7:65:f5:
         73:72:26:41:c7:83:fb:d7:22:25:24:bc:a6:0a:a1:ad:5f:6a:
         91:ec:2e:4e:f6:1c:ae:b5:2b:37:1c:fa:26:4e:ed:75:b6:7a:
         dd:0c:b2:51:3d:40:9c:a5:a4:b8:82:7e:a8:d7:6e:44:52:e3:
         a0:0d:5a:19:27:a9:2e:3e:4d:f4:a3:c4:fd:78:67:ad:9a:c8:
         63:f0:9d:7a:21:71:ab:65:d3:f8:a5:d9:d8:e4:d4:58:c2:68:
         48:93:d2:88:b3:59:6b:93:f5:7c:29:65:d5:50:de:b4:4c:1c:
         cc:ac:8c:c2:fb:a9:aa:6b
-----BEGIN CERTIFICATE-----
MIIFsTCCA5mgAwIBAgIBGTANBgkqhkiG9w0BAQUFADBqMQswCQYDVQQGEwJSUzEP
MA0GA1UECAwGU2VyYmlhMREwDwYDVQQHDAhCZWxncmFkZTEQMA4GA1UECgwHQ29k
ZVJlZDERMA8GA1UECwwIU2VjdXJpdHkxEjAQBgNVBAMMCUNsaWVudCBDQTAeFw0x
ODAzMzExNTE1MDJaFw0xOTAzMzExNTE1MDJaMDkxETAPBgNVBAoMCENvZGUgUmVk
MREwDwYDVQQLDAhTZWN1cml0eTERMA8GA1UEAwwIdXNlcm5hbWUwggIiMA0GCSqG
SIb3DQEBAQUAA4ICDwAwggIKAoICAQDPzhEHyzAaX6GDz+PGUsmj3Gu9PaTunVH2
GH7zpeR9OKa9upZTF/sf5gLm2gp7q68PMTzw21Ht8oemSnD0cB7KuKsvp6mw3lBj
AdPoUCjosnyi9xb9xBfYXxpSgX3F21ZW/YtrcUBCmekgl7LDiocxuXTVs1EdWoTd
yaYjNeZCk5zTHMP1O1Y/rRLbEniIXD5YVJPI2sAb4c2J32tGTik3spn5oQatWrep
Npw3F2P8/tnhBXUqTsO7UFFXx2yOV05LCRR9r+RO++fPzwP1qI+n9i9BK3G3Kkn4
aS6Qa1f6yG/5lp7u5SeWko/RSz5ascxCl8+eB+e4Ab1O6Y5AbKBmc+OMwnirCJWp
AvTcf0u2xWgMcFD+WrdHZYfC8yDvFr0iRy2m7pluw5pyb5oGYz1ZWT7lEEgqCQYg
pUymQc62PaPbcaEvLcig5e1VrMgM5QDwH8UBV6L2exvw5u+hcH1E+PeB24hUFlvq
uPGcyEdiYcENcp4JMH0OjTndJx2hles+b9fAseCbfRbeu0J8Vop4FFDdMkNMQ6lI
SCwWD41b+B2n51B6qies4VWGtRuvpytZpd7x0zeVHef2G03Z+V9/F6OewHYsSN+V
tIpArECe6I0+WHm94jrv0+jOPw7AgzGbrwfMBdauSzgGp6zmAykrhqR+ronNG+dQ
3xSgnzDS9QIDAQABo4GSMIGPMA4GA1UdDwEB/wQEAwIFoDAJBgNVHRMEAjAAMBMG
A1UdJQQMMAoGCCsGAQUFBwMCMB0GA1UdDgQWBBRpWtIQIFVTi8kHDI+z/H4UzOL+
4jAfBgNVHSMEGDAWgBRATtt/gnp9wpfK5o4gBHm+9+vKtzAdBgNVHREEFjAUgRJw
cm92aWRlZEBlbWFpbC5jb20wDQYJKoZIhvcNAQEFBQADggIBAHSfF8biPHhogdH/
DfM6yKxutSvO5nx5mtQQFMwDv/EjuA5SqvrNZFUKyfQD3wifMIx23Tle081NXdiS
wtHyQwBYk4sa38Fbqh9W07EES2t5LE924GdgpXjovqqbLSkNjmem3jCjzrTl0WpN
+XIF21+FlBuiILHNP+HK7zQZZZIIXC9O/eQpvc1+1TVwQDl6l/bLdQY1kRRHaYlI
Kc4VUUnpDx/Uu3BUVu9nRYqGp/oMTK4UDIHq5KVXQssqRpt3cqlW0DSyUt1UJOZk
y5oi2uvsvtfW1uqLa8/qIwBXClh4H/SzjIORiIF7XZtfOlQGq7dJbNjO1CIWEFDw
AKS/yhj4UJ5GPfwES9qgQyLqbcFiepOYl3b/XADXklEgQT53FWnQjXA3XPxcKvTm
YoVVMCYV8i94mvh0cGeTTIisN7joQ6T8Kg9Cc4eikaTBfJhcOu80gdyu3NNVo0RI
b84l74MR7MJFQU5S30YaAcNtdpqFqefMQ5cFQoUKy1U0pbkI9QWrvd9yNOqqzPdl
9XNyJkHHg/vXIiUkvKYKoa1fapHsLk72HK61Kzcc+iZO7XW2et0MslE9QJylpLiC
fqjXbkRS46ANWhknqS4+TfSjxP14Z62ayGPwnXohcatl0/il2djk1FjCaEiT0oiz
WWuT9XwpZdVQ3rRMHMysjML7qapr
-----END CERTIFICATE-----
