Certificate:
    Data:
        Version: 3 (0x2)
        Serial Number: 26 (0x1a)
    Signature Algorithm: sha1WithRSAEncryption
        Issuer: C=RS, ST=Serbia, L=Belgrade, O=CodeRed, OU=Security, CN=Client CA
        Validity
            Not Before: Mar 31 15:15:19 2018 GMT
            Not After : Mar 31 15:15:19 2019 GMT
        Subject: O=Code Red, OU=Security, CN=username
        Subject Public Key Info:
            Public Key Algorithm: rsaEncryption
                Public-Key: (4096 bit)
                Modulus:
                    00:cf:a0:32:b1:e2:f3:79:64:94:4b:f7:93:07:f5:
                    ff:d4:02:9e:9a:5b:c3:a2:dd:98:09:9f:66:f0:e1:
                    4e:17:9b:0e:a5:44:fe:74:68:13:de:01:08:7c:51:
                    ab:e7:c7:32:83:bd:7f:e8:f5:f6:31:01:b9:e2:40:
                    1d:96:ba:b4:9a:02:4f:5d:fd:09:f6:30:99:a4:68:
                    d5:c2:be:21:d8:04:4a:a1:6d:be:f1:82:12:f6:3e:
                    6c:6e:71:3f:14:17:32:85:a4:2a:8a:f4:90:5d:2a:
                    96:d6:2d:13:e2:fa:16:8a:7b:51:3e:5c:eb:21:0d:
                    40:d9:e2:c8:01:33:36:42:a7:69:38:2b:d1:92:f0:
                    94:03:28:9f:68:97:1a:19:01:b4:aa:4c:dc:c9:ac:
                    9c:30:8c:98:91:6d:6b:af:e1:93:91:8a:75:fc:21:
                    09:e1:74:29:7f:19:21:05:8e:b8:f6:75:62:d2:e2:
                    42:8e:da:a7:19:64:e0:8a:cf:a4:e4:0e:d1:a5:85:
                    21:f1:0f:a6:f4:c3:6d:1a:54:e8:47:12:52:c2:d6:
                    2e:6d:96:20:b5:23:b7:d5:cb:3d:9b:14:cc:f6:62:
                    5b:5a:11:cc:9d:4a:58:20:59:04:89:15:b6:c5:1f:
                    2f:f7:cd:5f:b5:83:60:8d:2f:a9:2e:35:16:7b:b8:
                    32:6b:4b:cc:6a:de:d8:31:9a:77:1c:8b:5d:a8:cb:
                    ec:fb:6d:36:85:8f:da:62:08:a7:d3:b8:df:8d:bc:
                    d7:0a:02:d1:e6:29:98:53:d4:38:c7:e6:a4:fd:6c:
                    e9:bf:fc:1b:23:f5:3d:fa:b6:f3:ad:66:9d:71:d2:
                    57:1f:97:f8:ad:7b:9b:b9:d5:77:57:c2:b0:38:35:
                    63:e3:a9:b2:d2:c3:8a:80:8f:11:a4:ec:19:30:23:
                    97:79:1f:d8:ec:9f:a3:64:02:e7:bc:7d:9e:c3:6e:
                    16:1f:10:38:92:f3:de:ed:f6:63:2e:07:c4:d1:ff:
                    31:b9:cf:b2:97:5e:76:a1:0e:33:36:09:82:a2:9d:
                    48:a4:1f:67:8f:8c:1e:9b:a7:3f:64:d7:45:6a:68:
                    05:f6:36:a0:8a:20:6f:2a:6b:f8:69:bf:8d:35:96:
                    10:a1:d6:18:83:47:d5:d8:b5:42:db:7a:40:fb:3c:
                    e2:5c:ae:17:28:a6:18:3b:94:e5:44:82:fc:20:6a:
                    1c:f3:c4:50:1d:7f:bf:4b:8b:7d:9e:d3:01:f2:0c:
                    36:0b:f1:05:b4:e2:78:bf:f5:43:e0:e7:07:6a:b5:
                    dd:af:b8:66:77:f5:5d:77:ce:40:6a:d7:35:5a:91:
                    72:60:07:b3:75:9d:0c:10:ee:d1:53:bf:f7:60:eb:
                    fe:54:3f
                Exponent: 65537 (0x10001)
        X509v3 extensions:
            X509v3 Key Usage: critical
                Digital Signature, Key Encipherment
            X509v3 Basic Constraints: 
                CA:FALSE
            X509v3 Extended Key Usage: 
                TLS Web Client Authentication
            X509v3 Subject Key Identifier: 
                5C:48:58:AD:E2:E6:7A:A0:FD:3B:4A:73:A2:05:AF:C1:C8:91:D5:4D
            X509v3 Authority Key Identifier: 
                keyid:40:4E:DB:7F:82:7A:7D:C2:97:CA:E6:8E:20:04:79:BE:F7:EB:CA:B7

            X509v3 Subject Alternative Name: 
                email:provided@email.com
    Signature Algorithm: sha1WithRSAEncryption
         6e:0c:cd:d0:dd:b2:ec:9d:e5:e8:b3:75:4f:65:f3:7f:4b:6d:
         7e:c2:e2:26:6a:53:1b:65:fd:a7:ae:d3:ae:fd:b0:ec:d0:30:
         4a:6e:7f:83:eb:a2:88:0d:9b:55:8d:aa:3e:38:03:72:60:fe:
         8c:03:56:33:5a:de:1b:bf:59:a5:25:5e:4e:02:85:94:b6:df:
         48:4b:62:a5:e4:7e:3d:eb:97:c8:f3:b5:cf:14:6d:ba:94:90:
         74:0f:05:80:cc:39:61:59:2d:e0:fa:d8:88:14:89:e8:eb:63:
         40:c8:64:32:96:82:b4:0f:97:59:0d:32:d6:0f:b7:16:56:82:
         e4:22:97:90:6b:90:96:7c:b5:df:ef:a0:c1:88:66:e9:68:13:
         a6:12:9b:36:ba:23:b1:09:82:69:ab:66:8a:40:13:38:95:51:
         99:cc:08:9e:68:1d:a7:7f:dc:7e:47:fd:b9:9c:2f:09:1b:ff:
         e3:ba:38:31:6d:ca:66:24:f5:4d:91:9c:52:7d:1b:e8:bd:7c:
         c7:96:3c:57:17:0f:04:86:aa:1c:d8:3f:17:41:b5:b8:02:16:
         8e:03:d0:cd:4c:96:39:3f:4d:5a:fa:22:82:a3:31:d3:3c:88:
         a7:41:96:87:99:21:bd:1a:03:e7:4d:09:0f:f1:1a:72:d5:5e:
         34:fc:70:f0:b4:2c:66:25:cd:fd:fb:f1:ed:6e:a7:23:d3:f3:
         7b:57:e4:f2:6e:0d:eb:2c:90:f8:f4:c5:77:76:39:69:0f:06:
         06:62:58:fc:88:15:14:ad:d0:a9:95:82:f4:cf:91:9e:be:f1:
         a0:27:61:8e:3a:7f:ab:10:7c:3d:3e:5f:2a:11:1a:ee:a0:ab:
         d5:13:10:8e:6d:80:e3:1c:09:6c:b9:22:7c:6d:d7:dc:41:43:
         b1:84:b4:8f:d8:fc:ac:b7:75:37:b3:b2:29:e0:c6:44:85:28:
         7b:99:14:d1:9c:02:31:c5:02:f5:62:92:c9:be:30:32:ea:05:
         e6:e4:b0:00:33:b1:4b:e3:aa:59:13:a5:bb:82:18:15:84:e7:
         c4:02:a2:9d:25:33:dc:7e:02:91:35:9f:ca:6c:14:24:ae:e8:
         ee:e1:d8:ca:c8:7c:92:2a:46:34:3f:b1:9c:87:fb:ce:7e:e8:
         70:78:9b:25:91:bf:db:e6:a2:18:f4:f8:ba:92:ab:a6:e0:b2:
         ac:af:c7:60:c5:05:59:c6:6c:9a:3f:fd:76:c2:49:b9:72:84:
         a3:16:12:f5:9d:2d:5e:3b:d7:81:2f:7c:8a:bf:06:ff:aa:ef:
         c8:40:70:5b:cd:19:56:6e:7c:79:6e:d3:41:c1:ea:55:9a:0a:
         a4:fc:da:7e:5a:e9:55:54
-----BEGIN CERTIFICATE-----
MIIFsTCCA5mgAwIBAgIBGjANBgkqhkiG9w0BAQUFADBqMQswCQYDVQQGEwJSUzEP
MA0GA1UECAwGU2VyYmlhMREwDwYDVQQHDAhCZWxncmFkZTEQMA4GA1UECgwHQ29k
ZVJlZDERMA8GA1UECwwIU2VjdXJpdHkxEjAQBgNVBAMMCUNsaWVudCBDQTAeFw0x
ODAzMzExNTE1MTlaFw0xOTAzMzExNTE1MTlaMDkxETAPBgNVBAoMCENvZGUgUmVk
MREwDwYDVQQLDAhTZWN1cml0eTERMA8GA1UEAwwIdXNlcm5hbWUwggIiMA0GCSqG
SIb3DQEBAQUAA4ICDwAwggIKAoICAQDPoDKx4vN5ZJRL95MH9f/UAp6aW8Oi3ZgJ
n2bw4U4Xmw6lRP50aBPeAQh8UavnxzKDvX/o9fYxAbniQB2WurSaAk9d/Qn2MJmk
aNXCviHYBEqhbb7xghL2PmxucT8UFzKFpCqK9JBdKpbWLRPi+haKe1E+XOshDUDZ
4sgBMzZCp2k4K9GS8JQDKJ9olxoZAbSqTNzJrJwwjJiRbWuv4ZORinX8IQnhdCl/
GSEFjrj2dWLS4kKO2qcZZOCKz6TkDtGlhSHxD6b0w20aVOhHElLC1i5tliC1I7fV
yz2bFMz2YltaEcydSlggWQSJFbbFHy/3zV+1g2CNL6kuNRZ7uDJrS8xq3tgxmncc
i12oy+z7bTaFj9piCKfTuN+NvNcKAtHmKZhT1DjH5qT9bOm//Bsj9T36tvOtZp1x
0lcfl/ite5u51XdXwrA4NWPjqbLSw4qAjxGk7BkwI5d5H9jsn6NkAue8fZ7DbhYf
EDiS897t9mMuB8TR/zG5z7KXXnahDjM2CYKinUikH2ePjB6bpz9k10VqaAX2NqCK
IG8qa/hpv401lhCh1hiDR9XYtULbekD7POJcrhcophg7lOVEgvwgahzzxFAdf79L
i32e0wHyDDYL8QW04ni/9UPg5wdqtd2vuGZ39V13zkBq1zVakXJgB7N1nQwQ7tFT
v/dg6/5UPwIDAQABo4GSMIGPMA4GA1UdDwEB/wQEAwIFoDAJBgNVHRMEAjAAMBMG
A1UdJQQMMAoGCCsGAQUFBwMCMB0GA1UdDgQWBBRcSFit4uZ6oP07SnOiBa/ByJHV
TTAfBgNVHSMEGDAWgBRATtt/gnp9wpfK5o4gBHm+9+vKtzAdBgNVHREEFjAUgRJw
cm92aWRlZEBlbWFpbC5jb20wDQYJKoZIhvcNAQEFBQADggIBAG4MzdDdsuyd5eiz
dU9l839LbX7C4iZqUxtl/aeu0679sOzQMEpuf4ProogNm1WNqj44A3Jg/owDVjNa
3hu/WaUlXk4ChZS230hLYqXkfj3rl8jztc8UbbqUkHQPBYDMOWFZLeD62IgUiejr
Y0DIZDKWgrQPl1kNMtYPtxZWguQil5BrkJZ8td/voMGIZuloE6YSmza6I7EJgmmr
ZopAEziVUZnMCJ5oHad/3H5H/bmcLwkb/+O6ODFtymYk9U2RnFJ9G+i9fMeWPFcX
DwSGqhzYPxdBtbgCFo4D0M1Mljk/TVr6IoKjMdM8iKdBloeZIb0aA+dNCQ/xGnLV
XjT8cPC0LGYlzf378e1upyPT83tX5PJuDesskPj0xXd2OWkPBgZiWPyIFRSt0KmV
gvTPkZ6+8aAnYY46f6sQfD0+XyoRGu6gq9UTEI5tgOMcCWy5Inxt19xBQ7GEtI/Y
/Ky3dTezsingxkSFKHuZFNGcAjHFAvViksm+MDLqBebksAAzsUvjqlkTpbuCGBWE
58QCop0lM9x+ApE1n8psFCSu6O7h2MrIfJIqRjQ/sZyH+85+6HB4myWRv9vmohj0
+LqSq6bgsqyvx2DFBVnGbJo//XbCSblyhKMWEvWdLV4714EvfIq/Bv+q78hAcFvN
GVZufHlu00HB6lWaCqT82n5a6VVU
-----END CERTIFICATE-----
