Certificate:
    Data:
        Version: 3 (0x2)
        Serial Number: 27 (0x1b)
    Signature Algorithm: sha1WithRSAEncryption
        Issuer: C=RS, ST=Serbia, L=Belgrade, O=CodeRed, OU=Security, CN=Client CA
        Validity
            Not Before: Mar 31 15:18:55 2018 GMT
            Not After : Mar 31 15:18:55 2019 GMT
        Subject: O=Code Red, OU=Security, CN=username
        Subject Public Key Info:
            Public Key Algorithm: rsaEncryption
                Public-Key: (4096 bit)
                Modulus:
                    00:f1:10:c9:43:86:77:aa:46:d0:ba:11:0c:23:e5:
                    06:a7:4b:d2:ee:c2:79:10:cf:15:5d:35:70:f8:bb:
                    ee:7e:75:cf:63:94:c1:ce:65:07:0c:f5:fd:fe:b3:
                    1f:71:90:d2:ba:9c:31:b0:60:16:80:25:73:eb:8b:
                    39:43:33:f0:cb:34:1e:1e:55:9f:c2:62:44:d5:39:
                    38:d8:0a:96:7c:4c:8d:e2:a6:ad:78:54:a0:a6:57:
                    4e:48:b3:76:e8:54:34:4f:19:b3:b5:b7:45:5d:2e:
                    d3:72:a5:20:45:da:c0:2c:25:f8:65:f1:2c:d3:db:
                    ea:d8:c8:5c:d0:dd:b6:fa:a2:3f:b0:5c:c6:11:6a:
                    b7:97:b9:3c:77:89:d4:83:74:95:b5:79:fb:1b:7a:
                    5a:05:60:35:34:09:d2:3e:45:ae:4a:2a:4b:91:0a:
                    c6:10:fa:a3:a1:d1:f4:4c:e8:41:17:98:94:0e:f3:
                    d0:e0:5c:75:a6:0c:4e:53:1a:ab:8a:0a:a6:83:f8:
                    d6:1f:06:c0:8d:71:d2:28:50:cf:21:05:a8:00:4f:
                    0f:fe:41:ae:fa:f7:31:4f:64:61:75:b2:12:5e:c4:
                    10:17:29:41:0a:e6:aa:fb:c2:84:fc:3f:ed:74:68:
                    8f:47:06:39:e6:5f:6c:a2:05:21:8f:a3:cc:21:aa:
                    69:35:f6:1f:f7:74:5c:32:44:55:7c:a4:70:df:a7:
                    5b:f4:ac:56:dd:0c:4a:54:74:1a:df:dd:68:74:24:
                    a2:8c:6e:35:56:43:f7:31:d2:1c:96:0c:e5:d6:0e:
                    00:c1:f4:75:cf:12:f2:56:3f:29:9d:f2:36:1a:70:
                    33:db:ff:38:8a:a5:d8:18:34:0b:8f:b6:bf:a1:dd:
                    4b:a8:3c:9c:76:2b:89:08:4f:e9:e1:fe:30:96:eb:
                    e5:61:8b:df:ca:8c:29:10:c4:2c:a5:62:ce:b3:e2:
                    17:02:75:35:c4:2e:58:db:7c:36:84:27:cf:a6:df:
                    43:52:0b:81:60:2a:c5:b5:99:24:78:b6:0a:e9:e8:
                    24:c1:09:bc:0b:81:ae:e4:31:f1:80:2c:82:59:b7:
                    99:87:05:35:fa:b9:18:4f:25:6c:a9:78:4b:e7:4b:
                    81:cd:e3:39:9a:f0:0c:10:22:f6:99:21:2a:ba:f3:
                    96:4a:78:e8:15:e1:c9:11:f5:6a:42:c2:f7:1a:38:
                    ed:9f:7d:55:e6:6b:3e:f8:d6:3d:c1:31:3a:7f:fe:
                    c7:cf:fe:af:82:d7:8b:d8:24:32:2c:e7:af:13:f7:
                    ad:74:c6:17:ed:d9:32:a1:69:87:6c:a3:db:86:d7:
                    69:d2:b7:fb:f7:bd:bd:b2:7b:09:c2:99:9f:87:24:
                    bd:3c:41
                Exponent: 65537 (0x10001)
        X509v3 extensions:
            X509v3 Key Usage: critical
                Digital Signature, Key Encipherment
            X509v3 Basic Constraints: 
                CA:FALSE
            X509v3 Extended Key Usage: 
                TLS Web Client Authentication
            X509v3 Subject Key Identifier: 
                CB:47:7C:82:B2:62:F2:82:18:42:10:10:B4:49:B0:22:22:7B:26:1C
            X509v3 Authority Key Identifier: 
                keyid:40:4E:DB:7F:82:7A:7D:C2:97:CA:E6:8E:20:04:79:BE:F7:EB:CA:B7

            X509v3 Subject Alternative Name: 
                email:provided@email.com
    Signature Algorithm: sha1WithRSAEncryption
         9d:b4:ed:29:db:33:c5:a0:86:4b:e1:6c:e7:a8:b0:0d:66:c3:
         de:82:a1:84:1d:02:ff:63:65:b8:95:bd:2b:fc:5b:e5:5e:92:
         9c:36:83:b0:f4:6e:45:5a:7b:03:1e:6f:cf:05:7b:14:4f:c2:
         dc:0f:32:ee:90:41:5d:a8:ee:bd:4c:ce:6d:6e:b4:2f:38:76:
         77:1a:be:31:56:27:a6:8f:b5:b1:e2:b4:ba:4c:42:c0:ae:0d:
         4f:f5:49:12:b5:80:00:23:06:b4:47:d2:51:93:09:7f:f7:6a:
         64:b7:1d:0d:81:ad:6c:99:d3:c8:f9:ed:53:ec:49:b7:70:e5:
         0d:17:31:8d:fe:94:ab:f5:db:50:29:0e:d3:0e:48:87:cc:df:
         f8:4a:49:4b:65:fb:5e:31:ab:6a:ef:04:17:f4:41:83:5c:54:
         51:31:8a:ac:7d:64:5c:a9:6d:6b:c5:7d:4f:fd:d8:a7:06:1d:
         fb:ff:d1:c8:73:39:9b:ad:19:f3:13:f9:39:0b:a8:12:1d:9a:
         c6:38:ab:0c:ee:e6:c4:44:a0:a9:15:bd:20:23:75:5b:45:0d:
         19:fa:17:15:08:1f:ff:c4:66:82:87:6a:34:a9:f5:d1:bd:26:
         23:81:77:9f:22:80:0c:02:5e:6b:a0:4d:59:db:e4:ab:75:c9:
         78:ff:0a:09:7a:d6:f8:d5:89:95:3f:44:72:23:a5:aa:f7:83:
         63:c1:b2:23:0f:4e:48:b1:14:43:d2:0a:71:1a:82:65:1e:52:
         96:f5:3b:db:4d:7b:c2:82:0f:07:66:bc:58:bc:a8:31:98:51:
         f4:e8:20:49:a0:c3:24:fb:e4:e7:c4:6a:f9:fd:f2:a3:49:05:
         95:fe:dc:fd:b4:84:90:b5:5f:76:9c:9e:fd:40:d0:d8:1b:75:
         5c:3e:58:69:ea:2e:55:d9:19:18:c8:5b:bc:11:40:68:aa:5f:
         f9:b7:c4:b9:12:12:35:d8:65:f2:66:d6:62:35:1e:62:ac:48:
         cf:4a:af:13:37:8a:f3:f2:f2:23:27:cd:6b:ee:29:da:a4:42:
         90:24:47:39:98:f9:57:ab:17:1a:b0:d1:62:6f:e2:86:c1:d9:
         98:14:6c:37:54:83:c0:6f:c4:14:04:05:7d:11:77:fe:21:cb:
         fa:51:f9:6a:98:7f:4d:4c:fd:77:e8:02:e3:e0:95:39:f7:6a:
         b2:05:4d:e9:9b:a7:c0:ad:76:4a:02:a2:09:c4:c6:9b:cb:c8:
         73:aa:71:22:2d:de:f9:66:e2:bf:bc:8b:23:71:e5:e5:4f:15:
         69:e6:0b:91:75:c4:7b:94:70:da:b9:17:70:85:da:18:c8:28:
         31:c3:f2:6d:13:d4:8d:f8
-----BEGIN CERTIFICATE-----
MIIFsTCCA5mgAwIBAgIBGzANBgkqhkiG9w0BAQUFADBqMQswCQYDVQQGEwJSUzEP
MA0GA1UECAwGU2VyYmlhMREwDwYDVQQHDAhCZWxncmFkZTEQMA4GA1UECgwHQ29k
ZVJlZDERMA8GA1UECwwIU2VjdXJpdHkxEjAQBgNVBAMMCUNsaWVudCBDQTAeFw0x
ODAzMzExNTE4NTVaFw0xOTAzMzExNTE4NTVaMDkxETAPBgNVBAoMCENvZGUgUmVk
MREwDwYDVQQLDAhTZWN1cml0eTERMA8GA1UEAwwIdXNlcm5hbWUwggIiMA0GCSqG
SIb3DQEBAQUAA4ICDwAwggIKAoICAQDxEMlDhneqRtC6EQwj5QanS9LuwnkQzxVd
NXD4u+5+dc9jlMHOZQcM9f3+sx9xkNK6nDGwYBaAJXPrizlDM/DLNB4eVZ/CYkTV
OTjYCpZ8TI3ipq14VKCmV05Is3boVDRPGbO1t0VdLtNypSBF2sAsJfhl8SzT2+rY
yFzQ3bb6oj+wXMYRareXuTx3idSDdJW1efsbeloFYDU0CdI+Ra5KKkuRCsYQ+qOh
0fRM6EEXmJQO89DgXHWmDE5TGquKCqaD+NYfBsCNcdIoUM8hBagATw/+Qa769zFP
ZGF1shJexBAXKUEK5qr7woT8P+10aI9HBjnmX2yiBSGPo8whqmk19h/3dFwyRFV8
pHDfp1v0rFbdDEpUdBrf3Wh0JKKMbjVWQ/cx0hyWDOXWDgDB9HXPEvJWPymd8jYa
cDPb/ziKpdgYNAuPtr+h3UuoPJx2K4kIT+nh/jCW6+Vhi9/KjCkQxCylYs6z4hcC
dTXELljbfDaEJ8+m30NSC4FgKsW1mSR4tgrp6CTBCbwLga7kMfGALIJZt5mHBTX6
uRhPJWypeEvnS4HN4zma8AwQIvaZISq685ZKeOgV4ckR9WpCwvcaOO2ffVXmaz74
1j3BMTp//sfP/q+C14vYJDIs568T9610xhft2TKhaYdso9uG12nSt/v3vb2yewnC
mZ+HJL08QQIDAQABo4GSMIGPMA4GA1UdDwEB/wQEAwIFoDAJBgNVHRMEAjAAMBMG
A1UdJQQMMAoGCCsGAQUFBwMCMB0GA1UdDgQWBBTLR3yCsmLyghhCEBC0SbAiInsm
HDAfBgNVHSMEGDAWgBRATtt/gnp9wpfK5o4gBHm+9+vKtzAdBgNVHREEFjAUgRJw
cm92aWRlZEBlbWFpbC5jb20wDQYJKoZIhvcNAQEFBQADggIBAJ207SnbM8Wghkvh
bOeosA1mw96CoYQdAv9jZbiVvSv8W+Vekpw2g7D0bkVaewMeb88FexRPwtwPMu6Q
QV2o7r1Mzm1utC84dncavjFWJ6aPtbHitLpMQsCuDU/1SRK1gAAjBrRH0lGTCX/3
amS3HQ2BrWyZ08j57VPsSbdw5Q0XMY3+lKv121ApDtMOSIfM3/hKSUtl+14xq2rv
BBf0QYNcVFExiqx9ZFypbWvFfU/92KcGHfv/0chzOZutGfMT+TkLqBIdmsY4qwzu
5sREoKkVvSAjdVtFDRn6FxUIH//EZoKHajSp9dG9JiOBd58igAwCXmugTVnb5Kt1
yXj/Cgl61vjViZU/RHIjpar3g2PBsiMPTkixFEPSCnEagmUeUpb1O9tNe8KCDwdm
vFi8qDGYUfToIEmgwyT75OfEavn98qNJBZX+3P20hJC1X3acnv1A0NgbdVw+WGnq
LlXZGRjIW7wRQGiqX/m3xLkSEjXYZfJm1mI1HmKsSM9KrxM3ivPy8iMnzWvuKdqk
QpAkRzmY+VerFxqw0WJv4obB2ZgUbDdUg8BvxBQEBX0Rd/4hy/pR+WqYf01M/Xfo
AuPglTn3arIFTembp8CtdkoCognExpvLyHOqcSIt3vlm4r+8iyNx5eVPFWnmC5F1
xHuUcNq5F3CF2hjIKDHD8m0T1I34
-----END CERTIFICATE-----
