Certificate:
    Data:
        Version: 3 (0x2)
        Serial Number: 28 (0x1c)
    Signature Algorithm: sha1WithRSAEncryption
        Issuer: C=RS, ST=Serbia, L=Belgrade, O=CodeRed, OU=Security, CN=Client CA
        Validity
            Not Before: Mar 31 15:19:07 2018 GMT
            Not After : Mar 31 15:19:07 2019 GMT
        Subject: O=Code Red, OU=Security, CN=username
        Subject Public Key Info:
            Public Key Algorithm: rsaEncryption
                Public-Key: (4096 bit)
                Modulus:
                    00:c9:26:77:29:d2:f9:6d:46:03:5c:dd:81:24:54:
                    cf:61:54:83:4f:48:96:e3:d7:a4:fb:e0:78:89:21:
                    13:81:f3:b8:52:52:61:41:fd:a8:4b:1c:ed:ce:cc:
                    f7:6e:ba:5e:c5:18:05:f7:34:49:98:86:e6:3b:4e:
                    6f:5c:e3:6a:96:c1:1a:6c:4f:ba:45:cb:6f:ed:f8:
                    6b:61:11:d0:6e:2d:73:e6:10:05:24:b8:d0:97:1c:
                    3a:63:01:7a:48:5d:58:ca:8b:82:57:e0:6e:53:0d:
                    d4:1f:22:bb:53:1e:cd:a7:5e:a6:92:1a:86:01:27:
                    53:38:ce:78:1c:91:1e:a4:2b:09:26:29:95:04:ae:
                    5d:fa:09:9f:e7:03:a3:cc:24:11:50:79:b3:06:fd:
                    40:da:94:86:30:49:b3:25:d6:fb:ff:f2:9b:e3:be:
                    5c:ea:d6:d5:31:4d:87:65:48:be:67:d5:15:73:d8:
                    c4:c9:f0:42:0d:19:51:a0:7d:63:03:cd:aa:16:5f:
                    75:f4:5a:00:40:0a:81:35:ee:b9:ba:be:65:76:eb:
                    11:b4:ca:e5:b6:f4:4c:c0:05:92:9d:fe:e2:8b:fe:
                    a9:46:9b:87:5f:ed:cb:cb:e0:5c:fc:2a:0c:91:85:
                    73:6e:bf:9e:ab:59:9c:e5:e1:f2:5a:52:08:90:13:
                    84:89:c4:c5:1d:d0:90:09:10:bd:34:8c:c3:22:e0:
                    b0:80:39:38:18:9c:0b:cf:09:5a:48:a4:79:06:d6:
                    c1:5a:e6:0d:be:2f:f4:3d:bc:f3:4b:94:31:fc:c4:
                    83:39:34:ba:a7:a7:8a:dc:8d:4e:9e:73:e0:56:a1:
                    ba:f0:87:b1:f4:c3:c8:ea:74:22:5a:47:a7:7d:cb:
                    be:27:21:84:a0:3e:aa:5a:c0:7b:2d:e2:52:4e:5a:
                    a9:e2:fa:6f:6a:30:c5:ca:21:d6:fb:d5:8f:51:fc:
                    2b:8f:3f:de:38:de:69:27:ad:fa:72:33:2e:9a:c2:
                    a8:6d:ae:c0:05:5a:c7:13:67:55:f9:90:f2:ed:b6:
                    3c:26:63:c6:26:19:00:0c:13:16:fb:f1:af:33:74:
                    19:77:8a:17:ac:db:c6:98:2a:ee:89:b1:ea:04:bd:
                    57:75:40:f6:2f:4a:32:5b:49:eb:65:b6:0a:d2:51:
                    fa:de:4f:28:d1:3b:9c:3b:a6:d6:20:30:1e:17:26:
                    72:56:fe:b9:1a:1b:d1:5c:58:81:de:9d:72:1c:e8:
                    3d:fd:e3:e6:d1:7c:a6:cc:45:c5:98:02:b6:5e:cf:
                    4d:8e:5e:da:06:d5:a7:9e:7f:47:c2:4c:b1:cb:da:
                    34:a3:75:95:bf:b6:8a:25:85:05:b3:c0:f4:ac:06:
                    c1:2c:df
                Exponent: 65537 (0x10001)
        X509v3 extensions:
            X509v3 Key Usage: critical
                Digital Signature, Key Encipherment
            X509v3 Basic Constraints: 
                CA:FALSE
            X509v3 Extended Key Usage: 
                TLS Web Client Authentication
            X509v3 Subject Key Identifier: 
                9C:F6:FE:00:D4:DA:FE:E0:71:A6:CF:23:11:76:A2:7E:54:81:22:7B
            X509v3 Authority Key Identifier: 
                keyid:40:4E:DB:7F:82:7A:7D:C2:97:CA:E6:8E:20:04:79:BE:F7:EB:CA:B7

            X509v3 Subject Alternative Name: 
                email:provided@email.com
    Signature Algorithm: sha1WithRSAEncryption
         33:20:d9:c2:e0:ba:bc:26:22:6d:9a:7c:c0:49:a9:50:58:80:
         da:82:ce:16:79:78:a4:81:f7:6a:83:f7:47:a4:90:ee:a9:e5:
         77:03:0d:db:f9:a0:33:bd:28:21:dc:02:79:25:5b:13:29:cc:
         cc:b8:4a:c3:b0:db:5d:67:d1:c3:a6:ec:1d:9b:9d:40:dc:f7:
         b4:22:a0:cd:e6:9e:77:81:e8:20:ae:d6:e7:20:b9:cb:d6:54:
         ba:f8:1a:97:b2:40:86:0e:a6:13:44:4d:40:9a:bb:89:a1:55:
         a3:de:6d:ff:cc:22:f4:09:90:cc:e2:26:2f:78:93:63:2b:5c:
         87:b2:82:e0:cb:2d:51:fd:c1:56:3c:0d:41:74:16:be:04:44:
         15:bb:8f:f8:3f:ac:51:18:52:ac:a6:41:59:11:ae:bf:8e:21:
         4d:fa:61:e5:11:eb:74:23:5c:a3:35:0b:36:dd:9b:c5:e3:4c:
         1f:b2:ba:9b:03:69:64:07:36:6d:d7:45:8b:11:02:6b:bf:78:
         c4:ca:20:93:16:5f:cf:4d:60:03:92:1e:70:44:78:92:82:78:
         83:48:7d:dc:ce:e2:1c:6d:d9:59:6c:65:9f:5a:de:ff:8e:c3:
         96:c1:30:2f:30:a1:90:0d:5f:52:e6:71:26:59:f2:8a:ca:9a:
         ab:24:9b:b9:9f:9e:ba:3c:dc:01:af:2b:2e:14:9c:ee:b1:92:
         5c:11:6c:c0:7e:ef:c2:02:25:44:37:7e:32:70:87:04:1b:56:
         20:19:e5:ab:2d:56:73:08:37:bb:68:72:56:db:d0:20:d8:7d:
         ed:ba:6e:b9:52:ba:70:ff:a0:97:0e:8d:af:93:11:ed:b6:3c:
         41:17:8f:76:e1:61:3e:fa:17:13:cf:c5:37:ce:09:72:da:6c:
         d7:bf:d5:e6:59:27:d1:97:7b:36:40:c6:dd:92:41:a7:2f:db:
         2d:f8:bc:75:fc:97:31:38:ed:fb:9d:65:75:71:cb:4c:ad:8c:
         db:01:85:34:5d:d2:a7:bc:10:92:c2:c0:0f:b1:bb:00:3e:ca:
         ec:59:28:a2:ff:4b:b1:b9:7c:0b:35:a3:e1:54:03:c5:3e:7b:
         3b:99:51:dc:3a:f2:2d:d9:c1:06:c8:4b:5d:29:7b:6a:c5:c1:
         93:1e:cd:6f:65:16:1e:c1:0c:85:07:4f:13:75:4e:9a:90:97:
         ac:eb:cf:50:eb:a8:5a:da:b9:a2:c4:7e:51:e4:71:19:b1:03:
         00:5f:59:30:a4:2c:87:3c:53:cf:f8:ce:bd:5c:57:cc:3a:aa:
         2b:ac:d2:e1:3f:9d:7b:01:0f:e7:dc:7d:6f:c4:c0:d9:27:1c:
         73:98:f4:99:8f:f9:06:85
-----BEGIN CERTIFICATE-----
MIIFsTCCA5mgAwIBAgIBHDANBgkqhkiG9w0BAQUFADBqMQswCQYDVQQGEwJSUzEP
MA0GA1UECAwGU2VyYmlhMREwDwYDVQQHDAhCZWxncmFkZTEQMA4GA1UECgwHQ29k
ZVJlZDERMA8GA1UECwwIU2VjdXJpdHkxEjAQBgNVBAMMCUNsaWVudCBDQTAeFw0x
ODAzMzExNTE5MDdaFw0xOTAzMzExNTE5MDdaMDkxETAPBgNVBAoMCENvZGUgUmVk
MREwDwYDVQQLDAhTZWN1cml0eTERMA8GA1UEAwwIdXNlcm5hbWUwggIiMA0GCSqG
SIb3DQEBAQUAA4ICDwAwggIKAoICAQDJJncp0vltRgNc3YEkVM9hVINPSJbj16T7
4HiJIROB87hSUmFB/ahLHO3OzPduul7FGAX3NEmYhuY7Tm9c42qWwRpsT7pFy2/t
+GthEdBuLXPmEAUkuNCXHDpjAXpIXVjKi4JX4G5TDdQfIrtTHs2nXqaSGoYBJ1M4
zngckR6kKwkmKZUErl36CZ/nA6PMJBFQebMG/UDalIYwSbMl1vv/8pvjvlzq1tUx
TYdlSL5n1RVz2MTJ8EINGVGgfWMDzaoWX3X0WgBACoE17rm6vmV26xG0yuW29EzA
BZKd/uKL/qlGm4df7cvL4Fz8KgyRhXNuv56rWZzl4fJaUgiQE4SJxMUd0JAJEL00
jMMi4LCAOTgYnAvPCVpIpHkG1sFa5g2+L/Q9vPNLlDH8xIM5NLqnp4rcjU6ec+BW
obrwh7H0w8jqdCJaR6d9y74nIYSgPqpawHst4lJOWqni+m9qMMXKIdb71Y9R/CuP
P9443mknrfpyMy6awqhtrsAFWscTZ1X5kPLttjwmY8YmGQAMExb78a8zdBl3ihes
28aYKu6JseoEvVd1QPYvSjJbSetltgrSUfreTyjRO5w7ptYgMB4XJnJW/rkaG9Fc
WIHenXIc6D394+bRfKbMRcWYArZez02OXtoG1aeef0fCTLHL2jSjdZW/toolhQWz
wPSsBsEs3wIDAQABo4GSMIGPMA4GA1UdDwEB/wQEAwIFoDAJBgNVHRMEAjAAMBMG
A1UdJQQMMAoGCCsGAQUFBwMCMB0GA1UdDgQWBBSc9v4A1Nr+4HGmzyMRdqJ+VIEi
ezAfBgNVHSMEGDAWgBRATtt/gnp9wpfK5o4gBHm+9+vKtzAdBgNVHREEFjAUgRJw
cm92aWRlZEBlbWFpbC5jb20wDQYJKoZIhvcNAQEFBQADggIBADMg2cLgurwmIm2a
fMBJqVBYgNqCzhZ5eKSB92qD90ekkO6p5XcDDdv5oDO9KCHcAnklWxMpzMy4SsOw
211n0cOm7B2bnUDc97QioM3mnneB6CCu1ucgucvWVLr4GpeyQIYOphNETUCau4mh
VaPebf/MIvQJkMziJi94k2MrXIeyguDLLVH9wVY8DUF0Fr4ERBW7j/g/rFEYUqym
QVkRrr+OIU36YeUR63QjXKM1Czbdm8XjTB+yupsDaWQHNm3XRYsRAmu/eMTKIJMW
X89NYAOSHnBEeJKCeINIfdzO4hxt2VlsZZ9a3v+Ow5bBMC8woZANX1LmcSZZ8orK
mqskm7mfnro83AGvKy4UnO6xklwRbMB+78ICJUQ3fjJwhwQbViAZ5astVnMIN7to
clbb0CDYfe26brlSunD/oJcOja+TEe22PEEXj3bhYT76FxPPxTfOCXLabNe/1eZZ
J9GXezZAxt2SQacv2y34vHX8lzE47fudZXVxy0ytjNsBhTRd0qe8EJLCwA+xuwA+
yuxZKKL/S7G5fAs1o+FUA8U+ezuZUdw68i3ZwQbIS10pe2rFwZMezW9lFh7BDIUH
TxN1TpqQl6zrz1DrqFrauaLEflHkcRmxAwBfWTCkLIc8U8/4zr1cV8w6qius0uE/
nXsBD+fcfW/EwNknHHOY9JmP+QaF
-----END CERTIFICATE-----
