Certificate:
    Data:
        Version: 3 (0x2)
        Serial Number: 29 (0x1d)
    Signature Algorithm: sha1WithRSAEncryption
        Issuer: C=RS, ST=Serbia, L=Belgrade, O=CodeRed, OU=Security, CN=Client CA
        Validity
            Not Before: Mar 31 15:20:16 2018 GMT
            Not After : Mar 31 15:20:16 2019 GMT
        Subject: O=Code Red, OU=Security, CN=username
        Subject Public Key Info:
            Public Key Algorithm: rsaEncryption
                Public-Key: (4096 bit)
                Modulus:
                    00:b3:84:05:56:18:0b:fb:ef:f5:52:5c:0d:76:03:
                    33:ca:fe:a7:43:f9:c5:72:5a:b3:db:38:44:c2:3a:
                    78:11:5b:47:51:b3:3c:1e:0d:e1:7e:e5:b4:5e:8b:
                    b8:dc:a3:ae:76:44:27:6e:0e:02:11:a3:ec:c5:b5:
                    d6:89:21:e4:b8:20:d8:84:b5:c7:ac:84:03:1d:c7:
                    55:f0:ca:a5:80:39:87:d6:d1:77:5d:00:58:d0:69:
                    3d:0c:bb:e1:c8:45:72:82:c6:47:27:a6:26:bb:ef:
                    63:d5:85:cc:0b:b5:e3:22:2b:5d:05:ac:57:2f:f1:
                    18:8f:2d:64:40:b3:a8:c8:e0:61:38:3b:0b:89:b1:
                    15:b7:de:bf:a8:75:c9:a2:6d:bd:31:22:70:d8:2e:
                    09:8d:e7:02:f5:3d:6b:c1:49:16:aa:52:73:b9:85:
                    42:a8:5d:e2:45:35:cd:48:ff:4a:8d:aa:11:50:cc:
                    f4:86:9d:45:86:bc:be:9a:14:fe:d3:f2:82:7a:12:
                    18:c9:fa:f4:82:c4:9e:08:0c:5a:8c:d0:cc:2a:5a:
                    47:90:f0:09:df:1e:dd:c1:c2:a9:6c:42:cf:ad:a8:
                    d1:1f:dd:0b:44:cb:89:24:24:be:8a:51:14:ac:ec:
                    14:61:ba:df:69:03:4f:40:e5:6a:a3:e3:c0:dc:40:
                    53:e5:37:df:5c:cb:81:75:cc:73:a4:47:32:24:fe:
                    0f:4a:89:96:e8:80:db:59:65:ce:2c:cf:38:2f:af:
                    72:47:2d:53:4a:78:d7:f0:d1:74:b4:b6:0f:ea:68:
                    ed:19:db:cd:e2:45:db:55:5f:6c:d0:46:aa:31:d0:
                    bb:80:6f:59:83:e9:dc:c4:cc:5d:e9:60:f9:18:8a:
                    b2:52:b1:f6:cf:0f:8e:17:cb:1e:f6:4c:64:26:61:
                    b6:85:3f:ca:5d:82:5a:e2:69:b9:fb:3e:71:e4:e1:
                    72:cc:55:b0:2c:ef:49:74:f1:62:25:e1:94:10:d9:
                    a2:0b:ee:28:51:c8:e0:f6:4c:d7:89:b5:57:26:d3:
                    53:a1:e3:57:57:95:e4:f8:67:cc:48:82:3f:97:91:
                    d1:d6:11:fb:6f:92:9d:dc:e7:ee:e7:23:85:31:f4:
                    00:b8:3f:54:7a:45:ae:d0:30:35:8f:83:b7:eb:39:
                    d1:ac:c0:af:c3:85:3a:ab:11:1f:69:ae:2e:c3:d8:
                    4f:dd:2e:44:1f:23:c2:6a:c6:92:1f:3a:1f:af:1c:
                    77:d1:6e:53:09:95:ae:2c:dc:2f:71:3a:4e:48:3a:
                    db:2a:53:2c:09:4a:76:77:0d:1d:94:6e:f7:3b:78:
                    4b:4b:25:56:53:b3:54:71:fd:b8:80:94:bb:5c:c5:
                    ec:cb:9d
                Exponent: 65537 (0x10001)
        X509v3 extensions:
            X509v3 Key Usage: critical
                Digital Signature, Key Encipherment
            X509v3 Basic Constraints: 
                CA:FALSE
            X509v3 Extended Key Usage: 
                TLS Web Client Authentication
            X509v3 Subject Key Identifier: 
                77:69:40:91:72:82:F5:5F:79:4C:83:EB:9C:89:93:A4:C6:7C:E1:51
            X509v3 Authority Key Identifier: 
                keyid:40:4E:DB:7F:82:7A:7D:C2:97:CA:E6:8E:20:04:79:BE:F7:EB:CA:B7

            X509v3 Subject Alternative Name: 
                email:provided@email.com
    Signature Algorithm: sha1WithRSAEncryption
         8f:90:96:63:fa:c7:67:ac:84:2f:b8:02:f7:c0:3e:ea:59:84:
         f0:eb:6d:a0:7f:b7:64:35:d3:7c:11:5c:a0:8f:dd:27:b4:b8:
         b6:f7:be:c3:c1:f6:3b:17:0b:31:fa:ff:d7:e2:5f:b1:fc:43:
         38:da:df:3a:66:28:b4:e7:2b:7c:a0:be:dd:80:f1:73:44:a7:
         ce:d0:d4:02:e4:12:94:77:85:d3:93:83:40:b1:15:8c:4e:9d:
         60:71:56:c2:3c:59:82:35:3c:e3:68:77:90:6f:fc:7d:bb:f8:
         bc:40:f4:10:c9:76:14:e2:86:8c:7b:80:8e:50:1e:43:36:44:
         61:65:68:80:ff:71:e1:7a:e3:f8:bf:96:fa:a0:04:85:66:4f:
         ba:97:36:6a:6c:4d:f3:78:ac:6f:44:b5:45:44:13:97:21:7d:
         98:5b:40:90:cf:29:cd:b4:da:b4:06:f5:aa:dc:75:0f:c8:2c:
         77:45:2a:4e:57:05:2e:a8:ed:5c:8b:ba:5a:00:3f:e3:4e:ba:
         56:f7:3a:9d:0b:0b:ca:33:df:df:d1:7b:38:14:0a:4e:ef:f5:
         c7:ab:c3:fc:8d:dd:9d:73:31:8e:8b:9a:2a:e3:fa:cf:10:5b:
         70:b2:31:1d:61:4c:41:26:7c:db:ef:52:e9:fa:1f:2f:f6:53:
         8b:e7:85:f9:66:e3:57:f9:1f:20:a3:29:47:38:bc:75:83:e0:
         2e:c1:b3:e5:f0:48:2c:02:6f:6a:b5:b5:ef:84:7a:90:32:04:
         14:36:09:36:cd:b6:8e:70:41:93:02:26:af:84:7d:cb:d4:cf:
         56:04:8d:58:fa:41:4f:70:04:c5:08:0e:91:4a:67:70:48:dd:
         4f:58:b5:ab:15:91:b5:ba:cc:f4:ee:1f:fc:ea:23:d7:80:66:
         88:48:94:cf:13:85:92:d1:e0:0c:6d:d0:69:a5:a2:4b:f1:5f:
         66:d5:68:c5:91:1b:7f:47:81:7b:f1:8c:21:ba:ca:60:bc:08:
         d9:34:c3:e0:5f:53:58:46:c4:0a:99:96:02:73:51:d0:da:69:
         3e:d8:db:c3:1d:af:de:00:af:76:f5:83:6c:ee:c3:e5:04:06:
         1a:8d:df:83:3d:d7:ea:9b:12:04:80:db:08:ab:d5:40:76:7f:
         4e:f6:c4:4c:b8:09:58:9e:75:36:2c:50:b1:bc:c6:1d:f4:0d:
         25:2f:8c:dd:b8:c1:ee:fe:29:23:3a:5a:df:9a:12:d2:9f:f7:
         ef:3a:8a:16:53:52:59:97:da:b9:90:6e:d2:77:c7:e9:2f:57:
         be:2c:7b:97:a8:8b:12:79:ec:00:cd:18:97:ad:67:ba:f3:2d:
         1c:df:c1:fb:fc:ae:77:9a
-----BEGIN CERTIFICATE-----
MIIFsTCCA5mgAwIBAgIBHTANBgkqhkiG9w0BAQUFADBqMQswCQYDVQQGEwJSUzEP
MA0GA1UECAwGU2VyYmlhMREwDwYDVQQHDAhCZWxncmFkZTEQMA4GA1UECgwHQ29k
ZVJlZDERMA8GA1UECwwIU2VjdXJpdHkxEjAQBgNVBAMMCUNsaWVudCBDQTAeFw0x
ODAzMzExNTIwMTZaFw0xOTAzMzExNTIwMTZaMDkxETAPBgNVBAoMCENvZGUgUmVk
MREwDwYDVQQLDAhTZWN1cml0eTERMA8GA1UEAwwIdXNlcm5hbWUwggIiMA0GCSqG
SIb3DQEBAQUAA4ICDwAwggIKAoICAQCzhAVWGAv77/VSXA12AzPK/qdD+cVyWrPb
OETCOngRW0dRszweDeF+5bRei7jco652RCduDgIRo+zFtdaJIeS4INiEtceshAMd
x1XwyqWAOYfW0XddAFjQaT0Mu+HIRXKCxkcnpia772PVhcwLteMiK10FrFcv8RiP
LWRAs6jI4GE4OwuJsRW33r+odcmibb0xInDYLgmN5wL1PWvBSRaqUnO5hUKoXeJF
Nc1I/0qNqhFQzPSGnUWGvL6aFP7T8oJ6EhjJ+vSCxJ4IDFqM0MwqWkeQ8AnfHt3B
wqlsQs+tqNEf3QtEy4kkJL6KURSs7BRhut9pA09A5Wqj48DcQFPlN99cy4F1zHOk
RzIk/g9KiZbogNtZZc4szzgvr3JHLVNKeNfw0XS0tg/qaO0Z283iRdtVX2zQRqox
0LuAb1mD6dzEzF3pYPkYirJSsfbPD44Xyx72TGQmYbaFP8pdglriabn7PnHk4XLM
VbAs70l08WIl4ZQQ2aIL7ihRyOD2TNeJtVcm01Oh41dXleT4Z8xIgj+XkdHWEftv
kp3c5+7nI4Ux9AC4P1R6Ra7QMDWPg7frOdGswK/DhTqrER9pri7D2E/dLkQfI8Jq
xpIfOh+vHHfRblMJla4s3C9xOk5IOtsqUywJSnZ3DR2Ubvc7eEtLJVZTs1Rx/biA
lLtcxezLnQIDAQABo4GSMIGPMA4GA1UdDwEB/wQEAwIFoDAJBgNVHRMEAjAAMBMG
A1UdJQQMMAoGCCsGAQUFBwMCMB0GA1UdDgQWBBR3aUCRcoL1X3lMg+uciZOkxnzh
UTAfBgNVHSMEGDAWgBRATtt/gnp9wpfK5o4gBHm+9+vKtzAdBgNVHREEFjAUgRJw
cm92aWRlZEBlbWFpbC5jb20wDQYJKoZIhvcNAQEFBQADggIBAI+QlmP6x2eshC+4
AvfAPupZhPDrbaB/t2Q103wRXKCP3Se0uLb3vsPB9jsXCzH6/9fiX7H8Qzja3zpm
KLTnK3ygvt2A8XNEp87Q1ALkEpR3hdOTg0CxFYxOnWBxVsI8WYI1PONod5Bv/H27
+LxA9BDJdhTihox7gI5QHkM2RGFlaID/ceF64/i/lvqgBIVmT7qXNmpsTfN4rG9E
tUVEE5chfZhbQJDPKc202rQG9arcdQ/ILHdFKk5XBS6o7VyLuloAP+NOulb3Op0L
C8oz39/RezgUCk7v9cerw/yN3Z1zMY6Lmirj+s8QW3CyMR1hTEEmfNvvUun6Hy/2
U4vnhflm41f5HyCjKUc4vHWD4C7Bs+XwSCwCb2q1te+EepAyBBQ2CTbNto5wQZMC
Jq+EfcvUz1YEjVj6QU9wBMUIDpFKZ3BI3U9YtasVkbW6zPTuH/zqI9eAZohIlM8T
hZLR4Axt0GmlokvxX2bVaMWRG39HgXvxjCG6ymC8CNk0w+BfU1hGxAqZlgJzUdDa
aT7Y28Mdr94Ar3b1g2zuw+UEBhqN34M91+qbEgSA2wir1UB2f072xEy4CViedTYs
ULG8xh30DSUvjN24we7+KSM6Wt+aEtKf9+86ihZTUlmX2rmQbtJ3x+kvV74se5eo
ixJ57ADNGJetZ7rzLRzfwfv8rnea
-----END CERTIFICATE-----
