Certificate:
    Data:
        Version: 3 (0x2)
        Serial Number: 30 (0x1e)
    Signature Algorithm: sha1WithRSAEncryption
        Issuer: C=RS, ST=Serbia, L=Belgrade, O=CodeRed, OU=Security, CN=Client CA
        Validity
            Not Before: Mar 31 15:21:22 2018 GMT
            Not After : Mar 31 15:21:22 2019 GMT
        Subject: O=Code Red, OU=Security, CN=username
        Subject Public Key Info:
            Public Key Algorithm: rsaEncryption
                Public-Key: (4096 bit)
                Modulus:
                    00:bb:62:ea:45:6d:ce:6f:da:93:fd:5a:5c:5d:cb:
                    87:1e:60:f2:0f:23:94:5c:5a:eb:93:66:05:3e:38:
                    2c:48:a4:7d:dc:a0:ad:ef:ab:92:74:a9:b4:f9:30:
                    42:9a:12:9e:fb:f5:4a:f5:aa:0f:75:1f:23:a4:83:
                    22:f4:69:dc:7a:0d:8f:5d:82:fe:b8:70:f9:77:5f:
                    6c:6d:82:58:78:d6:07:37:da:86:42:ec:ee:5c:fe:
                    da:79:43:9e:46:13:db:50:97:54:08:3c:b5:1d:d0:
                    62:e3:47:ff:2a:c2:92:f8:56:0e:da:a7:1c:21:e9:
                    be:b8:1d:ad:04:70:79:4c:d2:66:b4:c6:69:73:18:
                    2d:1f:a1:87:ab:7d:62:bc:53:28:0a:8a:82:8f:f6:
                    75:55:a1:82:ad:5e:95:c1:6c:cd:36:e3:6e:9a:06:
                    7e:a2:c4:6f:11:cd:ed:d7:8f:41:54:a9:43:f5:f3:
                    bb:ee:be:44:90:8f:47:5a:46:90:cf:65:56:bf:a6:
                    c2:a0:d2:84:76:93:8e:a7:4c:22:27:7b:12:f4:c6:
                    47:68:78:02:af:3d:92:e9:e0:d9:41:f3:30:b9:ff:
                    78:3c:46:4a:a4:79:31:10:26:8f:ae:6b:18:19:68:
                    21:e5:08:2a:7f:b2:2d:7b:15:0f:d3:a3:12:62:17:
                    01:81:e9:c0:65:98:bf:73:98:c1:74:fa:81:4b:45:
                    2b:df:5a:e9:b0:f8:9f:ce:37:2d:f6:ec:9d:e9:a7:
                    b4:88:48:27:cb:6e:cc:fc:6b:b2:93:fc:68:e5:69:
                    c5:89:e1:9a:4d:2a:c7:0d:20:0f:22:41:58:e8:43:
                    27:1a:1d:ab:7e:3c:0e:9e:14:8d:c6:9a:80:24:8a:
                    d4:36:a0:4f:9c:1e:31:81:18:a1:0b:e9:33:c8:98:
                    bd:c9:3e:fa:ec:ff:54:67:b4:cd:5a:cf:c1:ca:58:
                    dd:9a:78:36:77:d8:d6:55:bd:bf:26:c5:4b:03:28:
                    b7:69:07:7f:48:19:f3:d7:53:f4:bd:79:a8:9e:17:
                    bb:2d:31:d6:32:73:20:7f:65:75:3b:ee:33:90:4d:
                    a5:87:cc:bb:c0:8f:6d:a3:20:24:fd:43:e7:d7:0e:
                    05:d3:9e:f8:d6:aa:01:5b:fc:26:61:ad:ba:d4:9c:
                    2b:1a:47:fa:22:cd:ae:54:5d:c8:66:4d:0f:e3:af:
                    29:14:93:72:e3:87:5a:9b:8a:b3:ce:e8:66:2d:f2:
                    bd:46:30:7c:3a:82:c4:f8:a9:a7:6c:6e:eb:c1:e9:
                    5c:3f:fa:44:7c:d4:4e:ad:59:14:27:96:fd:43:7a:
                    f7:a3:25:1b:4b:e2:63:1f:85:59:be:33:2a:d7:bb:
                    80:51:07
                Exponent: 65537 (0x10001)
        X509v3 extensions:
            X509v3 Key Usage: critical
                Digital Signature, Key Encipherment
            X509v3 Basic Constraints: 
                CA:FALSE
            X509v3 Extended Key Usage: 
                TLS Web Client Authentication
            X509v3 Subject Key Identifier: 
                0B:4E:2E:7D:FE:50:71:05:58:07:10:6F:99:B7:62:21:A5:A4:E4:67
            X509v3 Authority Key Identifier: 
                keyid:40:4E:DB:7F:82:7A:7D:C2:97:CA:E6:8E:20:04:79:BE:F7:EB:CA:B7

            X509v3 Subject Alternative Name: 
                email:provided@email.com
    Signature Algorithm: sha1WithRSAEncryption
         0c:ff:af:3d:27:0b:99:33:e0:f1:29:b3:8a:37:31:9a:89:18:
         f5:05:33:c6:d0:9d:8a:e0:74:11:14:77:72:14:b1:96:4b:a3:
         06:0d:11:67:cd:27:41:21:fd:bd:7e:b5:03:34:fa:f4:29:fd:
         36:ed:92:1f:e8:09:c3:53:6b:b2:29:9e:06:17:e3:4a:2d:8f:
         4e:f2:5f:85:60:c7:7c:7c:cb:81:7b:ac:02:da:b6:4a:aa:67:
         eb:1b:d0:33:83:24:9b:74:3b:40:a8:b1:33:54:ac:ff:07:22:
         ab:66:8f:ef:cd:67:68:0a:49:5e:1e:c7:d2:ff:4d:3d:95:53:
         77:9e:11:3c:4e:d9:71:ab:32:1e:9d:ad:0b:98:bb:55:f8:ce:
         94:c1:16:b5:bb:3f:47:e4:8d:32:a1:80:19:f7:f2:bc:b8:f0:
         a3:58:bc:75:d5:54:8f:1a:21:36:a1:23:cf:5b:3e:a4:86:e8:
         96:ac:b6:a9:b3:f4:19:4e:4c:01:78:85:1c:02:7e:20:a3:42:
         ca:0e:7f:8f:c3:ff:7a:a1:14:77:97:b3:d8:e7:65:2c:08:17:
         35:14:e8:fe:10:e9:b8:c4:3f:bc:70:65:e6:50:4b:68:6f:41:
         43:5b:37:a0:9d:48:d7:52:8c:bb:38:27:3c:c0:05:d0:33:9c:
         f0:58:70:7a:00:5c:13:f5:9f:76:b6:0e:39:a8:ff:cb:da:2b:
         1e:70:d4:a6:7b:10:6e:66:65:25:27:c4:a6:f5:63:43:10:b5:
         78:99:3e:53:74:9f:9f:f8:6e:6a:81:c3:71:57:ef:f6:c7:f5:
         ec:a4:b7:3e:32:7f:88:0c:81:cd:d1:64:05:af:8a:2f:2c:9e:
         b7:1e:e8:6b:4d:af:23:0f:73:a6:5c:59:e8:f8:cb:ae:e2:8d:
         03:ee:c3:c0:98:9e:63:53:07:49:0a:c0:ec:fb:46:d2:c9:6a:
         ce:53:49:60:ac:cb:6c:51:6d:77:b5:40:6f:97:2b:9d:5e:f6:
         c7:e6:15:d7:81:f5:fd:9e:ce:70:9f:37:f6:d7:67:dc:a4:40:
         84:9b:7f:b1:2e:2d:c4:d0:2e:2a:b8:92:1c:0b:5a:f0:bc:c4:
         0e:df:8c:70:11:ea:b2:4a:6d:2e:5b:db:57:59:b3:87:1a:36:
         1a:c7:ca:bf:91:bf:5e:79:3b:48:f7:57:c8:9a:a4:75:98:9e:
         ff:36:f6:d3:c9:ae:b0:95:37:40:b3:b5:7e:c4:18:a3:19:ad:
         40:6c:5e:d5:1a:06:c8:a1:55:bf:ed:94:e0:8c:5f:d0:06:23:
         9c:a3:5e:ef:1c:c4:b6:bb:88:ce:67:87:61:fd:bc:d2:da:87:
         e0:4c:c5:71:20:94:09:c8
-----BEGIN CERTIFICATE-----
MIIFsTCCA5mgAwIBAgIBHjANBgkqhkiG9w0BAQUFADBqMQswCQYDVQQGEwJSUzEP
MA0GA1UECAwGU2VyYmlhMREwDwYDVQQHDAhCZWxncmFkZTEQMA4GA1UECgwHQ29k
ZVJlZDERMA8GA1UECwwIU2VjdXJpdHkxEjAQBgNVBAMMCUNsaWVudCBDQTAeFw0x
ODAzMzExNTIxMjJaFw0xOTAzMzExNTIxMjJaMDkxETAPBgNVBAoMCENvZGUgUmVk
MREwDwYDVQQLDAhTZWN1cml0eTERMA8GA1UEAwwIdXNlcm5hbWUwggIiMA0GCSqG
SIb3DQEBAQUAA4ICDwAwggIKAoICAQC7YupFbc5v2pP9Wlxdy4ceYPIPI5RcWuuT
ZgU+OCxIpH3coK3vq5J0qbT5MEKaEp779Ur1qg91HyOkgyL0adx6DY9dgv64cPl3
X2xtglh41gc32oZC7O5c/tp5Q55GE9tQl1QIPLUd0GLjR/8qwpL4Vg7apxwh6b64
Ha0EcHlM0ma0xmlzGC0foYerfWK8UygKioKP9nVVoYKtXpXBbM02426aBn6ixG8R
ze3Xj0FUqUP187vuvkSQj0daRpDPZVa/psKg0oR2k46nTCInexL0xkdoeAKvPZLp
4NlB8zC5/3g8RkqkeTEQJo+uaxgZaCHlCCp/si17FQ/ToxJiFwGB6cBlmL9zmMF0
+oFLRSvfWumw+J/ONy327J3pp7SISCfLbsz8a7KT/GjlacWJ4ZpNKscNIA8iQVjo
QycaHat+PA6eFI3GmoAkitQ2oE+cHjGBGKEL6TPImL3JPvrs/1RntM1az8HKWN2a
eDZ32NZVvb8mxUsDKLdpB39IGfPXU/S9eaieF7stMdYycyB/ZXU77jOQTaWHzLvA
j22jICT9Q+fXDgXTnvjWqgFb/CZhrbrUnCsaR/oiza5UXchmTQ/jrykUk3Ljh1qb
irPO6GYt8r1GMHw6gsT4qadsbuvB6Vw/+kR81E6tWRQnlv1DevejJRtL4mMfhVm+
MyrXu4BRBwIDAQABo4GSMIGPMA4GA1UdDwEB/wQEAwIFoDAJBgNVHRMEAjAAMBMG
A1UdJQQMMAoGCCsGAQUFBwMCMB0GA1UdDgQWBBQLTi59/lBxBVgHEG+Zt2IhpaTk
ZzAfBgNVHSMEGDAWgBRATtt/gnp9wpfK5o4gBHm+9+vKtzAdBgNVHREEFjAUgRJw
cm92aWRlZEBlbWFpbC5jb20wDQYJKoZIhvcNAQEFBQADggIBAAz/rz0nC5kz4PEp
s4o3MZqJGPUFM8bQnYrgdBEUd3IUsZZLowYNEWfNJ0Eh/b1+tQM0+vQp/Tbtkh/o
CcNTa7IpngYX40otj07yX4Vgx3x8y4F7rALatkqqZ+sb0DODJJt0O0CosTNUrP8H
Iqtmj+/NZ2gKSV4ex9L/TT2VU3eeETxO2XGrMh6drQuYu1X4zpTBFrW7P0fkjTKh
gBn38ry48KNYvHXVVI8aITahI89bPqSG6Jastqmz9BlOTAF4hRwCfiCjQsoOf4/D
/3qhFHeXs9jnZSwIFzUU6P4Q6bjEP7xwZeZQS2hvQUNbN6CdSNdSjLs4JzzABdAz
nPBYcHoAXBP1n3a2Djmo/8vaKx5w1KZ7EG5mZSUnxKb1Y0MQtXiZPlN0n5/4bmqB
w3FX7/bH9eyktz4yf4gMgc3RZAWvii8snrce6GtNryMPc6ZcWej4y67ijQPuw8CY
nmNTB0kKwOz7RtLJas5TSWCsy2xRbXe1QG+XK51e9sfmFdeB9f2eznCfN/bXZ9yk
QISbf7EuLcTQLiq4khwLWvC8xA7fjHAR6rJKbS5b21dZs4caNhrHyr+Rv155O0j3
V8iapHWYnv829tPJrrCVN0CztX7EGKMZrUBsXtUaBsihVb/tlOCMX9AGI5yjXu8c
xLa7iM5nh2H9vNLah+BMxXEglAnI
-----END CERTIFICATE-----
