Certificate:
    Data:
        Version: 3 (0x2)
        Serial Number: 31 (0x1f)
    Signature Algorithm: sha1WithRSAEncryption
        Issuer: C=RS, ST=Serbia, L=Belgrade, O=CodeRed, OU=Security, CN=Client CA
        Validity
            Not Before: Mar 31 15:22:46 2018 GMT
            Not After : Mar 31 15:22:46 2019 GMT
        Subject: O=Code Red, OU=Security, CN=username
        Subject Public Key Info:
            Public Key Algorithm: rsaEncryption
                Public-Key: (4096 bit)
                Modulus:
                    00:d2:95:36:54:87:96:df:4f:ae:a6:ce:6c:ad:a3:
                    f2:21:e9:75:2e:3b:32:36:67:a0:50:6f:3c:47:03:
                    4a:b8:47:6a:55:06:81:bc:2c:22:23:96:87:df:5f:
                    29:40:84:2b:43:c0:f2:4f:b8:e9:98:9c:c2:5c:bf:
                    e1:48:9c:3b:f4:0f:a6:18:6b:31:ef:6d:92:8f:ea:
                    dc:cb:c9:52:3f:40:88:9c:c6:62:75:3d:32:9b:b5:
                    30:f0:7a:c3:21:81:cc:5a:47:0b:fc:f8:6d:58:a7:
                    7e:63:6a:ef:df:3f:2b:db:53:7b:84:4e:6f:41:8a:
                    33:b6:9a:5d:20:ad:f4:da:80:f0:9a:a0:fb:90:11:
                    52:69:ec:4c:a3:8b:a3:82:17:66:72:85:41:da:95:
                    56:99:4e:3b:1a:d4:e2:15:b7:ac:bf:6b:d9:dd:9c:
                    c4:1c:71:f1:06:6d:51:12:23:4d:50:61:3e:81:18:
                    69:fb:8b:3e:5b:d2:63:a6:e3:71:c5:7f:3d:30:d1:
                    65:10:e5:79:b8:18:a6:10:ab:6f:e0:b5:d3:b9:a7:
                    a0:df:01:e8:d4:84:76:b8:77:a9:91:91:0c:a7:2b:
                    d8:39:5b:c6:1a:75:5b:63:81:e5:5a:ab:f6:96:85:
                    2a:d3:d4:c2:a1:10:a1:46:7c:0c:06:83:d7:3c:21:
                    ca:fc:95:56:1c:cd:80:a2:d3:7d:6f:f3:f6:b1:69:
                    71:88:e3:12:de:5d:5b:e5:ce:fe:0b:a5:02:b8:df:
                    2c:82:e1:92:f6:c5:8d:b4:0d:5a:fd:0f:45:e8:ee:
                    18:79:f2:5a:02:9d:97:be:83:77:ab:0b:4c:14:b7:
                    20:a9:80:f5:7e:ae:44:43:6f:73:af:66:63:a9:8f:
                    d6:4d:d9:82:1f:81:2c:04:8d:c6:00:a6:cb:6e:c1:
                    39:c4:7b:ea:88:58:c6:45:d6:e7:0b:8a:f3:bb:2b:
                    5b:6b:a6:e9:a0:3f:20:d8:bf:94:a0:0b:05:08:b9:
                    85:90:a6:6a:dc:aa:80:63:95:09:eb:bd:c7:18:64:
                    83:05:61:99:1c:77:70:99:82:9f:f7:c6:5b:9b:26:
                    63:42:b6:bf:96:be:86:74:46:83:b2:15:91:e6:70:
                    ff:6a:43:b1:0d:a2:c5:ed:ad:d1:f6:d1:47:c0:a3:
                    29:1e:03:b2:83:cb:76:6d:d4:a8:a1:75:5f:fb:80:
                    7a:df:2e:f8:73:f7:e5:60:be:a2:3f:ba:bc:30:e5:
                    69:2f:ca:13:83:35:ea:b8:ff:34:47:c5:87:01:00:
                    40:95:1e:dc:e8:00:a1:4a:d3:7d:b9:2d:c3:57:a9:
                    1d:5d:bb:04:1b:94:b7:43:81:0c:e7:2b:c4:c6:6f:
                    5a:2d:c5
                Exponent: 65537 (0x10001)
        X509v3 extensions:
            X509v3 Key Usage: critical
                Digital Signature, Key Encipherment
            X509v3 Basic Constraints: 
                CA:FALSE
            X509v3 Extended Key Usage: 
                TLS Web Client Authentication
            X509v3 Subject Key Identifier: 
                36:4E:A3:A8:8E:D4:B0:CF:F7:FB:27:B8:64:90:C7:06:93:A3:E8:2B
            X509v3 Authority Key Identifier: 
                keyid:40:4E:DB:7F:82:7A:7D:C2:97:CA:E6:8E:20:04:79:BE:F7:EB:CA:B7

            X509v3 Subject Alternative Name: 
                email:provided@email.com
    Signature Algorithm: sha1WithRSAEncryption
         24:a2:6c:e1:19:26:d2:84:18:33:2f:d6:9c:5b:05:33:99:a6:
         32:79:7f:b8:1c:8a:11:54:c4:1a:dd:16:54:88:b5:94:ee:c7:
         c7:66:b3:e0:fb:5d:a6:5a:74:99:7d:a9:35:fe:a4:fd:d7:f6:
         84:a7:66:20:e7:27:e1:88:52:4c:49:0e:d9:14:2b:73:64:c7:
         e5:f7:72:d0:b4:7b:30:9d:46:48:53:0e:c0:0d:c4:0a:7a:24:
         a7:3c:60:bc:cc:91:cd:9a:d0:9f:c5:7c:31:3a:2a:3f:84:71:
         75:37:9c:ff:d9:09:60:25:1f:d8:ba:7e:89:b9:e5:0e:d6:98:
         6c:90:ba:a9:7a:72:97:b9:c6:f7:bc:c3:67:8b:27:7e:a3:7d:
         5d:9b:14:af:f7:61:bb:7b:3b:5e:0e:d1:64:93:5a:84:8c:3e:
         76:fe:81:d5:aa:62:c8:1f:4b:1e:09:31:e2:6c:99:99:08:38:
         e6:6a:f0:44:6a:17:18:35:3d:cf:9d:a4:09:87:a1:7b:fb:4e:
         a7:8b:3f:ec:a9:22:ee:23:68:68:29:14:98:20:cb:fd:22:38:
         ba:3b:6b:e4:f0:b0:48:c0:a2:64:62:08:a7:9c:16:4f:27:1e:
         75:fc:89:e5:f2:bc:98:4c:16:20:f3:72:af:56:88:18:55:ab:
         86:0d:40:42:b0:a9:00:b2:33:d1:ae:fb:a1:79:ca:60:c9:60:
         8a:dd:01:f5:6c:e6:92:38:16:68:23:2b:a1:52:67:a1:f6:df:
         f9:fb:7c:fb:cd:b6:94:d3:4c:ad:aa:7d:ea:7f:1c:83:21:e0:
         09:d0:58:ef:0c:73:3d:35:50:b4:3f:00:5b:3b:61:f6:4b:3a:
         b1:05:7d:75:ae:a0:52:c6:6d:50:a7:17:cd:55:e1:c9:f6:52:
         6a:27:b8:46:a3:fa:c5:b2:36:79:d1:02:db:4d:6d:cb:13:8b:
         45:99:15:bf:07:48:b7:f0:07:a2:6a:e2:14:fd:3a:ec:d9:1e:
         1b:50:e5:05:71:6c:ea:22:b6:8c:2d:bb:f6:03:b9:64:6b:4f:
         9d:04:72:af:d9:dc:c5:fb:06:60:b3:95:ed:50:3e:74:9c:f9:
         92:26:13:8a:7c:6d:3a:f6:c1:20:28:c9:82:ed:96:b7:8b:7c:
         e5:bc:35:76:47:28:be:99:f8:13:2a:1f:bb:da:dd:8e:23:a3:
         16:1d:6a:64:10:8a:71:51:96:e8:80:ac:bc:05:85:5a:91:48:
         d7:18:19:ed:1a:70:5b:ca:ee:dc:15:62:17:5d:6f:20:2c:0f:
         59:c0:56:1e:ea:5e:29:eb:e7:bb:24:21:06:6d:c3:74:91:68:
         0c:b4:90:49:20:d1:7d:6c
-----BEGIN CERTIFICATE-----
MIIFsTCCA5mgAwIBAgIBHzANBgkqhkiG9w0BAQUFADBqMQswCQYDVQQGEwJSUzEP
MA0GA1UECAwGU2VyYmlhMREwDwYDVQQHDAhCZWxncmFkZTEQMA4GA1UECgwHQ29k
ZVJlZDERMA8GA1UECwwIU2VjdXJpdHkxEjAQBgNVBAMMCUNsaWVudCBDQTAeFw0x
ODAzMzExNTIyNDZaFw0xOTAzMzExNTIyNDZaMDkxETAPBgNVBAoMCENvZGUgUmVk
MREwDwYDVQQLDAhTZWN1cml0eTERMA8GA1UEAwwIdXNlcm5hbWUwggIiMA0GCSqG
SIb3DQEBAQUAA4ICDwAwggIKAoICAQDSlTZUh5bfT66mzmyto/Ih6XUuOzI2Z6BQ
bzxHA0q4R2pVBoG8LCIjloffXylAhCtDwPJPuOmYnMJcv+FInDv0D6YYazHvbZKP
6tzLyVI/QIicxmJ1PTKbtTDwesMhgcxaRwv8+G1Yp35jau/fPyvbU3uETm9BijO2
ml0grfTagPCaoPuQEVJp7Eyji6OCF2ZyhUHalVaZTjsa1OIVt6y/a9ndnMQccfEG
bVESI01QYT6BGGn7iz5b0mOm43HFfz0w0WUQ5Xm4GKYQq2/gtdO5p6DfAejUhHa4
d6mRkQynK9g5W8YadVtjgeVaq/aWhSrT1MKhEKFGfAwGg9c8Icr8lVYczYCi031v
8/axaXGI4xLeXVvlzv4LpQK43yyC4ZL2xY20DVr9D0Xo7hh58loCnZe+g3erC0wU
tyCpgPV+rkRDb3OvZmOpj9ZN2YIfgSwEjcYApstuwTnEe+qIWMZF1ucLivO7K1tr
pumgPyDYv5SgCwUIuYWQpmrcqoBjlQnrvccYZIMFYZkcd3CZgp/3xlubJmNCtr+W
voZ0RoOyFZHmcP9qQ7ENosXtrdH20UfAoykeA7KDy3Zt1KihdV/7gHrfLvhz9+Vg
vqI/urww5WkvyhODNeq4/zRHxYcBAECVHtzoAKFK0325LcNXqR1duwQblLdDgQzn
K8TGb1otxQIDAQABo4GSMIGPMA4GA1UdDwEB/wQEAwIFoDAJBgNVHRMEAjAAMBMG
A1UdJQQMMAoGCCsGAQUFBwMCMB0GA1UdDgQWBBQ2TqOojtSwz/f7J7hkkMcGk6Po
KzAfBgNVHSMEGDAWgBRATtt/gnp9wpfK5o4gBHm+9+vKtzAdBgNVHREEFjAUgRJw
cm92aWRlZEBlbWFpbC5jb20wDQYJKoZIhvcNAQEFBQADggIBACSibOEZJtKEGDMv
1pxbBTOZpjJ5f7gcihFUxBrdFlSItZTux8dms+D7XaZadJl9qTX+pP3X9oSnZiDn
J+GIUkxJDtkUK3Nkx+X3ctC0ezCdRkhTDsANxAp6JKc8YLzMkc2a0J/FfDE6Kj+E
cXU3nP/ZCWAlH9i6fom55Q7WmGyQuql6cpe5xve8w2eLJ36jfV2bFK/3Ybt7O14O
0WSTWoSMPnb+gdWqYsgfSx4JMeJsmZkIOOZq8ERqFxg1Pc+dpAmHoXv7TqeLP+yp
Iu4jaGgpFJggy/0iOLo7a+TwsEjAomRiCKecFk8nHnX8ieXyvJhMFiDzcq9WiBhV
q4YNQEKwqQCyM9Gu+6F5ymDJYIrdAfVs5pI4FmgjK6FSZ6H23/n7fPvNtpTTTK2q
fep/HIMh4AnQWO8Mcz01ULQ/AFs7YfZLOrEFfXWuoFLGbVCnF81V4cn2UmonuEaj
+sWyNnnRAttNbcsTi0WZFb8HSLfwB6Jq4hT9OuzZHhtQ5QVxbOoitowtu/YDuWRr
T50Ecq/Z3MX7BmCzle1QPnSc+ZImE4p8bTr2wSAoyYLtlreLfOW8NXZHKL6Z+BMq
H7va3Y4joxYdamQQinFRluiArLwFhVqRSNcYGe0acFvK7twVYhddbyAsD1nAVh7q
Xinr57skIQZtw3SRaAy0kEkg0X1s
-----END CERTIFICATE-----
