Certificate:
    Data:
        Version: 3 (0x2)
        Serial Number: 32 (0x20)
    Signature Algorithm: sha1WithRSAEncryption
        Issuer: C=RS, ST=Serbia, L=Belgrade, O=CodeRed, OU=Security, CN=Client CA
        Validity
            Not Before: Mar 31 15:24:55 2018 GMT
            Not After : Mar 31 15:24:55 2019 GMT
        Subject: O=Code Red, OU=Security, CN=username
        Subject Public Key Info:
            Public Key Algorithm: rsaEncryption
                Public-Key: (4096 bit)
                Modulus:
                    00:b3:c6:82:90:68:fc:1e:7f:3c:9e:24:7c:70:8b:
                    c0:35:08:1d:65:71:9b:46:10:ca:65:d9:b5:f2:7d:
                    10:c3:74:09:7e:5a:41:00:79:65:a6:e6:4b:66:66:
                    94:cb:51:e0:bc:1a:5c:06:29:fe:75:19:6b:33:58:
                    73:18:9d:46:d8:83:8d:bb:34:25:0c:df:f3:12:ce:
                    40:07:3c:1d:46:88:3a:cc:1e:3f:54:fc:ce:c8:65:
                    0e:6b:3c:fd:4a:df:f4:23:96:b9:22:f3:c8:c2:12:
                    1b:42:47:62:0b:85:88:86:38:78:7c:4a:68:f6:ed:
                    66:ce:29:3f:5e:3e:dc:21:2c:8e:33:26:ba:39:25:
                    fd:d7:79:f7:80:ea:54:aa:f3:04:4d:11:2e:f7:b4:
                    7b:2a:57:e0:ec:48:92:e2:ae:30:35:06:83:44:e8:
                    3f:67:77:49:ba:41:76:46:3f:8d:31:59:eb:f4:4f:
                    3b:f0:55:78:ec:85:75:bd:c1:38:ec:36:0c:40:50:
                    10:51:13:49:8d:02:6c:23:1a:c0:d9:ea:d5:ad:1c:
                    10:85:88:61:e0:c6:93:72:07:41:36:cb:4c:56:d2:
                    42:4f:af:d7:7b:2b:aa:60:b0:34:e8:55:6b:e1:39:
                    c3:f7:5a:a4:ed:d0:0d:94:1b:40:58:8d:fd:0d:a1:
                    3e:ab:de:01:27:53:28:13:89:7c:35:50:72:c8:76:
                    79:29:b9:d9:27:5f:ad:20:44:0f:f8:30:97:72:1d:
                    73:50:03:b3:45:3c:11:05:47:dd:8c:5e:e0:43:29:
                    dc:f6:46:e4:20:dd:ea:43:d3:11:69:c4:70:02:7d:
                    45:4c:09:5e:23:00:ff:05:4b:25:9b:82:0e:af:bf:
                    48:2e:84:bd:64:ae:bc:5f:b3:64:a9:77:09:33:0e:
                    93:f0:26:d2:f1:d0:88:31:72:b9:25:8b:6d:74:ce:
                    50:59:d5:40:2c:2b:00:38:47:28:74:fd:da:66:97:
                    87:5b:33:ff:c9:44:8a:2f:e1:c9:a4:58:e8:23:e0:
                    3b:38:45:50:a7:ca:32:7b:2f:89:5f:5d:ca:07:99:
                    63:f5:dd:ed:20:ca:c8:20:de:63:57:da:12:a0:b0:
                    fe:8d:cc:d1:0c:00:c6:7f:50:79:20:f1:12:27:ae:
                    41:25:f2:9d:e8:63:17:cf:0c:88:e1:6a:04:02:59:
                    1f:47:06:b9:a2:80:65:c3:46:8a:fa:17:62:1c:d4:
                    02:b8:a4:fd:51:d9:3d:88:9c:f6:f3:10:ca:aa:b1:
                    6a:60:3d:ee:f2:0e:59:61:9d:79:3d:9e:21:8f:94:
                    7c:a8:86:fe:79:81:e8:25:82:2d:2d:00:39:8b:4c:
                    85:00:93
                Exponent: 65537 (0x10001)
        X509v3 extensions:
            X509v3 Key Usage: critical
                Digital Signature, Key Encipherment
            X509v3 Basic Constraints: 
                CA:FALSE
            X509v3 Extended Key Usage: 
                TLS Web Client Authentication
            X509v3 Subject Key Identifier: 
                EB:A9:26:4C:86:7E:A7:A4:9E:51:3D:11:B6:37:32:E2:7A:C9:E3:82
            X509v3 Authority Key Identifier: 
                keyid:40:4E:DB:7F:82:7A:7D:C2:97:CA:E6:8E:20:04:79:BE:F7:EB:CA:B7

            X509v3 Subject Alternative Name: 
                email:provided@email.com
    Signature Algorithm: sha1WithRSAEncryption
         28:4e:d8:27:e6:60:66:63:b3:fd:4c:88:49:0e:87:18:20:e7:
         f7:1b:57:23:45:5c:e6:81:56:67:57:16:83:9c:4c:c3:96:4a:
         ce:47:66:ad:22:40:10:98:be:21:7b:75:30:c3:0c:cb:f8:c0:
         96:72:8b:13:e2:f5:9e:5d:5a:8a:ec:8c:2a:2d:14:ed:48:5f:
         5c:da:d1:33:ab:ef:27:a4:63:37:06:1b:12:cb:34:d6:df:ed:
         26:8c:b3:0f:a2:ae:a7:92:8f:74:74:e1:bf:18:d1:88:0f:03:
         77:6e:3f:1b:52:ff:c3:46:fb:ea:51:22:96:94:2f:f6:55:78:
         60:75:89:a7:77:7b:1b:76:70:ab:b3:2f:c4:a7:77:54:a5:09:
         c5:06:6f:fa:9e:5a:28:a8:8d:28:57:a4:15:3d:96:54:c6:0d:
         00:59:e9:d7:64:ae:ad:c6:71:ce:97:88:e1:a2:b3:8e:06:c3:
         1a:24:80:62:4f:63:dc:39:c5:63:4d:02:9a:53:f1:79:11:56:
         e9:3d:e0:91:fc:96:8b:85:41:c2:bc:c7:12:3f:69:08:f0:be:
         8c:31:8b:c6:98:b7:8c:76:b0:28:b2:23:62:6a:1e:20:59:86:
         bf:11:e1:37:93:b1:2e:fd:12:1b:53:81:2b:71:1e:40:b1:42:
         27:a2:f5:e3:02:fb:26:31:8e:33:8a:cf:e1:1c:b6:19:16:3e:
         cf:52:8a:1d:77:ab:e4:b4:25:62:b9:54:12:dc:81:e4:a6:7d:
         7a:74:93:e5:6a:1a:65:22:c6:1c:cd:eb:0f:1f:e1:2f:57:59:
         02:ba:fe:b6:1a:66:56:85:69:4e:a6:39:e5:ce:75:df:9a:ce:
         34:45:db:30:24:b8:f7:8e:bc:17:5a:d5:50:36:a6:0e:8e:71:
         a2:bc:0f:76:42:eb:39:06:6a:7f:1e:81:0f:f0:e0:35:e4:cc:
         0a:dd:83:57:14:b6:7c:e6:c5:74:af:5f:fb:02:40:ff:1a:c7:
         4a:55:80:6d:0d:a2:ab:ef:50:9a:93:38:00:5f:bf:cc:6d:1c:
         1c:d0:a0:4d:77:a9:a4:44:5a:21:ed:23:58:a7:ae:0a:fc:80:
         7e:21:24:bd:31:f2:de:72:e6:cd:22:5a:c8:cc:05:4f:07:99:
         8e:72:7e:dd:80:27:1f:75:1f:62:43:cc:a2:4c:0b:d6:da:d6:
         71:64:bc:0c:6a:93:7e:8a:42:05:2d:d3:b0:9a:b8:09:43:93:
         29:25:34:5e:53:d7:2b:e1:0d:c8:7c:ae:9e:31:a7:5a:01:c2:
         57:8e:68:27:07:c0:d0:12:32:06:a7:dc:b8:8b:fc:f7:95:09:
         53:38:34:e0:f9:9e:85:97
-----BEGIN CERTIFICATE-----
MIIFsTCCA5mgAwIBAgIBIDANBgkqhkiG9w0BAQUFADBqMQswCQYDVQQGEwJSUzEP
MA0GA1UECAwGU2VyYmlhMREwDwYDVQQHDAhCZWxncmFkZTEQMA4GA1UECgwHQ29k
ZVJlZDERMA8GA1UECwwIU2VjdXJpdHkxEjAQBgNVBAMMCUNsaWVudCBDQTAeFw0x
ODAzMzExNTI0NTVaFw0xOTAzMzExNTI0NTVaMDkxETAPBgNVBAoMCENvZGUgUmVk
MREwDwYDVQQLDAhTZWN1cml0eTERMA8GA1UEAwwIdXNlcm5hbWUwggIiMA0GCSqG
SIb3DQEBAQUAA4ICDwAwggIKAoICAQCzxoKQaPwefzyeJHxwi8A1CB1lcZtGEMpl
2bXyfRDDdAl+WkEAeWWm5ktmZpTLUeC8GlwGKf51GWszWHMYnUbYg427NCUM3/MS
zkAHPB1GiDrMHj9U/M7IZQ5rPP1K3/Qjlrki88jCEhtCR2ILhYiGOHh8Smj27WbO
KT9ePtwhLI4zJro5Jf3XefeA6lSq8wRNES73tHsqV+DsSJLirjA1BoNE6D9nd0m6
QXZGP40xWev0TzvwVXjshXW9wTjsNgxAUBBRE0mNAmwjGsDZ6tWtHBCFiGHgxpNy
B0E2y0xW0kJPr9d7K6pgsDToVWvhOcP3WqTt0A2UG0BYjf0NoT6r3gEnUygTiXw1
UHLIdnkpudknX60gRA/4MJdyHXNQA7NFPBEFR92MXuBDKdz2RuQg3epD0xFpxHAC
fUVMCV4jAP8FSyWbgg6vv0guhL1krrxfs2SpdwkzDpPwJtLx0Igxcrkli210zlBZ
1UAsKwA4Ryh0/dpml4dbM//JRIov4cmkWOgj4Ds4RVCnyjJ7L4lfXcoHmWP13e0g
ysgg3mNX2hKgsP6NzNEMAMZ/UHkg8RInrkEl8p3oYxfPDIjhagQCWR9HBrmigGXD
Ror6F2Ic1AK4pP1R2T2InPbzEMqqsWpgPe7yDllhnXk9niGPlHyohv55geglgi0t
ADmLTIUAkwIDAQABo4GSMIGPMA4GA1UdDwEB/wQEAwIFoDAJBgNVHRMEAjAAMBMG
A1UdJQQMMAoGCCsGAQUFBwMCMB0GA1UdDgQWBBTrqSZMhn6npJ5RPRG2NzLiesnj
gjAfBgNVHSMEGDAWgBRATtt/gnp9wpfK5o4gBHm+9+vKtzAdBgNVHREEFjAUgRJw
cm92aWRlZEBlbWFpbC5jb20wDQYJKoZIhvcNAQEFBQADggIBAChO2CfmYGZjs/1M
iEkOhxgg5/cbVyNFXOaBVmdXFoOcTMOWSs5HZq0iQBCYviF7dTDDDMv4wJZyixPi
9Z5dWorsjCotFO1IX1za0TOr7yekYzcGGxLLNNbf7SaMsw+irqeSj3R04b8Y0YgP
A3duPxtS/8NG++pRIpaUL/ZVeGB1iad3ext2cKuzL8Snd1SlCcUGb/qeWiiojShX
pBU9llTGDQBZ6ddkrq3Gcc6XiOGis44GwxokgGJPY9w5xWNNAppT8XkRVuk94JH8
louFQcK8xxI/aQjwvowxi8aYt4x2sCiyI2JqHiBZhr8R4TeTsS79EhtTgStxHkCx
Qiei9eMC+yYxjjOKz+EcthkWPs9Sih13q+S0JWK5VBLcgeSmfXp0k+VqGmUixhzN
6w8f4S9XWQK6/rYaZlaFaU6mOeXOdd+azjRF2zAkuPeOvBda1VA2pg6OcaK8D3ZC
6zkGan8egQ/w4DXkzArdg1cUtnzmxXSvX/sCQP8ax0pVgG0NoqvvUJqTOABfv8xt
HBzQoE13qaREWiHtI1inrgr8gH4hJL0x8t5y5s0iWsjMBU8HmY5yft2AJx91H2JD
zKJMC9ba1nFkvAxqk36KQgUt07CauAlDkyklNF5T1yvhDch8rp4xp1oBwleOaCcH
wNASMgan3LiL/PeVCVM4NOD5noWX
-----END CERTIFICATE-----
