Certificate:
    Data:
        Version: 3 (0x2)
        Serial Number: 33 (0x21)
    Signature Algorithm: sha1WithRSAEncryption
        Issuer: C=RS, ST=Serbia, L=Belgrade, O=CodeRed, OU=Security, CN=Client CA
        Validity
            Not Before: Mar 31 15:25:16 2018 GMT
            Not After : Mar 31 15:25:16 2019 GMT
        Subject: O=Code Red, OU=Security, CN=username
        Subject Public Key Info:
            Public Key Algorithm: rsaEncryption
                Public-Key: (4096 bit)
                Modulus:
                    00:b4:3a:a4:33:d2:74:0d:2f:da:e2:cf:94:98:c8:
                    c3:fe:be:81:bf:a4:40:66:49:d8:91:13:d3:59:d4:
                    16:2e:65:2d:d7:61:7c:8f:d6:ca:67:9b:12:f9:14:
                    d1:c2:2d:4d:02:b1:ed:55:13:3d:1e:1d:be:27:06:
                    a1:a7:14:ca:38:10:9b:fd:19:24:f9:ab:bb:e1:ac:
                    2b:9a:d4:62:40:6a:06:c9:08:b7:62:a9:95:0e:6c:
                    db:fa:6c:62:76:2a:30:4f:30:88:43:50:80:90:1c:
                    c2:c1:13:94:0f:c9:5a:5f:e3:43:ad:50:25:3e:b1:
                    db:a2:e8:0c:7a:d2:ea:91:f9:33:15:f3:20:07:a5:
                    77:99:06:73:13:42:1f:6e:48:12:b7:17:e7:10:68:
                    d6:08:ca:9a:73:ee:39:9b:1c:d9:1c:bd:2f:80:6b:
                    01:6b:28:22:88:81:c9:ae:99:c4:4f:98:8c:ec:72:
                    ca:0e:ff:e6:65:17:c6:24:76:84:8e:85:0b:b3:41:
                    e9:f4:0e:01:3d:16:77:b4:e8:a7:55:57:2d:0b:05:
                    1e:68:a2:1d:d6:99:ab:c2:b7:8f:b5:b0:12:21:a9:
                    a8:25:58:91:c5:5d:63:4c:91:68:d8:7f:cb:6a:b9:
                    d5:31:fd:fa:e5:fa:87:eb:8f:cd:b6:76:8e:43:33:
                    72:fc:ab:14:9e:3d:8e:16:86:81:f2:96:c5:73:69:
                    0e:f0:8b:9a:9c:d2:8a:f7:ce:52:38:f5:32:80:22:
                    bd:00:b3:02:68:b1:32:00:61:b0:1d:be:95:6f:8c:
                    cd:4f:fa:ab:ea:e9:19:e3:98:9c:15:f2:5a:14:f0:
                    f6:cf:8f:52:c4:b3:56:a9:11:79:c2:4f:ce:25:8c:
                    6b:14:0e:d4:a0:cc:df:9e:66:e8:42:b1:0d:ab:01:
                    da:35:b1:15:f9:f3:3a:c9:a0:44:ce:bb:b3:6e:1d:
                    f6:95:51:b1:02:5e:39:df:65:e5:db:78:2f:87:e9:
                    51:89:1e:50:a7:ea:47:83:ff:8f:ce:35:98:44:79:
                    80:23:39:4c:51:6c:c1:a9:46:f7:58:da:30:ca:32:
                    c3:14:87:5f:42:e9:cc:68:6c:34:dd:09:eb:f3:ad:
                    7c:bc:d0:d7:cf:31:4d:51:3f:30:1f:ca:63:af:1f:
                    50:82:42:81:01:84:44:ca:10:86:d9:dc:23:e4:fd:
                    aa:7b:05:17:4d:59:71:eb:cb:5a:c3:52:48:c8:a8:
                    92:29:8e:b9:a6:6b:db:88:66:50:93:e6:17:80:a2:
                    6f:2a:8e:7b:0a:62:48:7c:83:6a:fc:62:85:67:bf:
                    01:7f:1c:28:d2:41:0c:87:08:ff:2a:9f:06:28:e0:
                    58:9c:e7
                Exponent: 65537 (0x10001)
        X509v3 extensions:
            X509v3 Key Usage: critical
                Digital Signature, Key Encipherment
            X509v3 Basic Constraints: 
                CA:FALSE
            X509v3 Extended Key Usage: 
                TLS Web Client Authentication
            X509v3 Subject Key Identifier: 
                58:2C:FD:40:90:CA:AB:25:92:67:28:AF:37:D3:A1:F8:35:42:7B:08
            X509v3 Authority Key Identifier: 
                keyid:40:4E:DB:7F:82:7A:7D:C2:97:CA:E6:8E:20:04:79:BE:F7:EB:CA:B7

            X509v3 Subject Alternative Name: 
                email:provided@email.com
    Signature Algorithm: sha1WithRSAEncryption
         75:1d:3d:3a:ad:57:9e:8b:9e:e9:db:b5:59:37:8a:54:bb:64:
         36:41:a2:07:e2:04:5c:ac:de:56:b9:bc:82:e4:55:b4:d8:f0:
         38:ef:5b:d0:1d:99:b7:10:87:0e:c3:00:f2:00:ed:28:e2:1c:
         31:20:ab:37:72:1c:b7:c9:20:0e:ca:5f:d7:f6:0c:8f:ba:0b:
         ee:58:72:2c:a7:0e:f5:78:59:f8:47:a6:35:d3:86:b8:07:73:
         e5:d8:fb:17:bb:75:79:d9:26:f6:15:78:19:44:71:70:a5:5a:
         65:c3:3f:ed:c6:c6:8c:bc:6a:03:63:97:bb:f0:53:ba:4e:9a:
         48:fb:31:4a:e9:df:67:16:66:32:ef:85:97:62:36:fd:56:b0:
         39:62:5f:c5:9f:49:6b:89:8f:30:4f:c6:61:d2:12:b3:ce:3e:
         57:a8:00:1a:0c:66:e8:1b:14:bc:5b:5e:e3:ee:08:59:e6:01:
         0e:76:8b:97:de:6f:b6:8f:55:56:f7:2c:61:9c:2d:98:69:76:
         3a:df:1f:8f:f2:07:5d:d5:f6:67:4f:96:ad:9d:23:6b:c9:29:
         6b:eb:c5:1b:d0:75:3c:04:9b:99:ca:1c:0e:a7:37:38:2d:88:
         e0:a0:a0:97:e9:36:37:0b:ca:74:94:72:0a:b4:58:6e:16:6a:
         4c:41:99:99:8b:31:b9:b9:a5:23:d4:d9:d7:52:58:4d:2a:75:
         b0:4d:4b:b5:51:bf:dc:09:30:3b:a0:fe:6b:44:c9:84:c4:39:
         bb:ab:5a:06:71:36:df:c8:bf:23:a4:6c:95:92:87:05:8f:1a:
         c5:59:25:69:2d:ba:0a:25:3a:6d:39:61:27:a6:5a:83:c3:03:
         0c:94:c8:9b:f2:c5:2e:16:b1:a1:30:6b:fe:30:52:53:48:2b:
         4b:0f:75:c5:3a:16:e1:fc:72:20:5b:ce:13:83:a2:ed:22:db:
         24:80:68:f8:59:8b:3b:52:fe:5f:72:4b:b5:2b:4b:d5:dc:1f:
         f2:24:51:a4:33:84:10:89:f9:60:1f:7e:f3:13:1d:a9:88:ca:
         a9:39:a9:76:cf:ab:18:ed:06:a7:58:93:d5:f6:fb:fc:12:c7:
         f7:c7:42:24:d8:f4:eb:4c:24:a9:c2:91:10:d2:22:bc:5c:0c:
         65:29:5a:05:14:81:db:2f:47:19:95:29:fd:fa:2e:de:dc:e0:
         64:e3:d9:55:a5:13:ac:4d:f1:8d:9d:f5:61:f6:ba:5d:8e:48:
         49:75:78:6a:09:a3:92:21:f3:be:55:ea:df:10:78:41:ec:06:
         c8:e6:d9:6e:62:12:e8:75:b0:f6:67:5d:76:d9:7b:7b:d5:2f:
         9a:23:60:8e:1a:59:ef:be
-----BEGIN CERTIFICATE-----
MIIFsTCCA5mgAwIBAgIBITANBgkqhkiG9w0BAQUFADBqMQswCQYDVQQGEwJSUzEP
MA0GA1UECAwGU2VyYmlhMREwDwYDVQQHDAhCZWxncmFkZTEQMA4GA1UECgwHQ29k
ZVJlZDERMA8GA1UECwwIU2VjdXJpdHkxEjAQBgNVBAMMCUNsaWVudCBDQTAeFw0x
ODAzMzExNTI1MTZaFw0xOTAzMzExNTI1MTZaMDkxETAPBgNVBAoMCENvZGUgUmVk
MREwDwYDVQQLDAhTZWN1cml0eTERMA8GA1UEAwwIdXNlcm5hbWUwggIiMA0GCSqG
SIb3DQEBAQUAA4ICDwAwggIKAoICAQC0OqQz0nQNL9riz5SYyMP+voG/pEBmSdiR
E9NZ1BYuZS3XYXyP1spnmxL5FNHCLU0Cse1VEz0eHb4nBqGnFMo4EJv9GST5q7vh
rCua1GJAagbJCLdiqZUObNv6bGJ2KjBPMIhDUICQHMLBE5QPyVpf40OtUCU+sdui
6Ax60uqR+TMV8yAHpXeZBnMTQh9uSBK3F+cQaNYIyppz7jmbHNkcvS+AawFrKCKI
gcmumcRPmIzscsoO/+ZlF8YkdoSOhQuzQen0DgE9Fne06KdVVy0LBR5ooh3WmavC
t4+1sBIhqaglWJHFXWNMkWjYf8tqudUx/frl+ofrj822do5DM3L8qxSePY4WhoHy
lsVzaQ7wi5qc0or3zlI49TKAIr0AswJosTIAYbAdvpVvjM1P+qvq6RnjmJwV8loU
8PbPj1LEs1apEXnCT84ljGsUDtSgzN+eZuhCsQ2rAdo1sRX58zrJoETOu7NuHfaV
UbECXjnfZeXbeC+H6VGJHlCn6keD/4/ONZhEeYAjOUxRbMGpRvdY2jDKMsMUh19C
6cxobDTdCevzrXy80NfPMU1RPzAfymOvH1CCQoEBhETKEIbZ3CPk/ap7BRdNWXHr
y1rDUkjIqJIpjrmma9uIZlCT5heAom8qjnsKYkh8g2r8YoVnvwF/HCjSQQyHCP8q
nwYo4Fic5wIDAQABo4GSMIGPMA4GA1UdDwEB/wQEAwIFoDAJBgNVHRMEAjAAMBMG
A1UdJQQMMAoGCCsGAQUFBwMCMB0GA1UdDgQWBBRYLP1AkMqrJZJnKK8306H4NUJ7
CDAfBgNVHSMEGDAWgBRATtt/gnp9wpfK5o4gBHm+9+vKtzAdBgNVHREEFjAUgRJw
cm92aWRlZEBlbWFpbC5jb20wDQYJKoZIhvcNAQEFBQADggIBAHUdPTqtV56Lnunb
tVk3ilS7ZDZBogfiBFys3la5vILkVbTY8DjvW9AdmbcQhw7DAPIA7SjiHDEgqzdy
HLfJIA7KX9f2DI+6C+5YciynDvV4WfhHpjXThrgHc+XY+xe7dXnZJvYVeBlEcXCl
WmXDP+3Gxoy8agNjl7vwU7pOmkj7MUrp32cWZjLvhZdiNv1WsDliX8WfSWuJjzBP
xmHSErPOPleoABoMZugbFLxbXuPuCFnmAQ52i5feb7aPVVb3LGGcLZhpdjrfH4/y
B13V9mdPlq2dI2vJKWvrxRvQdTwEm5nKHA6nNzgtiOCgoJfpNjcLynSUcgq0WG4W
akxBmZmLMbm5pSPU2ddSWE0qdbBNS7VRv9wJMDug/mtEyYTEOburWgZxNt/IvyOk
bJWShwWPGsVZJWktugolOm05YSemWoPDAwyUyJvyxS4WsaEwa/4wUlNIK0sPdcU6
FuH8ciBbzhODou0i2ySAaPhZiztS/l9yS7UrS9XcH/IkUaQzhBCJ+WAffvMTHamI
yqk5qXbPqxjtBqdYk9X2+/wSx/fHQiTY9OtMJKnCkRDSIrxcDGUpWgUUgdsvRxmV
Kf36Lt7c4GTj2VWlE6xN8Y2d9WH2ul2OSEl1eGoJo5Ih875V6t8QeEHsBsjm2W5i
Euh1sPZnXXbZe3vVL5ojYI4aWe++
-----END CERTIFICATE-----
