Certificate:
    Data:
        Version: 3 (0x2)
        Serial Number: 34 (0x22)
    Signature Algorithm: sha1WithRSAEncryption
        Issuer: C=RS, ST=Serbia, L=Belgrade, O=CodeRed, OU=Security, CN=Client CA
        Validity
            Not Before: Mar 31 15:25:57 2018 GMT
            Not After : Mar 31 15:25:57 2019 GMT
        Subject: O=Code Red, OU=Security, CN=username
        Subject Public Key Info:
            Public Key Algorithm: rsaEncryption
                Public-Key: (4096 bit)
                Modulus:
                    00:ba:72:38:59:1c:61:34:f2:5a:07:37:c5:c3:24:
                    35:0c:b8:ae:63:0f:80:80:61:ea:6d:dd:2d:0d:16:
                    f6:89:6c:63:84:80:1f:36:a2:46:f5:4d:77:ec:12:
                    09:e3:dc:4f:99:e6:26:75:ae:7b:fe:46:c4:2c:cd:
                    d5:96:58:82:ae:a1:b3:85:02:5c:9d:e1:f2:b4:6b:
                    b8:b2:23:a7:49:56:c1:dd:a8:c6:24:6a:a6:c5:c5:
                    93:65:55:b7:d2:1c:ca:5b:23:8c:f3:52:82:a4:b7:
                    cc:69:db:48:2f:6c:f2:e5:b1:9d:40:44:c8:d8:32:
                    e8:77:0d:ea:cb:94:83:37:96:76:81:6c:a7:14:ac:
                    b2:18:63:b6:91:76:e4:b8:49:26:99:b3:2e:83:e4:
                    7a:97:f7:1f:bf:04:16:31:54:ef:99:bb:13:46:e7:
                    31:10:32:59:6a:26:97:82:3a:20:8a:02:f6:ef:04:
                    49:97:56:26:e6:46:00:90:1e:2c:ea:57:d8:f2:d8:
                    1f:1b:51:e2:8c:8b:4f:42:6f:e2:23:5d:a0:57:32:
                    fe:a9:11:3f:bf:52:86:9a:10:0d:5e:ea:84:e5:ba:
                    48:3e:5d:ae:34:94:c6:83:38:3b:d8:a3:3b:3f:b5:
                    dd:4f:4c:38:4c:15:4d:21:86:88:20:0c:a2:f7:15:
                    43:ab:2d:8d:35:34:a0:f8:24:12:04:c8:a9:fe:15:
                    00:28:74:5c:d3:c3:a5:ce:03:a7:c4:c5:0e:3b:d8:
                    0e:aa:1e:b1:11:6c:e4:c6:94:c4:f0:36:30:0b:f7:
                    46:41:ad:c3:ee:5c:c4:6f:15:4e:75:7f:d0:56:1d:
                    af:28:39:61:bf:0c:64:a8:9c:3c:0d:fa:ed:2f:d0:
                    2b:60:05:eb:ad:03:d9:b3:9e:c8:2a:b3:10:e4:92:
                    f2:49:38:5e:dd:6b:38:d8:9e:1b:00:ec:e1:b1:0e:
                    4d:ba:20:2f:f6:cf:bc:13:3a:69:53:09:04:be:ab:
                    b2:39:f5:d3:c5:07:ec:95:4f:22:aa:0d:17:68:45:
                    da:33:54:de:5f:94:1d:ff:82:de:8e:a8:8e:06:69:
                    52:ed:50:85:cf:55:62:37:9d:00:c5:c7:8d:da:90:
                    97:07:00:8c:0b:ad:2b:cf:cc:12:73:43:fa:4f:5e:
                    b2:fa:89:45:ae:8d:4a:44:fe:85:07:da:91:e2:d2:
                    78:03:a8:b8:4d:36:de:1f:a4:2d:96:c8:49:5c:d8:
                    32:cb:20:c6:d7:cf:e1:39:42:26:65:9f:aa:8e:d4:
                    0f:3d:91:c6:59:53:80:c2:0d:55:3d:92:f9:93:20:
                    6e:31:19:2e:94:62:e0:06:cf:f9:7a:5c:12:a7:9a:
                    4c:75:cb
                Exponent: 65537 (0x10001)
        X509v3 extensions:
            X509v3 Key Usage: critical
                Digital Signature, Key Encipherment
            X509v3 Basic Constraints: 
                CA:FALSE
            X509v3 Extended Key Usage: 
                TLS Web Client Authentication
            X509v3 Subject Key Identifier: 
                E4:D6:8C:28:3D:7C:2A:6A:54:6D:06:44:72:71:61:89:0E:28:23:82
            X509v3 Authority Key Identifier: 
                keyid:40:4E:DB:7F:82:7A:7D:C2:97:CA:E6:8E:20:04:79:BE:F7:EB:CA:B7

            X509v3 Subject Alternative Name: 
                email:provided@email.com
    Signature Algorithm: sha1WithRSAEncryption
         83:3b:33:dd:07:27:38:e2:03:a1:10:44:b6:87:8d:79:ed:7a:
         f9:73:5f:a8:1a:ea:06:5a:6a:47:02:44:02:ce:c3:d6:48:92:
         b1:1f:c5:49:a0:46:de:05:1f:c0:f8:80:e9:be:74:6a:8d:1b:
         1e:d7:43:7d:9d:7c:29:d3:ee:89:9d:10:83:83:ae:b6:a0:58:
         8d:b0:b6:63:ec:09:f2:eb:1f:db:9a:33:78:8a:b3:bc:4c:80:
         fd:f0:d5:df:17:f2:93:50:5d:3a:96:e2:5a:e0:a2:99:93:58:
         2d:6b:e4:0f:a5:a9:5e:a4:86:a5:05:83:3b:21:7a:23:20:03:
         a4:28:92:f9:ab:1d:fb:4a:ca:43:ce:37:5c:ef:a7:30:53:b4:
         f4:e7:89:2c:b9:28:a3:38:72:3e:68:03:76:37:4c:8e:97:a6:
         b5:03:b7:74:48:cc:e7:38:e9:43:84:e9:3d:b1:ec:b1:c9:7a:
         78:9a:c7:ae:cd:70:af:91:24:79:c7:ac:e1:20:85:db:d7:40:
         88:42:03:e2:04:be:a0:25:28:66:e1:ad:cb:2f:05:de:5f:8e:
         11:30:50:c6:ca:14:26:42:6b:53:d5:ff:ea:8a:0d:76:12:c8:
         52:ff:49:22:4e:95:97:49:03:77:db:90:94:53:68:70:b1:82:
         62:7d:45:42:18:12:23:e2:69:14:f7:93:74:52:ee:00:6e:19:
         b7:40:4f:7b:fe:c1:2c:1a:14:59:c6:43:e4:55:76:6c:45:72:
         4b:eb:1c:2c:ad:6e:d3:7b:95:2c:78:75:5d:b8:16:90:95:a8:
         41:01:5c:16:cf:86:e0:1e:0a:68:11:66:85:ec:41:28:76:f7:
         ab:7f:46:ea:ce:5e:1d:ec:18:55:19:34:f5:78:1e:1b:60:70:
         93:40:04:f9:7a:5b:78:be:82:7a:f5:98:4e:bd:f6:15:19:1c:
         6e:1e:fe:3e:81:2a:b9:22:b0:78:cd:09:0d:89:ed:29:d7:f2:
         66:00:db:16:9a:95:ac:67:62:a6:b3:e4:64:63:e9:02:3c:46:
         03:80:4c:0e:9b:ab:8e:cf:9f:f3:a7:37:ce:8c:ff:df:e6:b6:
         14:f0:fa:04:43:50:97:3c:d1:1f:9e:33:21:e5:95:cb:3f:9f:
         88:cd:d1:f0:7c:e1:4b:ea:85:20:e3:29:af:99:04:f1:c9:d4:
         ba:72:a3:56:ed:ff:a7:50:c1:7f:4e:74:25:ec:12:8e:20:66:
         68:42:5d:b9:31:90:dc:9f:37:48:d1:ba:83:a0:4b:69:9f:92:
         2f:29:26:1e:fc:07:08:bb:bd:41:3a:68:f0:8a:d9:26:03:40:
         2e:39:cd:67:52:25:d2:9f
-----BEGIN CERTIFICATE-----
MIIFsTCCA5mgAwIBAgIBIjANBgkqhkiG9w0BAQUFADBqMQswCQYDVQQGEwJSUzEP
MA0GA1UECAwGU2VyYmlhMREwDwYDVQQHDAhCZWxncmFkZTEQMA4GA1UECgwHQ29k
ZVJlZDERMA8GA1UECwwIU2VjdXJpdHkxEjAQBgNVBAMMCUNsaWVudCBDQTAeFw0x
ODAzMzExNTI1NTdaFw0xOTAzMzExNTI1NTdaMDkxETAPBgNVBAoMCENvZGUgUmVk
MREwDwYDVQQLDAhTZWN1cml0eTERMA8GA1UEAwwIdXNlcm5hbWUwggIiMA0GCSqG
SIb3DQEBAQUAA4ICDwAwggIKAoICAQC6cjhZHGE08loHN8XDJDUMuK5jD4CAYept
3S0NFvaJbGOEgB82okb1TXfsEgnj3E+Z5iZ1rnv+RsQszdWWWIKuobOFAlyd4fK0
a7iyI6dJVsHdqMYkaqbFxZNlVbfSHMpbI4zzUoKkt8xp20gvbPLlsZ1ARMjYMuh3
DerLlIM3lnaBbKcUrLIYY7aRduS4SSaZsy6D5HqX9x+/BBYxVO+ZuxNG5zEQMllq
JpeCOiCKAvbvBEmXVibmRgCQHizqV9jy2B8bUeKMi09Cb+IjXaBXMv6pET+/Uoaa
EA1e6oTlukg+Xa40lMaDODvYozs/td1PTDhMFU0hhoggDKL3FUOrLY01NKD4JBIE
yKn+FQAodFzTw6XOA6fExQ472A6qHrERbOTGlMTwNjAL90ZBrcPuXMRvFU51f9BW
Ha8oOWG/DGSonDwN+u0v0CtgBeutA9mznsgqsxDkkvJJOF7dazjYnhsA7OGxDk26
IC/2z7wTOmlTCQS+q7I59dPFB+yVTyKqDRdoRdozVN5flB3/gt6OqI4GaVLtUIXP
VWI3nQDFx43akJcHAIwLrSvPzBJzQ/pPXrL6iUWujUpE/oUH2pHi0ngDqLhNNt4f
pC2WyElc2DLLIMbXz+E5QiZln6qO1A89kcZZU4DCDVU9kvmTIG4xGS6UYuAGz/l6
XBKnmkx1ywIDAQABo4GSMIGPMA4GA1UdDwEB/wQEAwIFoDAJBgNVHRMEAjAAMBMG
A1UdJQQMMAoGCCsGAQUFBwMCMB0GA1UdDgQWBBTk1owoPXwqalRtBkRycWGJDigj
gjAfBgNVHSMEGDAWgBRATtt/gnp9wpfK5o4gBHm+9+vKtzAdBgNVHREEFjAUgRJw
cm92aWRlZEBlbWFpbC5jb20wDQYJKoZIhvcNAQEFBQADggIBAIM7M90HJzjiA6EQ
RLaHjXntevlzX6ga6gZaakcCRALOw9ZIkrEfxUmgRt4FH8D4gOm+dGqNGx7XQ32d
fCnT7omdEIODrragWI2wtmPsCfLrH9uaM3iKs7xMgP3w1d8X8pNQXTqW4lrgopmT
WC1r5A+lqV6khqUFgzsheiMgA6QokvmrHftKykPON1zvpzBTtPTniSy5KKM4cj5o
A3Y3TI6XprUDt3RIzOc46UOE6T2x7LHJeniax67NcK+RJHnHrOEghdvXQIhCA+IE
vqAlKGbhrcsvBd5fjhEwUMbKFCZCa1PV/+qKDXYSyFL/SSJOlZdJA3fbkJRTaHCx
gmJ9RUIYEiPiaRT3k3RS7gBuGbdAT3v+wSwaFFnGQ+RVdmxFckvrHCytbtN7lSx4
dV24FpCVqEEBXBbPhuAeCmgRZoXsQSh296t/RurOXh3sGFUZNPV4HhtgcJNABPl6
W3i+gnr1mE699hUZHG4e/j6BKrkisHjNCQ2J7SnX8mYA2xaalaxnYqaz5GRj6QI8
RgOATA6bq47Pn/OnN86M/9/mthTw+gRDUJc80R+eMyHllcs/n4jN0fB84UvqhSDj
Ka+ZBPHJ1Lpyo1bt/6dQwX9OdCXsEo4gZmhCXbkxkNyfN0jRuoOgS2mfki8pJh78
Bwi7vUE6aPCK2SYDQC45zWdSJdKf
-----END CERTIFICATE-----
