Certificate:
    Data:
        Version: 3 (0x2)
        Serial Number: 35 (0x23)
    Signature Algorithm: sha1WithRSAEncryption
        Issuer: C=RS, ST=Serbia, L=Belgrade, O=CodeRed, OU=Security, CN=Client CA
        Validity
            Not Before: Mar 31 15:27:03 2018 GMT
            Not After : Mar 31 15:27:03 2019 GMT
        Subject: O=Code Red, OU=Security, CN=username
        Subject Public Key Info:
            Public Key Algorithm: rsaEncryption
                Public-Key: (4096 bit)
                Modulus:
                    00:bd:ae:d4:4d:6d:cd:97:5d:2a:7d:d6:aa:45:eb:
                    84:71:f1:45:2a:d5:b2:30:78:ae:92:00:6a:57:e1:
                    cb:65:95:73:53:77:88:38:f2:7a:77:55:76:69:b2:
                    21:8f:6f:61:3d:09:e5:89:28:9e:3b:d2:9f:5a:fe:
                    f1:22:87:6d:08:bb:3c:af:d3:b3:1d:10:76:0e:5a:
                    74:af:68:2c:f2:65:87:1c:b1:c8:52:85:00:87:ba:
                    27:02:d9:d1:49:8e:65:60:e7:84:95:37:9a:90:36:
                    e7:fc:e6:21:67:01:81:e0:ca:aa:36:60:5b:32:16:
                    bf:5b:15:50:e0:c1:d7:ed:ba:ff:c9:31:8c:c4:df:
                    ff:0b:30:6d:fa:55:5f:fc:0e:a0:a3:14:0d:e5:3e:
                    f4:2d:36:98:d4:67:59:c0:a5:6f:3f:e5:99:9e:4b:
                    4e:4c:62:6f:1d:a0:0e:bb:58:a0:43:ee:1c:a5:3a:
                    f2:c1:17:49:53:df:58:a2:75:c4:fb:64:9a:fd:e9:
                    cc:78:b9:bb:32:7a:78:0b:a8:59:9e:49:1c:3a:7f:
                    73:1e:5d:f8:89:ab:3f:e1:fd:9a:87:af:6f:f5:83:
                    d3:da:05:b1:95:0c:1d:c8:41:c0:db:b4:94:ec:63:
                    32:32:c4:3d:4b:9d:16:59:23:ad:81:da:e7:c8:00:
                    49:b7:59:39:20:b5:f9:34:76:82:b1:fe:f6:cf:09:
                    34:70:99:c5:a5:5b:d7:8e:af:97:94:59:a1:6a:70:
                    7f:1f:5f:86:3a:70:87:e3:d3:9f:56:84:ef:d7:c3:
                    f0:8d:68:a8:57:b2:10:eb:4d:0b:ac:2f:a6:eb:56:
                    aa:67:60:ef:25:08:fa:06:b2:f9:61:c1:e6:4a:49:
                    89:c2:ec:1d:57:fd:97:9d:05:16:de:2f:a9:0f:ac:
                    58:3b:07:29:da:84:63:b3:a8:0c:c0:e8:50:51:9c:
                    32:72:6c:c4:ee:7d:59:f6:32:05:99:1e:c3:b1:61:
                    98:10:eb:56:e5:7d:d4:69:63:fc:61:47:d1:b2:7f:
                    bf:6e:25:87:c9:59:dd:ac:ac:af:f1:fc:2e:36:fb:
                    25:67:9c:76:b5:3d:24:d0:86:ac:23:11:db:42:eb:
                    e2:c5:9d:89:fd:c5:ab:d8:0e:7b:42:c9:61:90:1e:
                    a4:28:02:a7:29:49:93:49:fe:25:0b:68:a5:d4:2b:
                    a4:00:ef:1d:ff:75:59:7f:39:6f:3d:3e:61:24:29:
                    0d:7c:6e:dd:6b:d7:2c:07:8f:7f:98:59:b1:cd:cd:
                    69:b5:d0:b0:62:cf:1e:b8:13:d4:43:af:8f:8f:1b:
                    d2:0b:3f:9a:13:a7:ef:1b:cc:de:e8:9a:bf:69:3b:
                    d5:f3:41
                Exponent: 65537 (0x10001)
        X509v3 extensions:
            X509v3 Key Usage: critical
                Digital Signature, Key Encipherment
            X509v3 Basic Constraints: 
                CA:FALSE
            X509v3 Extended Key Usage: 
                TLS Web Client Authentication
            X509v3 Subject Key Identifier: 
                DD:30:0A:02:2B:38:AA:29:60:6A:5A:D3:A2:16:38:03:C6:67:21:3E
            X509v3 Authority Key Identifier: 
                keyid:40:4E:DB:7F:82:7A:7D:C2:97:CA:E6:8E:20:04:79:BE:F7:EB:CA:B7

            X509v3 Subject Alternative Name: 
                email:provided@email.com
    Signature Algorithm: sha1WithRSAEncryption
         4f:a1:f7:d9:40:0f:26:e8:a7:8d:58:f9:5d:cf:56:af:8a:28:
         30:08:2d:ed:b0:d2:b1:aa:22:83:db:e9:8e:da:9f:b6:0c:c4:
         0c:28:57:7d:c5:35:ef:f8:d7:77:21:45:f4:92:8c:8d:17:ef:
         b7:d2:9e:cd:26:8e:e5:7f:8d:9e:37:7c:71:f9:af:56:ad:68:
         fd:0e:bd:d3:67:42:3b:39:01:50:30:09:74:23:3a:eb:9e:50:
         71:75:66:91:61:68:ee:ce:16:c1:ff:bb:71:b1:8b:4c:e9:46:
         b5:6c:5e:30:36:2f:38:38:89:b9:39:a8:53:40:70:c3:3e:15:
         b8:1c:77:d6:6a:a5:a3:aa:52:b0:8c:b0:19:6f:26:53:43:a1:
         db:b6:ca:ac:8d:50:27:04:42:a9:8b:f4:06:54:26:34:84:98:
         47:38:0b:c7:db:0d:5d:8e:ad:a0:b5:26:57:08:06:3a:c6:76:
         de:ce:53:e7:e7:fd:75:13:c5:15:d6:05:55:08:49:65:d4:31:
         13:1e:d2:b4:25:d9:ba:f7:72:d5:c4:db:7f:d8:6c:88:6a:dc:
         ea:95:50:64:53:b8:87:ba:a2:25:b7:7a:76:fc:ac:a7:4a:d4:
         b2:3b:8b:5d:42:9c:30:6a:42:b5:f0:39:65:38:a0:27:65:7a:
         68:55:9a:bf:54:13:d1:f8:3f:85:65:53:42:24:ef:6e:49:11:
         bc:fa:4a:3d:47:8a:b3:fc:42:14:b2:99:c6:0b:93:1e:2a:5c:
         23:ff:c4:17:0f:7e:4a:e2:eb:10:3c:2c:3e:80:93:a4:ed:54:
         0a:36:00:22:b8:db:96:0f:78:ec:18:0e:cf:91:09:3f:96:d5:
         54:78:d9:4a:aa:1e:91:e7:51:d9:8e:8b:a3:ce:c7:72:fe:71:
         40:b2:93:c5:05:ee:5d:c4:0e:00:4c:49:d5:7c:82:fb:a7:d8:
         75:46:8c:8a:bd:38:c8:89:a0:41:8c:02:cc:42:1f:b4:33:1f:
         e9:27:81:f0:e8:97:a7:eb:f9:80:10:e3:84:30:5c:00:bc:52:
         56:de:19:0b:67:e8:b7:f4:05:17:cd:e5:f3:d0:ad:2a:90:87:
         6b:8d:d6:3b:ab:f2:f6:75:e3:ee:44:70:fa:04:b9:99:0f:53:
         e0:e3:7b:96:6e:c3:8b:f5:fc:8a:d7:9c:64:ab:71:94:4b:3a:
         63:62:e4:48:98:ac:a1:3d:ad:d4:68:56:25:79:b6:8a:25:66:
         55:84:0f:bf:46:18:47:1a:d5:3d:d2:14:74:16:9a:42:90:e8:
         f3:e5:b1:cc:7e:43:63:03:02:03:66:e4:a7:69:69:81:46:74:
         37:08:08:c6:c5:4c:39:55
-----BEGIN CERTIFICATE-----
MIIFsTCCA5mgAwIBAgIBIzANBgkqhkiG9w0BAQUFADBqMQswCQYDVQQGEwJSUzEP
MA0GA1UECAwGU2VyYmlhMREwDwYDVQQHDAhCZWxncmFkZTEQMA4GA1UECgwHQ29k
ZVJlZDERMA8GA1UECwwIU2VjdXJpdHkxEjAQBgNVBAMMCUNsaWVudCBDQTAeFw0x
ODAzMzExNTI3MDNaFw0xOTAzMzExNTI3MDNaMDkxETAPBgNVBAoMCENvZGUgUmVk
MREwDwYDVQQLDAhTZWN1cml0eTERMA8GA1UEAwwIdXNlcm5hbWUwggIiMA0GCSqG
SIb3DQEBAQUAA4ICDwAwggIKAoICAQC9rtRNbc2XXSp91qpF64Rx8UUq1bIweK6S
AGpX4ctllXNTd4g48np3VXZpsiGPb2E9CeWJKJ470p9a/vEih20Iuzyv07MdEHYO
WnSvaCzyZYccschShQCHuicC2dFJjmVg54SVN5qQNuf85iFnAYHgyqo2YFsyFr9b
FVDgwdftuv/JMYzE3/8LMG36VV/8DqCjFA3lPvQtNpjUZ1nApW8/5ZmeS05MYm8d
oA67WKBD7hylOvLBF0lT31iidcT7ZJr96cx4ubsyengLqFmeSRw6f3MeXfiJqz/h
/ZqHr2/1g9PaBbGVDB3IQcDbtJTsYzIyxD1LnRZZI62B2ufIAEm3WTkgtfk0doKx
/vbPCTRwmcWlW9eOr5eUWaFqcH8fX4Y6cIfj059WhO/Xw/CNaKhXshDrTQusL6br
VqpnYO8lCPoGsvlhweZKSYnC7B1X/ZedBRbeL6kPrFg7BynahGOzqAzA6FBRnDJy
bMTufVn2MgWZHsOxYZgQ61blfdRpY/xhR9Gyf79uJYfJWd2srK/x/C42+yVnnHa1
PSTQhqwjEdtC6+LFnYn9xavYDntCyWGQHqQoAqcpSZNJ/iULaKXUK6QA7x3/dVl/
OW89PmEkKQ18bt1r1ywHj3+YWbHNzWm10LBizx64E9RDr4+PG9ILP5oTp+8bzN7o
mr9pO9XzQQIDAQABo4GSMIGPMA4GA1UdDwEB/wQEAwIFoDAJBgNVHRMEAjAAMBMG
A1UdJQQMMAoGCCsGAQUFBwMCMB0GA1UdDgQWBBTdMAoCKziqKWBqWtOiFjgDxmch
PjAfBgNVHSMEGDAWgBRATtt/gnp9wpfK5o4gBHm+9+vKtzAdBgNVHREEFjAUgRJw
cm92aWRlZEBlbWFpbC5jb20wDQYJKoZIhvcNAQEFBQADggIBAE+h99lADybop41Y
+V3PVq+KKDAILe2w0rGqIoPb6Y7an7YMxAwoV33FNe/413chRfSSjI0X77fSns0m
juV/jZ43fHH5r1ataP0OvdNnQjs5AVAwCXQjOuueUHF1ZpFhaO7OFsH/u3Gxi0zp
RrVsXjA2Lzg4ibk5qFNAcMM+Fbgcd9ZqpaOqUrCMsBlvJlNDodu2yqyNUCcEQqmL
9AZUJjSEmEc4C8fbDV2OraC1JlcIBjrGdt7OU+fn/XUTxRXWBVUISWXUMRMe0rQl
2br3ctXE23/YbIhq3OqVUGRTuIe6oiW3enb8rKdK1LI7i11CnDBqQrXwOWU4oCdl
emhVmr9UE9H4P4VlU0Ik725JEbz6Sj1HirP8QhSymcYLkx4qXCP/xBcPfkri6xA8
LD6Ak6TtVAo2ACK425YPeOwYDs+RCT+W1VR42UqqHpHnUdmOi6POx3L+cUCyk8UF
7l3EDgBMSdV8gvun2HVGjIq9OMiJoEGMAsxCH7QzH+kngfDol6fr+YAQ44QwXAC8
UlbeGQtn6Lf0BRfN5fPQrSqQh2uN1jur8vZ14+5EcPoEuZkPU+Dje5Zuw4v1/IrX
nGSrcZRLOmNi5EiYrKE9rdRoViV5toolZlWED79GGEca1T3SFHQWmkKQ6PPlscx+
Q2MDAgNm5KdpaYFGdDcICMbFTDlV
-----END CERTIFICATE-----
