Certificate:
    Data:
        Version: 3 (0x2)
        Serial Number: 36 (0x24)
    Signature Algorithm: sha1WithRSAEncryption
        Issuer: C=RS, ST=Serbia, L=Belgrade, O=CodeRed, OU=Security, CN=Client CA
        Validity
            Not Before: Mar 31 15:27:29 2018 GMT
            Not After : Mar 31 15:27:29 2019 GMT
        Subject: O=Code Red, OU=Security, CN=username
        Subject Public Key Info:
            Public Key Algorithm: rsaEncryption
                Public-Key: (4096 bit)
                Modulus:
                    00:b4:62:b6:b6:dd:36:75:8c:1a:41:f0:f2:77:b1:
                    c9:d4:e5:55:69:ac:af:6a:13:8f:a7:92:69:7f:b6:
                    ee:23:77:ef:4b:24:ff:37:c4:61:d7:e8:73:17:5c:
                    f5:98:3e:a8:c2:2a:0c:08:e3:b4:49:a3:68:56:7a:
                    ff:6f:08:e4:6c:05:34:0c:4b:35:29:49:31:90:0f:
                    c5:75:3a:2b:38:36:59:ea:c1:5b:fd:bf:17:fe:82:
                    26:f3:26:1e:e0:ba:47:2c:aa:12:20:5e:8f:8c:7f:
                    f2:41:bb:6f:e7:8a:8a:ff:f7:1c:3f:82:5b:f5:a5:
                    bb:bf:50:e5:53:b1:e9:71:e9:5e:e2:8c:37:a1:36:
                    cd:ca:a4:e7:ff:45:95:65:71:8d:82:d4:7a:51:15:
                    8e:a4:70:d1:9b:6f:89:d7:ef:3b:93:01:1b:ff:3c:
                    5c:cc:a3:9e:23:8d:09:0d:d3:85:88:d2:97:3c:78:
                    05:78:a7:40:4f:29:6f:84:05:b6:a1:93:74:ed:b8:
                    32:06:f9:6c:09:35:68:44:e3:cb:42:18:b5:54:d2:
                    10:bf:b6:75:54:91:54:26:6f:fe:da:f0:16:ce:10:
                    ba:89:bd:e9:fc:3b:24:3e:4e:f9:95:f5:31:d8:9f:
                    a6:43:15:ee:7a:4a:14:3a:82:b2:8e:33:a3:32:9e:
                    2c:96:82:d3:f1:0e:4a:28:1b:43:1b:1c:00:02:78:
                    dd:0a:0d:92:70:a0:d0:83:14:c5:e8:6a:e1:a4:15:
                    4a:05:a3:e1:37:2f:0e:4e:dd:8e:66:66:e1:42:ff:
                    94:9b:d1:a3:50:87:b4:b5:6b:23:96:bb:e9:06:54:
                    9a:7f:5c:f6:74:0e:fa:9d:5b:3e:8d:1d:cc:76:03:
                    8d:d4:28:16:96:9a:22:4b:88:bb:35:10:51:2d:bb:
                    dc:de:81:30:8d:5e:90:32:29:a4:be:59:36:39:d1:
                    aa:fc:36:38:25:be:ea:55:dd:0d:41:5b:ca:b3:2e:
                    5b:a3:de:c6:c7:a3:0b:a9:f9:3d:22:8e:00:1b:e4:
                    47:1b:f0:bb:43:91:a4:14:33:cc:5e:e9:78:c0:84:
                    40:5f:60:5c:44:16:ac:6b:4e:94:6f:a3:58:c6:12:
                    e9:81:d2:ac:97:54:8d:77:c3:c4:e0:0f:bf:99:98:
                    0d:04:bb:c5:95:28:59:ab:8d:a0:9b:54:7a:c4:8e:
                    13:ca:28:ef:84:76:91:bd:90:8d:f4:da:84:8f:9e:
                    86:6b:bf:b4:7c:9a:06:b2:67:e6:93:1a:a1:56:9c:
                    50:fa:7b:03:b7:17:82:bc:21:ed:4f:cc:ef:32:ff:
                    bf:43:f0:a3:97:ef:98:cf:aa:2b:f1:26:cc:fd:db:
                    55:32:eb
                Exponent: 65537 (0x10001)
        X509v3 extensions:
            X509v3 Key Usage: critical
                Digital Signature, Key Encipherment
            X509v3 Basic Constraints: 
                CA:FALSE
            X509v3 Extended Key Usage: 
                TLS Web Client Authentication
            X509v3 Subject Key Identifier: 
                FB:B6:E4:1A:3E:63:78:D9:4D:E3:F2:88:8E:50:7A:D1:76:C6:D9:B0
            X509v3 Authority Key Identifier: 
                keyid:40:4E:DB:7F:82:7A:7D:C2:97:CA:E6:8E:20:04:79:BE:F7:EB:CA:B7

            X509v3 Subject Alternative Name: 
                email:provided@email.com
    Signature Algorithm: sha1WithRSAEncryption
         97:22:e2:52:58:62:d4:ae:59:c0:27:05:2c:d1:cf:2f:b5:49:
         40:de:c5:22:91:f0:2b:70:83:9c:95:88:df:e1:19:07:59:ec:
         cc:f0:57:13:02:95:03:d2:20:a1:e7:5b:90:dc:17:ad:1b:c9:
         2b:f9:af:a9:cb:37:c3:0e:3a:56:9a:8e:44:72:85:19:b8:6e:
         aa:d1:bc:c0:54:ab:8e:79:4e:8a:b2:bd:39:2a:e0:69:76:01:
         05:a2:bb:15:4d:a4:b4:f3:d3:87:c9:17:45:00:85:c6:74:a3:
         5c:92:48:5a:cf:15:cb:bb:cf:11:7c:24:77:80:b8:4f:a7:0a:
         8c:15:59:86:6b:1e:5e:c6:4a:a7:d6:07:03:82:d3:1d:0e:ff:
         42:d2:28:e9:67:96:a5:44:7f:9c:3b:01:2c:9e:2c:e2:ee:72:
         e6:b4:f5:99:99:ff:fd:9b:86:4c:c6:d6:b8:f3:97:58:4f:5d:
         b3:a4:b2:a1:47:72:d7:04:08:26:4d:3e:eb:c7:d9:7f:c5:57:
         74:b2:45:42:39:17:cf:00:ef:f7:f4:0f:60:d4:81:19:51:00:
         b7:54:ec:96:22:bc:af:ff:85:68:bb:55:48:09:aa:39:32:f3:
         86:31:2e:70:34:94:04:9e:12:3b:de:25:ac:fe:59:b1:41:cd:
         7d:2c:d8:ec:59:1d:fd:41:e4:54:df:ce:89:3f:fb:f5:13:d1:
         fb:af:80:e6:c7:ed:da:18:fb:fd:8c:8f:74:ac:5d:76:85:6e:
         12:99:c7:f9:b4:c4:7a:60:fc:88:fd:c8:5c:f3:a4:93:30:4e:
         9d:31:85:eb:9d:ca:d6:6d:13:07:f2:3f:1a:93:41:3c:94:57:
         4a:26:db:4e:66:9c:b5:52:7c:b3:77:f6:fe:c1:5a:55:86:85:
         fd:e1:88:95:96:e6:3c:26:1a:df:38:af:b2:0d:de:14:6d:8d:
         89:de:0f:b1:46:47:df:f2:ec:8a:d2:16:b2:40:33:0c:c0:cd:
         5b:27:75:98:9f:ef:11:4d:d5:5d:5c:1a:71:46:ad:cc:0a:c9:
         22:83:9e:f6:db:03:9c:89:e6:0d:7e:78:ea:e1:4e:ef:83:28:
         3a:49:3f:89:42:b8:32:f5:47:54:7a:dc:ba:a1:62:38:c3:68:
         f2:cb:89:f4:e1:5b:92:cc:0a:b5:77:bb:c5:04:82:b8:5a:83:
         4d:fb:89:82:f8:fb:31:dd:bf:fd:63:83:b9:e4:79:6c:78:17:
         e3:ca:25:fd:b7:3e:73:05:4b:5d:95:89:10:e0:fe:21:07:6a:
         d4:01:d5:6f:11:05:60:61:06:2b:99:48:af:c3:9d:3b:4d:04:
         d6:d3:39:d3:3c:18:5e:61
-----BEGIN CERTIFICATE-----
MIIFsTCCA5mgAwIBAgIBJDANBgkqhkiG9w0BAQUFADBqMQswCQYDVQQGEwJSUzEP
MA0GA1UECAwGU2VyYmlhMREwDwYDVQQHDAhCZWxncmFkZTEQMA4GA1UECgwHQ29k
ZVJlZDERMA8GA1UECwwIU2VjdXJpdHkxEjAQBgNVBAMMCUNsaWVudCBDQTAeFw0x
ODAzMzExNTI3MjlaFw0xOTAzMzExNTI3MjlaMDkxETAPBgNVBAoMCENvZGUgUmVk
MREwDwYDVQQLDAhTZWN1cml0eTERMA8GA1UEAwwIdXNlcm5hbWUwggIiMA0GCSqG
SIb3DQEBAQUAA4ICDwAwggIKAoICAQC0Yra23TZ1jBpB8PJ3scnU5VVprK9qE4+n
kml/tu4jd+9LJP83xGHX6HMXXPWYPqjCKgwI47RJo2hWev9vCORsBTQMSzUpSTGQ
D8V1Ois4NlnqwVv9vxf+gibzJh7gukcsqhIgXo+Mf/JBu2/nior/9xw/glv1pbu/
UOVTselx6V7ijDehNs3KpOf/RZVlcY2C1HpRFY6kcNGbb4nX7zuTARv/PFzMo54j
jQkN04WI0pc8eAV4p0BPKW+EBbahk3TtuDIG+WwJNWhE48tCGLVU0hC/tnVUkVQm
b/7a8BbOELqJven8OyQ+TvmV9THYn6ZDFe56ShQ6grKOM6MyniyWgtPxDkooG0Mb
HAACeN0KDZJwoNCDFMXoauGkFUoFo+E3Lw5O3Y5mZuFC/5Sb0aNQh7S1ayOWu+kG
VJp/XPZ0DvqdWz6NHcx2A43UKBaWmiJLiLs1EFEtu9zegTCNXpAyKaS+WTY50ar8
NjglvupV3Q1BW8qzLluj3sbHowup+T0ijgAb5Ecb8LtDkaQUM8xe6XjAhEBfYFxE
FqxrTpRvo1jGEumB0qyXVI13w8TgD7+ZmA0Eu8WVKFmrjaCbVHrEjhPKKO+EdpG9
kI302oSPnoZrv7R8mgayZ+aTGqFWnFD6ewO3F4K8Ie1PzO8y/79D8KOX75jPqivx
Jsz921Uy6wIDAQABo4GSMIGPMA4GA1UdDwEB/wQEAwIFoDAJBgNVHRMEAjAAMBMG
A1UdJQQMMAoGCCsGAQUFBwMCMB0GA1UdDgQWBBT7tuQaPmN42U3j8oiOUHrRdsbZ
sDAfBgNVHSMEGDAWgBRATtt/gnp9wpfK5o4gBHm+9+vKtzAdBgNVHREEFjAUgRJw
cm92aWRlZEBlbWFpbC5jb20wDQYJKoZIhvcNAQEFBQADggIBAJci4lJYYtSuWcAn
BSzRzy+1SUDexSKR8Ctwg5yViN/hGQdZ7MzwVxMClQPSIKHnW5DcF60bySv5r6nL
N8MOOlaajkRyhRm4bqrRvMBUq455ToqyvTkq4Gl2AQWiuxVNpLTz04fJF0UAhcZ0
o1ySSFrPFcu7zxF8JHeAuE+nCowVWYZrHl7GSqfWBwOC0x0O/0LSKOlnlqVEf5w7
ASyeLOLucua09ZmZ//2bhkzG1rjzl1hPXbOksqFHctcECCZNPuvH2X/FV3SyRUI5
F88A7/f0D2DUgRlRALdU7JYivK//hWi7VUgJqjky84YxLnA0lASeEjveJaz+WbFB
zX0s2OxZHf1B5FTfzok/+/UT0fuvgObH7doY+/2Mj3SsXXaFbhKZx/m0xHpg/Ij9
yFzzpJMwTp0xheudytZtEwfyPxqTQTyUV0om205mnLVSfLN39v7BWlWGhf3hiJWW
5jwmGt84r7IN3hRtjYneD7FGR9/y7IrSFrJAMwzAzVsndZif7xFN1V1cGnFGrcwK
ySKDnvbbA5yJ5g1+eOrhTu+DKDpJP4lCuDL1R1R63LqhYjjDaPLLifThW5LMCrV3
u8UEgrhag037iYL4+zHdv/1jg7nkeWx4F+PKJf23PnMFS12ViRDg/iEHatQB1W8R
BWBhBiuZSK/DnTtNBNbTOdM8GF5h
-----END CERTIFICATE-----
