Certificate:
    Data:
        Version: 3 (0x2)
        Serial Number: 37 (0x25)
    Signature Algorithm: sha1WithRSAEncryption
        Issuer: C=RS, ST=Serbia, L=Belgrade, O=CodeRed, OU=Security, CN=Client CA
        Validity
            Not Before: Mar 31 15:27:57 2018 GMT
            Not After : Mar 31 15:27:57 2019 GMT
        Subject: O=Code Red, OU=Security, CN=username
        Subject Public Key Info:
            Public Key Algorithm: rsaEncryption
                Public-Key: (4096 bit)
                Modulus:
                    00:b5:fc:73:c7:60:5f:d6:3e:e0:90:cf:7c:8f:8b:
                    fa:79:db:20:54:e0:6f:7a:27:a5:f3:eb:e9:05:c9:
                    8a:85:45:05:c3:96:45:3b:b4:47:6d:73:ee:12:bf:
                    24:2e:5d:1f:9a:4a:7d:2f:ec:e4:96:a7:45:ae:12:
                    34:62:64:21:32:87:68:c1:02:67:1e:bb:c9:1f:70:
                    63:5d:f5:0a:69:e3:76:ac:13:3c:83:26:42:a3:64:
                    02:29:cd:67:8a:78:1d:46:42:18:01:cb:4f:52:cc:
                    5e:86:7e:28:ed:db:8f:b0:ec:7a:27:ed:90:67:1f:
                    8b:10:8c:69:74:c6:90:2d:92:b9:10:3b:85:6f:34:
                    50:41:53:cf:d1:17:2e:a5:38:ac:6f:22:2c:99:3b:
                    04:32:95:a2:3b:bb:01:f9:fc:00:38:ef:8d:12:52:
                    99:ab:42:c3:84:88:5a:52:0f:16:00:ed:c2:ba:24:
                    19:e8:fc:8b:a2:0f:4c:e7:12:16:4c:42:59:11:88:
                    de:cf:98:f8:7c:1a:1d:c0:da:0a:3d:96:ac:48:77:
                    c2:c8:fb:91:ea:f8:b2:44:49:8a:e3:0a:72:b1:63:
                    f8:59:99:75:5b:b2:c0:26:8f:36:83:91:78:a2:ee:
                    d5:77:4c:ed:d0:d3:ef:09:8a:07:91:83:2e:14:50:
                    c8:98:4b:b2:d1:e5:68:82:ce:43:e6:3d:80:ec:d1:
                    3c:ec:81:48:b5:53:23:04:9e:44:7a:bc:af:ad:e7:
                    f3:49:e7:2a:55:78:71:fc:f1:6e:a2:84:70:8d:ae:
                    82:89:da:4f:d7:31:b1:54:af:be:82:c7:9b:32:bb:
                    5f:e0:8c:44:d2:01:21:32:b1:8e:17:53:59:ae:fe:
                    4f:4d:1e:45:4b:10:ec:72:b9:86:c2:6b:6f:52:1b:
                    30:71:57:1a:d1:07:21:f6:62:86:69:de:da:3a:a3:
                    55:6a:b4:a3:be:e9:8b:0f:4e:cb:2a:03:91:78:a8:
                    2d:d0:83:64:85:e1:6f:ed:0b:84:26:9d:ed:d1:cb:
                    86:a0:0c:06:96:76:06:b6:73:f4:9a:33:bf:fe:bf:
                    cf:67:05:e7:75:f4:3f:44:6c:40:ce:81:60:65:25:
                    4b:cd:1e:ff:da:34:01:5f:30:e7:76:a1:09:46:84:
                    5b:5e:9e:9a:13:55:c2:e1:90:64:64:e7:38:71:81:
                    79:94:c4:40:0b:2c:93:6e:31:ef:55:8b:24:18:65:
                    8b:03:76:b0:db:53:07:51:11:3e:6b:91:a1:f5:2d:
                    bd:70:bb:ec:8e:a4:46:bd:1b:cc:2c:41:a1:06:8f:
                    8a:af:1a:49:51:e2:c1:e6:c6:96:0f:9d:b0:8e:15:
                    45:ea:c3
                Exponent: 65537 (0x10001)
        X509v3 extensions:
            X509v3 Key Usage: critical
                Digital Signature, Key Encipherment
            X509v3 Basic Constraints: 
                CA:FALSE
            X509v3 Extended Key Usage: 
                TLS Web Client Authentication
            X509v3 Subject Key Identifier: 
                1C:1D:BF:08:B6:3C:5B:0A:70:F6:96:B6:4C:C8:C1:D7:57:93:07:7B
            X509v3 Authority Key Identifier: 
                keyid:40:4E:DB:7F:82:7A:7D:C2:97:CA:E6:8E:20:04:79:BE:F7:EB:CA:B7

            X509v3 Subject Alternative Name: 
                email:provided@email.com
    Signature Algorithm: sha1WithRSAEncryption
         0e:c1:f7:d8:8e:63:81:97:a8:de:c3:87:c5:3c:35:0c:c6:a5:
         cb:3b:2d:93:1b:90:21:e3:09:69:30:9c:f7:8c:1c:39:29:5d:
         9e:49:cc:7c:82:f6:79:bb:24:cf:6d:a2:8b:5d:bb:8c:bd:76:
         b1:17:ce:56:44:bb:7d:c6:c5:de:ec:54:b2:d7:8f:5c:22:01:
         35:c9:4f:fd:48:67:cf:d9:fa:45:28:48:6a:37:5b:15:d9:8a:
         d5:24:ca:2a:60:19:8a:fd:19:18:5c:c3:e2:e2:51:64:45:e7:
         9b:df:ef:f9:60:4c:f5:f4:58:74:2b:1c:6e:1d:32:2d:76:54:
         a2:1a:06:28:5d:91:ed:48:f7:88:60:e1:5b:5e:d2:13:cb:68:
         68:1c:4a:aa:0d:db:18:b3:20:de:87:3a:ac:37:51:59:ac:3e:
         ff:1f:ad:5d:bb:f0:ac:21:3c:b1:6b:d6:ef:23:20:f7:73:f9:
         e1:f7:dc:f0:d3:fc:85:8e:f3:70:70:89:7f:bc:96:84:53:50:
         04:4c:dd:31:0c:73:84:d8:17:69:6e:9a:a1:82:0e:39:0d:a5:
         7b:f3:b4:0e:40:8b:c5:4f:e4:91:2c:ca:a9:32:d3:20:d2:90:
         29:da:cd:f4:ce:64:ae:d1:0e:49:06:0e:2d:8e:dd:76:34:12:
         a8:44:a3:bd:06:95:c6:ef:57:72:4a:54:f6:f3:5d:14:ea:87:
         00:63:53:1f:74:df:8b:a7:0f:31:9e:18:f9:e1:e8:b2:77:0b:
         77:bf:17:35:6b:e6:fe:db:25:cc:b3:93:17:11:5d:1c:34:b0:
         09:e3:8f:77:53:df:2f:c7:86:01:94:63:e5:2a:ec:6d:3b:07:
         84:a8:ab:62:06:24:bb:84:1e:9e:c8:e4:9d:07:2b:77:c3:71:
         8d:30:04:14:19:9a:f9:f6:e9:f5:88:0f:43:9c:92:89:d2:04:
         be:7e:f3:42:b5:f6:11:7a:eb:b2:c7:fb:47:b5:3f:bd:11:5b:
         5a:de:1c:80:88:1f:e4:c2:1e:63:ee:04:38:d4:3a:27:18:45:
         40:f9:72:4f:bb:62:13:3e:8b:82:b3:bc:5a:38:73:76:17:44:
         c0:06:2a:a1:fa:ad:af:3c:bf:93:44:0b:d5:ba:26:cd:d9:eb:
         c1:34:63:7c:10:3a:c7:69:a9:df:07:4d:cf:fa:b4:33:80:9c:
         56:03:54:7a:db:4b:53:4e:de:3a:c7:07:48:be:21:30:89:5a:
         e3:56:28:d4:ff:6d:f8:9d:db:f0:fa:fd:8c:0b:27:e5:28:58:
         92:1a:7e:41:01:4a:ee:50:2b:10:37:01:17:9a:21:a1:29:9e:
         df:16:22:f0:ec:20:24:55
-----BEGIN CERTIFICATE-----
MIIFsTCCA5mgAwIBAgIBJTANBgkqhkiG9w0BAQUFADBqMQswCQYDVQQGEwJSUzEP
MA0GA1UECAwGU2VyYmlhMREwDwYDVQQHDAhCZWxncmFkZTEQMA4GA1UECgwHQ29k
ZVJlZDERMA8GA1UECwwIU2VjdXJpdHkxEjAQBgNVBAMMCUNsaWVudCBDQTAeFw0x
ODAzMzExNTI3NTdaFw0xOTAzMzExNTI3NTdaMDkxETAPBgNVBAoMCENvZGUgUmVk
MREwDwYDVQQLDAhTZWN1cml0eTERMA8GA1UEAwwIdXNlcm5hbWUwggIiMA0GCSqG
SIb3DQEBAQUAA4ICDwAwggIKAoICAQC1/HPHYF/WPuCQz3yPi/p52yBU4G96J6Xz
6+kFyYqFRQXDlkU7tEdtc+4SvyQuXR+aSn0v7OSWp0WuEjRiZCEyh2jBAmceu8kf
cGNd9Qpp43asEzyDJkKjZAIpzWeKeB1GQhgBy09SzF6Gfijt24+w7Hon7ZBnH4sQ
jGl0xpAtkrkQO4VvNFBBU8/RFy6lOKxvIiyZOwQylaI7uwH5/AA4740SUpmrQsOE
iFpSDxYA7cK6JBno/IuiD0znEhZMQlkRiN7PmPh8Gh3A2go9lqxId8LI+5Hq+LJE
SYrjCnKxY/hZmXVbssAmjzaDkXii7tV3TO3Q0+8JigeRgy4UUMiYS7LR5WiCzkPm
PYDs0TzsgUi1UyMEnkR6vK+t5/NJ5ypVeHH88W6ihHCNroKJ2k/XMbFUr76Cx5sy
u1/gjETSASEysY4XU1mu/k9NHkVLEOxyuYbCa29SGzBxVxrRByH2YoZp3to6o1Vq
tKO+6YsPTssqA5F4qC3Qg2SF4W/tC4Qmne3Ry4agDAaWdga2c/SaM7/+v89nBed1
9D9EbEDOgWBlJUvNHv/aNAFfMOd2oQlGhFtenpoTVcLhkGRk5zhxgXmUxEALLJNu
Me9ViyQYZYsDdrDbUwdRET5rkaH1Lb1wu+yOpEa9G8wsQaEGj4qvGklR4sHmxpYP
nbCOFUXqwwIDAQABo4GSMIGPMA4GA1UdDwEB/wQEAwIFoDAJBgNVHRMEAjAAMBMG
A1UdJQQMMAoGCCsGAQUFBwMCMB0GA1UdDgQWBBQcHb8ItjxbCnD2lrZMyMHXV5MH
ezAfBgNVHSMEGDAWgBRATtt/gnp9wpfK5o4gBHm+9+vKtzAdBgNVHREEFjAUgRJw
cm92aWRlZEBlbWFpbC5jb20wDQYJKoZIhvcNAQEFBQADggIBAA7B99iOY4GXqN7D
h8U8NQzGpcs7LZMbkCHjCWkwnPeMHDkpXZ5JzHyC9nm7JM9tootdu4y9drEXzlZE
u33Gxd7sVLLXj1wiATXJT/1IZ8/Z+kUoSGo3WxXZitUkyipgGYr9GRhcw+LiUWRF
55vf7/lgTPX0WHQrHG4dMi12VKIaBihdke1I94hg4Vte0hPLaGgcSqoN2xizIN6H
Oqw3UVmsPv8frV278KwhPLFr1u8jIPdz+eH33PDT/IWO83BwiX+8loRTUARM3TEM
c4TYF2lumqGCDjkNpXvztA5Ai8VP5JEsyqky0yDSkCnazfTOZK7RDkkGDi2O3XY0
EqhEo70GlcbvV3JKVPbzXRTqhwBjUx9034unDzGeGPnh6LJ3C3e/FzVr5v7bJcyz
kxcRXRw0sAnjj3dT3y/HhgGUY+Uq7G07B4Soq2IGJLuEHp7I5J0HK3fDcY0wBBQZ
mvn26fWID0OckonSBL5+80K19hF667LH+0e1P70RW1reHICIH+TCHmPuBDjUOicY
RUD5ck+7YhM+i4KzvFo4c3YXRMAGKqH6ra88v5NEC9W6Js3Z68E0Y3wQOsdpqd8H
Tc/6tDOAnFYDVHrbS1NO3jrHB0i+ITCJWuNWKNT/bfid2/D6/YwLJ+UoWJIafkEB
Su5QKxA3AReaIaEpnt8WIvDsICRV
-----END CERTIFICATE-----
