Certificate:
    Data:
        Version: 3 (0x2)
        Serial Number: 38 (0x26)
    Signature Algorithm: sha1WithRSAEncryption
        Issuer: C=RS, ST=Serbia, L=Belgrade, O=CodeRed, OU=Security, CN=Client CA
        Validity
            Not Before: Mar 31 15:28:13 2018 GMT
            Not After : Mar 31 15:28:13 2019 GMT
        Subject: O=Code Red, OU=Security, CN=username
        Subject Public Key Info:
            Public Key Algorithm: rsaEncryption
                Public-Key: (4096 bit)
                Modulus:
                    00:ca:92:f3:9c:ae:6f:44:c8:c7:4f:e3:d3:0a:59:
                    7a:6f:e7:8e:07:d7:10:99:04:0c:f8:b3:e0:58:c3:
                    55:58:5c:f7:e8:4d:5a:5e:64:48:e5:60:9b:12:91:
                    c1:0d:4c:66:d5:70:d3:a8:f5:61:c8:eb:de:4d:6c:
                    e4:37:d1:9e:74:84:c1:c1:90:01:c7:f4:6f:60:b4:
                    4c:71:55:20:35:bf:f0:8a:33:51:55:e4:a9:d9:be:
                    95:a4:20:4d:08:88:6a:43:51:a0:e7:c2:0f:6d:f4:
                    72:34:41:56:31:2e:c9:c6:8b:7c:4c:f4:e7:3f:1a:
                    03:03:3c:18:45:83:7d:25:66:ad:e9:fc:d6:9b:92:
                    56:ae:f0:2d:29:0d:a8:c5:53:bc:ad:1a:36:04:a9:
                    97:93:14:f7:ba:56:dd:f4:e0:20:25:18:e6:62:a0:
                    82:76:94:61:9a:31:39:db:74:58:fd:b7:64:f0:73:
                    c5:6a:ba:13:ee:65:8d:48:4b:46:fc:2c:99:df:56:
                    03:29:a4:3c:bc:3b:8a:8b:58:0b:1a:04:bd:9e:5a:
                    29:5d:59:a9:1c:ab:19:3b:0a:0f:68:67:ac:01:40:
                    78:b1:48:05:2e:cf:89:7c:f4:0d:f3:6b:99:ca:0c:
                    8e:12:0e:7e:e6:ef:52:d8:21:d6:9f:4c:8d:66:44:
                    2f:2f:98:2f:f4:14:af:ad:47:fc:4a:b3:76:a6:f1:
                    3d:0b:46:c9:5d:11:b8:77:12:f1:10:a9:b3:43:9a:
                    6f:dc:ed:72:42:79:37:49:86:d9:d0:04:a1:d4:c9:
                    3c:88:92:df:df:cc:b5:30:3f:d3:f3:22:2d:a9:d6:
                    32:02:23:3a:8b:5d:37:6c:2f:60:e2:65:f9:15:5a:
                    25:75:39:57:70:b4:d2:8c:37:83:92:5b:70:a6:90:
                    2f:ea:7c:83:58:de:e9:13:96:dc:73:3c:36:d5:78:
                    a9:84:1c:97:5a:90:76:ac:29:34:1c:a4:be:d6:56:
                    00:76:08:6c:ab:b5:4d:6a:d0:d5:9a:f8:6d:87:f7:
                    e5:79:cd:24:21:a8:5c:53:34:50:75:c6:c0:1f:c3:
                    17:5a:37:b6:1b:f0:78:e3:7d:3e:f7:bb:ce:30:40:
                    71:0b:eb:e3:9a:74:52:54:e7:01:69:e9:40:09:42:
                    51:61:55:b7:2a:29:7b:e7:b3:29:eb:64:68:5e:7b:
                    3f:bf:ef:03:f2:c0:38:b5:4b:cb:74:61:79:1d:14:
                    0f:74:79:3d:de:fc:76:55:6c:f8:4e:07:39:bd:46:
                    6e:59:c5:66:98:0d:f3:39:60:30:aa:25:57:b9:82:
                    63:d0:f0:a0:90:e5:e6:bf:18:76:d1:5c:d5:94:03:
                    76:02:3f
                Exponent: 65537 (0x10001)
        X509v3 extensions:
            X509v3 Key Usage: critical
                Digital Signature, Key Encipherment
            X509v3 Basic Constraints: 
                CA:FALSE
            X509v3 Extended Key Usage: 
                TLS Web Client Authentication
            X509v3 Subject Key Identifier: 
                40:C4:58:DB:55:46:DF:19:86:AA:6B:92:9B:67:03:46:47:DB:29:1C
            X509v3 Authority Key Identifier: 
                keyid:40:4E:DB:7F:82:7A:7D:C2:97:CA:E6:8E:20:04:79:BE:F7:EB:CA:B7

            X509v3 Subject Alternative Name: 
                email:provided@email.com
    Signature Algorithm: sha1WithRSAEncryption
         4b:2c:7b:e0:0c:ae:18:e5:84:b3:56:8f:d1:b0:d9:2a:0d:13:
         c0:da:bb:b1:45:2d:85:e2:38:7a:70:c8:4b:70:eb:47:38:c9:
         96:4c:c5:79:85:45:64:01:1f:79:cd:9d:9c:9e:74:a5:0d:08:
         8d:68:26:03:85:5e:36:57:24:1a:0f:1e:e6:ee:0a:21:72:a7:
         9c:bd:8e:cf:f7:ed:3a:d0:3a:a8:c4:d9:74:79:46:17:a7:a9:
         96:58:b9:f3:b6:c2:00:66:ee:20:28:30:f4:ca:4a:79:c1:ff:
         28:f2:74:7b:49:e5:0c:a9:5e:ee:c0:04:c0:d0:ae:55:cf:7b:
         ef:3b:ca:47:41:b8:f5:8a:a8:77:fd:d1:e2:ff:c5:72:a6:7c:
         0c:14:29:f4:b0:dd:fe:e0:d7:6d:32:e0:61:45:ee:57:86:c3:
         51:ee:56:1b:ec:c5:21:b3:c9:49:02:94:33:71:7d:d4:ed:69:
         f3:45:d2:53:61:14:f4:d7:f8:b3:0d:a5:17:36:9a:c7:2e:dd:
         02:a4:15:71:5a:4d:8f:6d:60:57:14:a8:a5:55:d2:ff:29:a1:
         29:8f:1c:66:7c:56:ab:1f:41:2b:cb:8d:58:11:20:d6:be:70:
         23:21:c4:71:d3:ea:a4:f9:4e:72:11:e5:ad:4f:3c:cd:d4:09:
         5b:a1:35:7a:9e:c5:37:c1:f2:34:75:b4:ee:f3:c1:cf:53:b8:
         19:05:b3:ca:1e:68:ac:e2:5d:81:ef:6c:db:72:5c:f3:4a:12:
         3f:d3:24:99:ba:cb:9e:ae:c6:8b:6e:37:65:3b:25:b0:57:96:
         29:de:e7:d9:ee:16:ca:4a:8b:13:b8:55:ea:18:28:85:47:d2:
         85:2c:71:6f:f6:7f:f6:30:a9:12:15:04:ac:0b:54:70:c0:ad:
         1a:47:cd:c3:ed:1c:73:2a:80:6b:01:2d:42:39:a2:6f:a4:e9:
         3b:da:ed:c6:98:cc:0d:2e:18:0d:24:7a:9d:b4:da:5e:b2:34:
         51:b5:2d:12:15:63:e7:9d:12:30:dc:98:74:af:db:d9:4a:e9:
         f8:e9:fd:05:d8:db:76:f9:52:e3:34:e2:71:ae:9d:ea:8a:00:
         2a:3d:43:c3:ad:3f:1a:ac:d3:02:fc:bd:f4:3d:dd:46:fe:d6:
         ce:67:e6:3c:6e:a5:00:0f:68:0e:8b:96:0a:97:55:9c:71:39:
         cb:a1:85:d2:34:f4:77:c2:ed:54:a7:e4:20:ae:1b:cd:99:4b:
         cf:67:e2:3d:04:4c:ae:7f:6a:11:2e:a5:09:61:63:a1:88:3e:
         1f:4c:e3:71:6a:a0:7a:22:e8:b6:eb:4f:f6:f4:7f:b7:61:91:
         91:29:e3:17:8b:e1:9c:4f
-----BEGIN CERTIFICATE-----
MIIFsTCCA5mgAwIBAgIBJjANBgkqhkiG9w0BAQUFADBqMQswCQYDVQQGEwJSUzEP
MA0GA1UECAwGU2VyYmlhMREwDwYDVQQHDAhCZWxncmFkZTEQMA4GA1UECgwHQ29k
ZVJlZDERMA8GA1UECwwIU2VjdXJpdHkxEjAQBgNVBAMMCUNsaWVudCBDQTAeFw0x
ODAzMzExNTI4MTNaFw0xOTAzMzExNTI4MTNaMDkxETAPBgNVBAoMCENvZGUgUmVk
MREwDwYDVQQLDAhTZWN1cml0eTERMA8GA1UEAwwIdXNlcm5hbWUwggIiMA0GCSqG
SIb3DQEBAQUAA4ICDwAwggIKAoICAQDKkvOcrm9EyMdP49MKWXpv544H1xCZBAz4
s+BYw1VYXPfoTVpeZEjlYJsSkcENTGbVcNOo9WHI695NbOQ30Z50hMHBkAHH9G9g
tExxVSA1v/CKM1FV5KnZvpWkIE0IiGpDUaDnwg9t9HI0QVYxLsnGi3xM9Oc/GgMD
PBhFg30lZq3p/Nabklau8C0pDajFU7ytGjYEqZeTFPe6Vt304CAlGOZioIJ2lGGa
MTnbdFj9t2Twc8VquhPuZY1IS0b8LJnfVgMppDy8O4qLWAsaBL2eWildWakcqxk7
Cg9oZ6wBQHixSAUuz4l89A3za5nKDI4SDn7m71LYIdafTI1mRC8vmC/0FK+tR/xK
s3am8T0LRsldEbh3EvEQqbNDmm/c7XJCeTdJhtnQBKHUyTyIkt/fzLUwP9PzIi2p
1jICIzqLXTdsL2DiZfkVWiV1OVdwtNKMN4OSW3CmkC/qfINY3ukTltxzPDbVeKmE
HJdakHasKTQcpL7WVgB2CGyrtU1q0NWa+G2H9+V5zSQhqFxTNFB1xsAfwxdaN7Yb
8HjjfT73u84wQHEL6+OadFJU5wFp6UAJQlFhVbcqKXvnsynrZGheez+/7wPywDi1
S8t0YXkdFA90eT3e/HZVbPhOBzm9Rm5ZxWaYDfM5YDCqJVe5gmPQ8KCQ5ea/GHbR
XNWUA3YCPwIDAQABo4GSMIGPMA4GA1UdDwEB/wQEAwIFoDAJBgNVHRMEAjAAMBMG
A1UdJQQMMAoGCCsGAQUFBwMCMB0GA1UdDgQWBBRAxFjbVUbfGYaqa5KbZwNGR9sp
HDAfBgNVHSMEGDAWgBRATtt/gnp9wpfK5o4gBHm+9+vKtzAdBgNVHREEFjAUgRJw
cm92aWRlZEBlbWFpbC5jb20wDQYJKoZIhvcNAQEFBQADggIBAEsse+AMrhjlhLNW
j9Gw2SoNE8Dau7FFLYXiOHpwyEtw60c4yZZMxXmFRWQBH3nNnZyedKUNCI1oJgOF
XjZXJBoPHubuCiFyp5y9js/37TrQOqjE2XR5RhenqZZYufO2wgBm7iAoMPTKSnnB
/yjydHtJ5QypXu7ABMDQrlXPe+87ykdBuPWKqHf90eL/xXKmfAwUKfSw3f7g120y
4GFF7leGw1HuVhvsxSGzyUkClDNxfdTtafNF0lNhFPTX+LMNpRc2mscu3QKkFXFa
TY9tYFcUqKVV0v8poSmPHGZ8VqsfQSvLjVgRINa+cCMhxHHT6qT5TnIR5a1PPM3U
CVuhNXqexTfB8jR1tO7zwc9TuBkFs8oeaKziXYHvbNtyXPNKEj/TJJm6y56uxotu
N2U7JbBXline59nuFspKixO4VeoYKIVH0oUscW/2f/YwqRIVBKwLVHDArRpHzcPt
HHMqgGsBLUI5om+k6Tva7caYzA0uGA0kep202l6yNFG1LRIVY+edEjDcmHSv29lK
6fjp/QXY23b5UuM04nGuneqKACo9Q8OtPxqs0wL8vfQ93Ub+1s5n5jxupQAPaA6L
lgqXVZxxOcuhhdI09HfC7VSn5CCuG82ZS89n4j0ETK5/ahEupQlhY6GIPh9M43Fq
oHoi6LbrT/b0f7dhkZEp4xeL4ZxP
-----END CERTIFICATE-----
