Certificate:
    Data:
        Version: 3 (0x2)
        Serial Number: 39 (0x27)
    Signature Algorithm: sha1WithRSAEncryption
        Issuer: C=RS, ST=Serbia, L=Belgrade, O=CodeRed, OU=Security, CN=Client CA
        Validity
            Not Before: Mar 31 15:28:30 2018 GMT
            Not After : Mar 31 15:28:30 2019 GMT
        Subject: O=Code Red, OU=Security, CN=username
        Subject Public Key Info:
            Public Key Algorithm: rsaEncryption
                Public-Key: (4096 bit)
                Modulus:
                    00:99:65:88:e4:5e:b6:44:e6:d9:e5:ef:72:07:d9:
                    20:b1:24:e3:f3:59:45:16:e1:b4:6f:8e:c9:19:33:
                    d7:db:d9:62:1f:4c:7c:e4:00:30:88:ec:d9:43:31:
                    c6:5c:e5:79:d7:64:3c:03:36:3c:41:89:88:67:62:
                    db:8f:52:03:ce:5b:b6:a9:da:0f:21:a5:4d:d6:2b:
                    c8:9b:2d:9a:ea:1f:b8:03:a7:1d:fd:fe:08:18:0b:
                    cc:d7:07:69:d7:13:17:eb:8b:5e:37:83:88:e3:4d:
                    a5:79:e7:10:fd:87:73:11:8b:a1:8d:65:26:75:df:
                    37:1c:8f:44:cd:4e:25:99:7d:51:26:b2:48:42:6a:
                    83:60:af:85:f0:65:bf:fe:41:58:1c:6b:24:f1:78:
                    f4:18:6b:ea:c0:f3:8d:04:25:de:c4:9a:32:3c:4a:
                    17:17:17:e1:ce:07:fa:ea:67:89:b7:b2:01:fc:34:
                    2a:97:cd:c3:be:1f:68:ba:76:bd:70:ff:2a:fd:1c:
                    1e:ac:34:5a:40:fe:80:28:71:45:60:ec:a1:fe:42:
                    b6:43:49:ca:ec:6a:60:09:10:85:e0:ca:7b:2b:96:
                    4d:db:5f:1d:b4:4d:85:91:16:2b:bc:31:37:66:5f:
                    1c:de:7f:1a:f5:d4:fd:30:42:c3:93:6d:af:09:f1:
                    b4:d5:ce:56:c6:7a:f9:48:63:e0:5d:e6:a8:9f:b4:
                    9b:1f:cf:28:22:c6:60:4e:13:4d:e2:1a:80:74:4b:
                    27:f9:c9:e7:41:eb:30:66:e7:f3:be:07:a1:c9:95:
                    6c:4a:bb:6e:c3:6b:b1:79:cb:86:42:91:7a:f3:de:
                    a9:8f:21:2f:1d:31:a1:52:e8:ef:e0:95:02:8d:af:
                    df:74:a0:b4:b9:6c:b3:f5:7e:6b:41:52:96:ee:38:
                    25:fa:d7:56:1a:47:03:41:75:3f:c7:8e:8f:d3:db:
                    6f:a5:0f:3a:9d:50:76:d0:a4:10:ba:32:75:80:2f:
                    67:aa:bd:01:b8:89:66:23:70:4e:91:22:44:19:25:
                    f7:d5:97:02:bc:d2:0c:08:af:9e:1b:d3:86:20:62:
                    2e:3e:34:da:13:4e:82:80:34:18:d4:f8:c3:a1:91:
                    ac:89:04:ae:e2:c9:01:1a:c3:47:f2:d4:b5:6e:68:
                    f6:85:a2:39:35:d6:8c:84:58:53:d7:0d:c6:32:1d:
                    94:43:8d:d8:b0:ff:ee:b6:0a:d8:22:d6:20:92:e0:
                    4d:8c:29:41:7e:fe:20:fc:00:1a:ab:3c:f5:2d:e1:
                    bb:33:87:3c:37:a0:ed:24:4b:db:f1:de:b2:85:cf:
                    fa:41:1b:e1:d8:d3:a0:68:1b:d7:e4:d2:02:57:de:
                    d9:c2:7f
                Exponent: 65537 (0x10001)
        X509v3 extensions:
            X509v3 Key Usage: critical
                Digital Signature, Key Encipherment
            X509v3 Basic Constraints: 
                CA:FALSE
            X509v3 Extended Key Usage: 
                TLS Web Client Authentication
            X509v3 Subject Key Identifier: 
                A5:5A:55:35:22:10:AC:09:96:D1:36:51:47:7B:EE:06:27:12:E7:14
            X509v3 Authority Key Identifier: 
                keyid:40:4E:DB:7F:82:7A:7D:C2:97:CA:E6:8E:20:04:79:BE:F7:EB:CA:B7

            X509v3 Subject Alternative Name: 
                email:provided@email.com
    Signature Algorithm: sha1WithRSAEncryption
         45:53:a7:a1:85:bb:63:b8:6f:70:bf:9b:dd:87:27:f6:7a:63:
         c4:73:13:02:a4:6a:97:50:66:40:cc:ea:e6:9a:b7:ac:90:dd:
         1d:f7:36:7e:2a:f0:4d:5c:cd:c5:dd:8c:e7:e3:c6:59:fc:0b:
         35:08:7f:22:49:4f:b4:91:c6:f9:11:cb:b4:81:fd:dc:8a:7f:
         ec:1b:d9:74:aa:94:f3:32:65:5e:6d:36:88:fd:ad:94:a1:1a:
         c2:00:af:b2:41:aa:4a:d5:3f:73:75:6f:d6:da:42:67:c2:2e:
         78:89:5f:e7:24:d8:1f:9b:88:00:b1:91:8e:81:bf:5a:02:b4:
         df:73:f2:6e:e3:ff:f1:d5:1d:39:aa:1e:ae:27:5d:ab:82:db:
         60:2e:29:b8:75:49:c1:45:c5:e0:c1:ba:3d:40:07:a1:5b:e4:
         5a:66:92:94:f4:cb:bc:c7:88:fd:be:a4:6e:56:0c:3d:04:c0:
         9a:a3:74:83:0b:b1:04:f9:32:98:cc:79:1c:9f:53:0f:8d:b4:
         17:53:fd:ba:d3:4c:1b:52:da:f5:f6:5e:eb:82:37:33:c9:28:
         65:cf:b7:0a:47:b5:ef:15:4c:fa:33:c3:08:78:9b:48:0b:e0:
         27:dd:86:fb:d7:99:eb:70:61:62:8d:9e:45:4d:d7:8f:69:75:
         6a:c7:f9:86:89:3b:62:05:69:78:85:d8:23:a5:23:dc:5c:1f:
         3e:64:4e:e9:bd:75:3d:b6:ea:33:35:2a:91:c0:40:f3:57:2d:
         96:e6:50:c2:f9:13:fe:f8:56:1c:ae:5f:c5:e6:73:f5:f3:c2:
         08:a0:aa:56:c2:db:bb:22:0f:10:84:98:4e:58:c9:8c:79:3e:
         c8:ba:12:52:66:df:82:93:04:b9:36:45:c8:30:9f:66:92:ce:
         cc:de:52:e7:6d:4f:7b:0d:c1:48:df:19:92:57:54:6f:0b:4c:
         55:8c:09:2b:8e:4e:30:35:5d:c1:8c:4a:86:98:d1:4e:b3:ad:
         7e:14:b8:f2:ee:f1:d6:08:69:6c:5a:7b:5d:3f:65:98:e0:85:
         72:51:f2:73:25:da:63:2f:df:dc:49:48:f6:be:09:b3:6c:36:
         1f:67:7e:fc:d4:63:30:59:a2:6a:82:99:2c:03:10:47:6f:0a:
         05:99:4e:7c:79:5f:d3:31:b7:ed:0b:9b:5f:60:48:8e:05:f7:
         e7:97:6b:1a:28:d9:06:85:86:9f:e4:ee:cc:77:79:f0:62:b1:
         42:78:f3:d0:07:b9:29:25:af:3e:75:eb:40:4f:7b:ab:31:ec:
         c2:d0:16:9e:14:d4:bf:e5:c8:e5:b4:64:44:e5:a2:8d:f6:41:
         1d:18:df:7f:9d:fc:44:21
-----BEGIN CERTIFICATE-----
MIIFsTCCA5mgAwIBAgIBJzANBgkqhkiG9w0BAQUFADBqMQswCQYDVQQGEwJSUzEP
MA0GA1UECAwGU2VyYmlhMREwDwYDVQQHDAhCZWxncmFkZTEQMA4GA1UECgwHQ29k
ZVJlZDERMA8GA1UECwwIU2VjdXJpdHkxEjAQBgNVBAMMCUNsaWVudCBDQTAeFw0x
ODAzMzExNTI4MzBaFw0xOTAzMzExNTI4MzBaMDkxETAPBgNVBAoMCENvZGUgUmVk
MREwDwYDVQQLDAhTZWN1cml0eTERMA8GA1UEAwwIdXNlcm5hbWUwggIiMA0GCSqG
SIb3DQEBAQUAA4ICDwAwggIKAoICAQCZZYjkXrZE5tnl73IH2SCxJOPzWUUW4bRv
jskZM9fb2WIfTHzkADCI7NlDMcZc5XnXZDwDNjxBiYhnYtuPUgPOW7ap2g8hpU3W
K8ibLZrqH7gDpx39/ggYC8zXB2nXExfri143g4jjTaV55xD9h3MRi6GNZSZ13zcc
j0TNTiWZfVEmskhCaoNgr4XwZb/+QVgcayTxePQYa+rA840EJd7EmjI8ShcXF+HO
B/rqZ4m3sgH8NCqXzcO+H2i6dr1w/yr9HB6sNFpA/oAocUVg7KH+QrZDScrsamAJ
EIXgynsrlk3bXx20TYWRFiu8MTdmXxzefxr11P0wQsOTba8J8bTVzlbGevlIY+Bd
5qiftJsfzygixmBOE03iGoB0Syf5yedB6zBm5/O+B6HJlWxKu27Da7F5y4ZCkXrz
3qmPIS8dMaFS6O/glQKNr990oLS5bLP1fmtBUpbuOCX611YaRwNBdT/Hjo/T22+l
DzqdUHbQpBC6MnWAL2eqvQG4iWYjcE6RIkQZJffVlwK80gwIr54b04YgYi4+NNoT
ToKANBjU+MOhkayJBK7iyQEaw0fy1LVuaPaFojk11oyEWFPXDcYyHZRDjdiw/+62
Ctgi1iCS4E2MKUF+/iD8ABqrPPUt4bszhzw3oO0kS9vx3rKFz/pBG+HY06BoG9fk
0gJX3tnCfwIDAQABo4GSMIGPMA4GA1UdDwEB/wQEAwIFoDAJBgNVHRMEAjAAMBMG
A1UdJQQMMAoGCCsGAQUFBwMCMB0GA1UdDgQWBBSlWlU1IhCsCZbRNlFHe+4GJxLn
FDAfBgNVHSMEGDAWgBRATtt/gnp9wpfK5o4gBHm+9+vKtzAdBgNVHREEFjAUgRJw
cm92aWRlZEBlbWFpbC5jb20wDQYJKoZIhvcNAQEFBQADggIBAEVTp6GFu2O4b3C/
m92HJ/Z6Y8RzEwKkapdQZkDM6uaat6yQ3R33Nn4q8E1czcXdjOfjxln8CzUIfyJJ
T7SRxvkRy7SB/dyKf+wb2XSqlPMyZV5tNoj9rZShGsIAr7JBqkrVP3N1b9baQmfC
LniJX+ck2B+biACxkY6Bv1oCtN9z8m7j//HVHTmqHq4nXauC22AuKbh1ScFFxeDB
uj1AB6Fb5FpmkpT0y7zHiP2+pG5WDD0EwJqjdIMLsQT5MpjMeRyfUw+NtBdT/brT
TBtS2vX2XuuCNzPJKGXPtwpHte8VTPozwwh4m0gL4CfdhvvXmetwYWKNnkVN149p
dWrH+YaJO2IFaXiF2COlI9xcHz5kTum9dT226jM1KpHAQPNXLZbmUML5E/74Vhyu
X8Xmc/XzwgigqlbC27siDxCEmE5YyYx5Psi6ElJm34KTBLk2Rcgwn2aSzszeUudt
T3sNwUjfGZJXVG8LTFWMCSuOTjA1XcGMSoaY0U6zrX4UuPLu8dYIaWxae10/ZZjg
hXJR8nMl2mMv39xJSPa+CbNsNh9nfvzUYzBZomqCmSwDEEdvCgWZTnx5X9Mxt+0L
m19gSI4F9+eXaxoo2QaFhp/k7sx3efBisUJ489AHuSklrz5160BPe6sx7MLQFp4U
1L/lyOW0ZETloo32QR0Y33+d/EQh
-----END CERTIFICATE-----
