Certificate:
    Data:
        Version: 3 (0x2)
        Serial Number: 40 (0x28)
    Signature Algorithm: sha1WithRSAEncryption
        Issuer: C=RS, ST=Serbia, L=Belgrade, O=CodeRed, OU=Security, CN=Client CA
        Validity
            Not Before: Mar 31 15:28:50 2018 GMT
            Not After : Mar 31 15:28:50 2019 GMT
        Subject: O=Code Red, OU=Security, CN=username
        Subject Public Key Info:
            Public Key Algorithm: rsaEncryption
                Public-Key: (4096 bit)
                Modulus:
                    00:e5:fa:3e:49:5c:47:9c:dc:cd:4c:36:00:cc:86:
                    11:05:05:b1:9f:7b:41:04:48:fb:59:7a:f8:e7:69:
                    95:d3:3b:ff:f1:a9:1f:d3:fc:40:d9:0a:51:4b:41:
                    0b:86:92:1b:bf:23:c8:e2:f2:6c:d5:39:ab:40:94:
                    bc:1d:40:32:75:dc:91:f4:d0:20:99:b3:37:10:e6:
                    03:d8:d6:ef:73:65:8d:0a:a7:18:1f:06:26:59:d3:
                    a2:9c:b5:eb:d2:c9:d9:3b:c9:e9:b3:4c:de:59:df:
                    f1:f4:5d:c8:b5:10:ea:1a:04:a2:ea:ff:49:0c:c1:
                    d7:a9:67:a0:09:72:ce:11:d7:e0:88:b8:d5:e8:cd:
                    21:ed:de:70:3b:a6:61:dd:f6:10:f5:ec:c6:51:1e:
                    5a:bd:f9:42:cd:17:0f:86:5d:00:77:11:db:40:6a:
                    ae:8d:0e:9d:90:f4:c4:a4:7c:dd:15:26:dc:5d:cb:
                    7a:ff:6b:aa:c5:da:f2:ec:73:b3:a4:35:3a:ac:95:
                    51:a0:80:68:a4:26:07:8d:11:4a:55:be:c5:a8:83:
                    16:d2:b5:29:e3:87:e8:8c:12:35:37:fb:33:9d:76:
                    5f:a5:c9:33:bf:9f:73:8f:3f:fa:8f:da:08:a2:ee:
                    9c:0e:09:5f:f3:fd:4e:57:eb:67:43:04:70:d5:7b:
                    ab:8f:ad:e2:55:61:c6:b9:25:b6:17:e8:78:1d:42:
                    3a:53:05:29:dd:9d:46:98:06:92:0e:bd:a6:37:97:
                    11:bb:b0:8d:9f:f5:60:9b:e9:b1:e9:e5:5c:dd:4b:
                    52:52:e1:51:b1:82:83:4d:f0:06:3e:7d:09:46:f9:
                    59:8f:77:3c:a0:71:cb:34:94:1f:7a:69:4a:83:89:
                    2c:d4:dc:03:7d:0c:2d:a4:7d:c0:9c:be:a1:22:8f:
                    39:25:fa:76:76:e0:8e:bc:46:c3:81:e7:02:63:83:
                    63:f0:96:f3:ce:3b:aa:81:9a:ad:5e:3c:50:db:15:
                    66:f3:fc:ab:e4:8b:63:0a:f0:5a:29:b7:33:12:15:
                    13:8c:ef:49:ab:b5:52:68:4e:5b:09:11:68:a7:87:
                    33:f3:4a:86:81:55:0b:04:c1:43:6b:30:1e:d2:10:
                    eb:c6:b2:83:4a:cc:fc:31:00:e7:55:ec:90:a9:fc:
                    13:8d:df:60:73:1e:31:90:3b:7c:80:fb:9e:3b:38:
                    bd:99:57:3d:4d:84:bb:d6:4a:f5:7d:54:83:11:bb:
                    a5:d8:b5:b1:4d:86:a1:85:e4:7d:6a:b5:a4:44:63:
                    16:71:5b:69:8a:13:0f:28:93:f3:d9:e6:5c:91:ec:
                    3e:07:46:9b:bd:3a:ab:34:3a:93:a2:27:09:02:98:
                    3b:8e:2d
                Exponent: 65537 (0x10001)
        X509v3 extensions:
            X509v3 Key Usage: critical
                Digital Signature, Key Encipherment
            X509v3 Basic Constraints: 
                CA:FALSE
            X509v3 Extended Key Usage: 
                TLS Web Client Authentication
            X509v3 Subject Key Identifier: 
                21:C7:B6:31:6A:E0:66:25:99:5B:07:29:6D:95:41:C7:E7:4C:77:67
            X509v3 Authority Key Identifier: 
                keyid:40:4E:DB:7F:82:7A:7D:C2:97:CA:E6:8E:20:04:79:BE:F7:EB:CA:B7

            X509v3 Subject Alternative Name: 
                email:provided@email.com
    Signature Algorithm: sha1WithRSAEncryption
         7d:28:e5:69:e9:68:82:e5:cd:08:6e:3a:c9:84:c0:a4:f8:f5:
         e7:ba:91:26:1f:f9:be:4a:9c:33:8e:10:9f:25:c5:18:f0:6b:
         eb:ec:3f:5a:13:91:b9:0a:17:c9:c1:c3:a7:1c:b0:0c:14:0e:
         a3:08:3c:56:26:0b:29:d9:82:91:4c:57:39:a2:ff:b3:b5:99:
         6f:d7:16:81:bb:e5:6f:9b:dd:51:cd:21:74:a7:18:cb:12:0f:
         e6:e0:76:18:62:cd:7d:ac:b5:bf:86:39:f7:ce:5b:d9:e9:6a:
         9e:07:dc:8c:85:9d:38:8d:fd:07:28:2d:a2:12:d5:6e:c5:3c:
         f2:d6:00:b7:5d:93:4b:e9:b1:2e:6c:f3:df:f6:bb:e5:e5:ea:
         f0:ca:ec:cb:21:92:aa:de:92:9a:eb:88:30:70:b1:2f:bb:ed:
         ba:55:70:a5:31:9e:29:97:dd:31:95:9f:6f:af:28:1b:a6:b3:
         46:97:e2:ba:8c:9a:3e:d4:5b:3d:15:47:52:d4:04:b2:77:38:
         db:d9:a3:62:d0:43:9e:cf:48:cd:52:13:97:87:79:c6:ec:80:
         e6:64:eb:ae:6c:25:44:d4:9b:c2:94:a3:09:5f:10:09:05:d5:
         18:d0:cc:c4:55:96:87:bb:62:bb:49:c7:9f:f8:0f:54:7c:59:
         d3:27:3b:81:a6:7a:d1:2e:1b:e4:21:d7:d8:c8:81:27:ff:bd:
         ae:3c:3b:08:82:b0:f3:f2:f0:86:38:72:f9:c8:ad:c5:50:7a:
         5f:bc:74:3f:99:58:7a:e2:82:6f:69:ad:87:f0:20:de:9d:32:
         2c:fa:02:8f:54:d3:e6:e9:7b:99:06:22:93:85:73:2a:23:e2:
         5f:ec:62:9e:f3:bf:e5:9b:e3:cb:ef:ce:9f:30:2b:e6:65:e0:
         ce:8b:78:a8:39:48:51:1f:96:1f:aa:de:2c:3c:cb:36:c4:b0:
         e5:cb:d7:db:87:41:14:38:6f:96:3b:e3:4d:92:20:79:db:50:
         58:4b:0d:bd:b6:a3:fa:34:0d:d5:fe:ba:e1:5f:99:e0:ef:70:
         dd:18:b1:a1:8c:bc:71:21:52:ec:05:27:a7:91:b7:3a:d6:e6:
         ef:e5:2b:71:99:17:6c:aa:59:bf:49:0a:e0:c4:b4:54:5d:50:
         15:04:03:c9:09:84:16:6c:44:9b:ec:b6:5d:5b:93:96:7a:32:
         5d:28:60:37:ec:bc:38:c3:c3:64:73:29:53:a3:1d:db:37:18:
         29:a8:c6:65:2b:7d:28:61:7a:cf:54:dc:f3:29:9d:d5:38:0a:
         93:9b:a0:9c:78:2d:f2:a6:7a:b7:05:5f:2d:6d:73:e9:47:d6:
         25:ee:c6:55:d7:60:40:99
-----BEGIN CERTIFICATE-----
MIIFsTCCA5mgAwIBAgIBKDANBgkqhkiG9w0BAQUFADBqMQswCQYDVQQGEwJSUzEP
MA0GA1UECAwGU2VyYmlhMREwDwYDVQQHDAhCZWxncmFkZTEQMA4GA1UECgwHQ29k
ZVJlZDERMA8GA1UECwwIU2VjdXJpdHkxEjAQBgNVBAMMCUNsaWVudCBDQTAeFw0x
ODAzMzExNTI4NTBaFw0xOTAzMzExNTI4NTBaMDkxETAPBgNVBAoMCENvZGUgUmVk
MREwDwYDVQQLDAhTZWN1cml0eTERMA8GA1UEAwwIdXNlcm5hbWUwggIiMA0GCSqG
SIb3DQEBAQUAA4ICDwAwggIKAoICAQDl+j5JXEec3M1MNgDMhhEFBbGfe0EESPtZ
evjnaZXTO//xqR/T/EDZClFLQQuGkhu/I8ji8mzVOatAlLwdQDJ13JH00CCZszcQ
5gPY1u9zZY0KpxgfBiZZ06KctevSydk7yemzTN5Z3/H0Xci1EOoaBKLq/0kMwdep
Z6AJcs4R1+CIuNXozSHt3nA7pmHd9hD17MZRHlq9+ULNFw+GXQB3EdtAaq6NDp2Q
9MSkfN0VJtxdy3r/a6rF2vLsc7OkNTqslVGggGikJgeNEUpVvsWogxbStSnjh+iM
EjU3+zOddl+lyTO/n3OPP/qP2gii7pwOCV/z/U5X62dDBHDVe6uPreJVYca5JbYX
6HgdQjpTBSndnUaYBpIOvaY3lxG7sI2f9WCb6bHp5VzdS1JS4VGxgoNN8AY+fQlG
+VmPdzygccs0lB96aUqDiSzU3AN9DC2kfcCcvqEijzkl+nZ24I68RsOB5wJjg2Pw
lvPOO6qBmq1ePFDbFWbz/Kvki2MK8FoptzMSFROM70mrtVJoTlsJEWinhzPzSoaB
VQsEwUNrMB7SEOvGsoNKzPwxAOdV7JCp/BON32BzHjGQO3yA+547OL2ZVz1NhLvW
SvV9VIMRu6XYtbFNhqGF5H1qtaREYxZxW2mKEw8ok/PZ5lyR7D4HRpu9Oqs0OpOi
JwkCmDuOLQIDAQABo4GSMIGPMA4GA1UdDwEB/wQEAwIFoDAJBgNVHRMEAjAAMBMG
A1UdJQQMMAoGCCsGAQUFBwMCMB0GA1UdDgQWBBQhx7YxauBmJZlbByltlUHH50x3
ZzAfBgNVHSMEGDAWgBRATtt/gnp9wpfK5o4gBHm+9+vKtzAdBgNVHREEFjAUgRJw
cm92aWRlZEBlbWFpbC5jb20wDQYJKoZIhvcNAQEFBQADggIBAH0o5WnpaILlzQhu
OsmEwKT49ee6kSYf+b5KnDOOEJ8lxRjwa+vsP1oTkbkKF8nBw6ccsAwUDqMIPFYm
CynZgpFMVzmi/7O1mW/XFoG75W+b3VHNIXSnGMsSD+bgdhhizX2stb+GOffOW9np
ap4H3IyFnTiN/QcoLaIS1W7FPPLWALddk0vpsS5s89/2u+Xl6vDK7Mshkqrekprr
iDBwsS+77bpVcKUxnimX3TGVn2+vKBums0aX4rqMmj7UWz0VR1LUBLJ3ONvZo2LQ
Q57PSM1SE5eHecbsgOZk665sJUTUm8KUowlfEAkF1RjQzMRVloe7YrtJx5/4D1R8
WdMnO4GmetEuG+Qh19jIgSf/va48OwiCsPPy8IY4cvnIrcVQel+8dD+ZWHrigm9p
rYfwIN6dMiz6Ao9U0+bpe5kGIpOFcyoj4l/sYp7zv+Wb48vvzp8wK+Zl4M6LeKg5
SFEflh+q3iw8yzbEsOXL19uHQRQ4b5Y7402SIHnbUFhLDb22o/o0DdX+uuFfmeDv
cN0YsaGMvHEhUuwFJ6eRtzrW5u/lK3GZF2yqWb9JCuDEtFRdUBUEA8kJhBZsRJvs
tl1bk5Z6Ml0oYDfsvDjDw2RzKVOjHds3GCmoxmUrfShhes9U3PMpndU4CpOboJx4
LfKmercFXy1tc+lH1iXuxlXXYECZ
-----END CERTIFICATE-----
