Certificate:
    Data:
        Version: 3 (0x2)
        Serial Number: 41 (0x29)
    Signature Algorithm: sha1WithRSAEncryption
        Issuer: C=RS, ST=Serbia, L=Belgrade, O=CodeRed, OU=Security, CN=Client CA
        Validity
            Not Before: Mar 31 15:34:04 2018 GMT
            Not After : Mar 31 15:34:04 2019 GMT
        Subject: O=Code Red, OU=Security, CN=username
        Subject Public Key Info:
            Public Key Algorithm: rsaEncryption
                Public-Key: (4096 bit)
                Modulus:
                    00:eb:41:3e:ce:3f:7c:d1:2e:d3:60:ce:d6:81:a5:
                    16:47:da:94:c6:93:1f:af:e2:fe:68:2a:ab:5c:fa:
                    d6:9e:3a:57:06:01:a2:ca:0a:83:ef:2b:a3:34:1b:
                    ec:05:ec:0a:a7:66:07:b4:ae:ea:7a:3d:0b:87:6a:
                    f3:1f:a7:3a:93:87:74:86:b2:81:2b:48:eb:bb:4d:
                    7a:df:d4:69:54:50:bc:e9:4b:d1:f5:6d:d3:ee:2d:
                    21:8d:8b:38:d0:fb:36:3e:4d:3a:df:b6:9d:85:e7:
                    f1:8b:7b:c6:32:92:58:1b:c8:73:08:09:47:24:61:
                    21:a3:61:88:da:34:5a:89:3c:b8:af:a8:46:bd:f9:
                    fb:74:85:cf:a6:c1:ae:42:fa:83:23:c4:67:fb:c2:
                    ef:ab:d0:c2:37:5f:d6:c4:7a:63:cd:28:36:34:12:
                    eb:50:01:16:eb:33:58:4f:fc:7a:ed:c2:82:ca:9a:
                    9d:e7:cd:03:e0:9e:19:35:76:a0:a5:98:98:c7:e5:
                    4f:fb:75:f2:13:3a:7f:a8:6f:6d:b3:5b:75:26:32:
                    ef:fb:10:59:6b:e4:da:73:47:ca:65:3b:92:fb:9b:
                    42:15:a4:da:12:2e:4d:f0:9e:63:07:3b:55:da:3e:
                    56:0d:6d:b8:3c:6e:c5:d2:7a:15:18:ed:4e:65:45:
                    35:a7:80:6f:4b:91:08:90:71:46:00:3c:4a:2d:ab:
                    fc:9b:1b:99:2e:62:f7:9c:43:ea:81:8e:56:a8:f5:
                    4e:db:24:f3:f9:6d:35:15:f0:19:18:05:bc:ca:f4:
                    20:62:24:a8:67:74:06:47:02:da:20:8a:46:f3:65:
                    73:9c:a5:53:a3:a1:33:9b:bf:0e:71:d8:19:74:03:
                    77:1b:97:ad:07:0f:75:c6:ce:25:de:9a:a8:00:43:
                    76:a6:7f:3a:c6:95:5c:c8:bf:09:71:8e:7b:3d:28:
                    09:03:33:19:dc:f2:dc:fc:63:df:ae:e6:76:3b:14:
                    aa:79:f9:ed:65:85:70:61:83:91:1d:8f:61:d1:74:
                    e9:62:fe:d7:c7:9a:c4:58:5b:9d:f7:ef:0f:ba:79:
                    70:f0:47:64:7e:0a:7c:86:2f:ed:de:b5:9c:4d:d9:
                    a9:18:0f:bc:54:5f:ca:41:d6:69:2e:ea:81:31:38:
                    71:76:1c:bf:82:70:49:97:2e:88:d6:87:0a:23:12:
                    07:32:b8:4d:fd:e3:ef:b6:6e:1f:ab:f4:b1:6d:8c:
                    19:03:7a:91:84:b0:bb:53:16:87:41:24:b1:af:95:
                    2c:35:d9:b5:45:f9:fe:ac:75:c1:3c:9d:b4:81:11:
                    31:0a:a6:8f:76:63:8e:af:cf:16:e0:d1:55:5a:8e:
                    56:21:b7
                Exponent: 65537 (0x10001)
        X509v3 extensions:
            X509v3 Key Usage: critical
                Digital Signature, Key Encipherment
            X509v3 Basic Constraints: 
                CA:FALSE
            X509v3 Extended Key Usage: 
                TLS Web Client Authentication
            X509v3 Subject Key Identifier: 
                54:E4:36:BB:17:47:D9:DD:D5:43:0D:9D:0F:8B:84:28:46:72:B6:E0
            X509v3 Authority Key Identifier: 
                keyid:40:4E:DB:7F:82:7A:7D:C2:97:CA:E6:8E:20:04:79:BE:F7:EB:CA:B7

            X509v3 Subject Alternative Name: 
                email:provided@email.com
    Signature Algorithm: sha1WithRSAEncryption
         25:5c:b2:d5:8c:28:2e:46:5d:94:1e:03:84:65:54:06:5b:77:
         15:a9:0f:84:a9:08:86:f4:9d:8b:6d:32:92:7e:e1:95:ee:8e:
         1b:8d:74:8b:1f:4e:25:2f:7e:e4:21:f7:12:84:00:1c:d2:cb:
         1b:eb:df:6f:b5:aa:e2:4c:7d:f1:be:92:bf:f5:a9:ce:27:e2:
         53:50:ec:f9:04:be:38:fa:7d:8a:05:9a:29:fb:e9:93:49:53:
         02:53:d3:5d:36:11:0d:f2:82:2d:5a:2c:67:82:00:79:ab:62:
         99:5d:08:03:4b:25:5f:ff:60:e6:4b:f2:c9:60:66:4e:22:53:
         77:f8:9c:d1:71:11:b8:69:35:20:36:ca:e4:13:08:b0:d0:09:
         c9:45:02:a6:13:39:7e:17:66:92:a9:29:9a:c7:f7:2b:8d:49:
         52:91:aa:38:f8:d2:dd:5b:0f:70:a4:65:b2:d5:42:ae:3c:f5:
         74:74:19:ba:86:9d:4d:04:ef:22:e8:94:30:46:05:ba:5f:7a:
         38:6f:f0:6f:58:f1:c1:07:51:e2:20:23:48:df:90:9d:07:07:
         6d:4d:7a:41:c8:7e:46:74:9e:4b:de:8c:06:4d:88:f2:31:b5:
         12:9c:88:c4:da:87:f2:93:f4:66:9f:20:5e:08:2b:e7:54:ad:
         7c:1d:f2:2a:d5:55:59:aa:8f:2d:25:b0:92:fa:7f:9d:0c:64:
         c9:97:bf:52:56:37:50:0d:c4:c7:68:fb:7c:a2:09:c4:18:40:
         83:e3:6b:2d:f7:35:50:f1:f0:5d:5e:b6:53:22:e3:61:a3:d8:
         4e:10:fe:ab:e7:9f:c2:42:c0:96:cf:e2:be:1c:87:0d:86:ac:
         24:11:40:4d:09:e9:ab:a8:40:06:6d:14:ef:a1:1b:14:37:49:
         b8:72:d9:bf:e8:af:0e:50:56:86:57:e4:e1:52:a1:a5:a4:d0:
         35:e0:43:d8:d2:0b:1f:b1:4f:b5:f3:d5:77:bb:ea:e5:c3:f0:
         42:e7:48:50:fe:84:f9:4b:27:53:68:01:3d:07:19:9c:3f:22:
         71:f4:fe:05:47:84:c8:04:3a:83:a5:85:55:9e:2f:19:1a:b1:
         ba:a2:7f:b8:43:c0:08:b1:86:0a:29:cc:cf:44:2a:25:f1:d5:
         4b:c2:87:0c:4c:2b:ac:44:4b:f0:61:98:51:f5:cb:19:46:d4:
         a3:47:7b:df:c5:aa:30:e3:7c:31:8c:76:56:37:9d:88:ba:cb:
         71:bc:60:12:5a:ba:87:1f:d5:bd:c8:66:62:8b:1b:55:67:f7:
         5f:5f:62:c2:5d:6f:92:18:7b:88:05:49:39:97:e3:b8:6c:5d:
         27:7f:c4:e8:70:dd:c9:23
-----BEGIN CERTIFICATE-----
MIIFsTCCA5mgAwIBAgIBKTANBgkqhkiG9w0BAQUFADBqMQswCQYDVQQGEwJSUzEP
MA0GA1UECAwGU2VyYmlhMREwDwYDVQQHDAhCZWxncmFkZTEQMA4GA1UECgwHQ29k
ZVJlZDERMA8GA1UECwwIU2VjdXJpdHkxEjAQBgNVBAMMCUNsaWVudCBDQTAeFw0x
ODAzMzExNTM0MDRaFw0xOTAzMzExNTM0MDRaMDkxETAPBgNVBAoMCENvZGUgUmVk
MREwDwYDVQQLDAhTZWN1cml0eTERMA8GA1UEAwwIdXNlcm5hbWUwggIiMA0GCSqG
SIb3DQEBAQUAA4ICDwAwggIKAoICAQDrQT7OP3zRLtNgztaBpRZH2pTGkx+v4v5o
Kqtc+taeOlcGAaLKCoPvK6M0G+wF7AqnZge0rup6PQuHavMfpzqTh3SGsoErSOu7
TXrf1GlUULzpS9H1bdPuLSGNizjQ+zY+TTrftp2F5/GLe8YyklgbyHMICUckYSGj
YYjaNFqJPLivqEa9+ft0hc+mwa5C+oMjxGf7wu+r0MI3X9bEemPNKDY0EutQARbr
M1hP/HrtwoLKmp3nzQPgnhk1dqClmJjH5U/7dfITOn+ob22zW3UmMu/7EFlr5Npz
R8plO5L7m0IVpNoSLk3wnmMHO1XaPlYNbbg8bsXSehUY7U5lRTWngG9LkQiQcUYA
PEotq/ybG5kuYvecQ+qBjlao9U7bJPP5bTUV8BkYBbzK9CBiJKhndAZHAtogikbz
ZXOcpVOjoTObvw5x2Bl0A3cbl60HD3XGziXemqgAQ3amfzrGlVzIvwlxjns9KAkD
Mxnc8tz8Y9+u5nY7FKp5+e1lhXBhg5Edj2HRdOli/tfHmsRYW5337w+6eXDwR2R+
CnyGL+3etZxN2akYD7xUX8pB1mku6oExOHF2HL+CcEmXLojWhwojEgcyuE394++2
bh+r9LFtjBkDepGEsLtTFodBJLGvlSw12bVF+f6sdcE8nbSBETEKpo92Y46vzxbg
0VVajlYhtwIDAQABo4GSMIGPMA4GA1UdDwEB/wQEAwIFoDAJBgNVHRMEAjAAMBMG
A1UdJQQMMAoGCCsGAQUFBwMCMB0GA1UdDgQWBBRU5Da7F0fZ3dVDDZ0Pi4QoRnK2
4DAfBgNVHSMEGDAWgBRATtt/gnp9wpfK5o4gBHm+9+vKtzAdBgNVHREEFjAUgRJw
cm92aWRlZEBlbWFpbC5jb20wDQYJKoZIhvcNAQEFBQADggIBACVcstWMKC5GXZQe
A4RlVAZbdxWpD4SpCIb0nYttMpJ+4ZXujhuNdIsfTiUvfuQh9xKEABzSyxvr32+1
quJMffG+kr/1qc4n4lNQ7PkEvjj6fYoFmin76ZNJUwJT0102EQ3ygi1aLGeCAHmr
YpldCANLJV//YOZL8slgZk4iU3f4nNFxEbhpNSA2yuQTCLDQCclFAqYTOX4XZpKp
KZrH9yuNSVKRqjj40t1bD3CkZbLVQq489XR0GbqGnU0E7yLolDBGBbpfejhv8G9Y
8cEHUeIgI0jfkJ0HB21NekHIfkZ0nkvejAZNiPIxtRKciMTah/KT9GafIF4IK+dU
rXwd8irVVVmqjy0lsJL6f50MZMmXv1JWN1ANxMdo+3yiCcQYQIPjay33NVDx8F1e
tlMi42Gj2E4Q/qvnn8JCwJbP4r4chw2GrCQRQE0J6auoQAZtFO+hGxQ3Sbhy2b/o
rw5QVoZX5OFSoaWk0DXgQ9jSCx+xT7Xz1Xe76uXD8ELnSFD+hPlLJ1NoAT0HGZw/
InH0/gVHhMgEOoOlhVWeLxkasbqif7hDwAixhgopzM9EKiXx1UvChwxMK6xES/Bh
mFH1yxlG1KNHe9/FqjDjfDGMdlY3nYi6y3G8YBJauocf1b3IZmKLG1Vn919fYsJd
b5IYe4gFSTmX47hsXSd/xOhw3ckj
-----END CERTIFICATE-----
