Certificate:
    Data:
        Version: 3 (0x2)
        Serial Number: 42 (0x2a)
    Signature Algorithm: sha1WithRSAEncryption
        Issuer: C=RS, ST=Serbia, L=Belgrade, O=CodeRed, OU=Security, CN=Client CA
        Validity
            Not Before: Apr  1 12:48:05 2018 GMT
            Not After : Apr  1 12:48:05 2019 GMT
        Subject: O=Code Red, OU=Security, CN=username
        Subject Public Key Info:
            Public Key Algorithm: rsaEncryption
                Public-Key: (4096 bit)
                Modulus:
                    00:fd:51:f7:1a:0e:59:4d:33:5e:88:d1:83:9f:b5:
                    73:7c:c6:dc:6a:0c:c1:f4:e6:f9:f0:a1:3b:2a:a7:
                    77:78:2c:17:5e:ed:3f:a0:38:7d:96:30:25:ae:b0:
                    85:00:87:0a:e6:4d:f5:52:87:53:3a:46:94:1a:f5:
                    0b:ee:a6:21:61:2d:c3:53:dc:d5:2d:2a:84:53:52:
                    34:13:4c:36:d9:f6:f1:97:9b:1b:f2:6d:21:67:d0:
                    9e:ba:9e:51:3c:3c:06:b5:aa:69:ac:7b:19:49:cf:
                    32:63:e3:7b:75:2a:2b:7f:4d:51:e3:1b:54:d8:36:
                    be:da:51:2c:86:66:e3:69:c9:3f:cf:cb:04:69:33:
                    c5:3b:b7:86:7c:e3:7d:bc:da:d4:ed:d8:f6:e8:dd:
                    15:97:da:81:0a:ec:99:34:72:ba:49:bb:a3:44:58:
                    e6:85:08:8d:5b:b1:ac:90:b2:ad:a8:ce:15:6d:a8:
                    3d:27:f7:c7:0a:b0:45:f1:1d:fe:d5:66:31:32:39:
                    de:a3:1a:64:bc:78:fe:73:03:73:34:2d:4b:24:62:
                    3f:0f:10:d4:46:98:5b:3d:6b:aa:a2:91:71:44:9d:
                    93:cb:1e:e3:03:65:ad:4e:34:e2:10:fe:b1:3f:10:
                    2d:10:95:a5:ee:24:f8:9a:40:4f:da:0a:a8:2f:74:
                    20:f7:ac:c8:b6:04:ce:46:0c:35:91:49:2d:07:0c:
                    5b:69:9b:a6:26:8e:41:77:17:71:bd:83:96:52:76:
                    f2:90:dd:c4:4c:81:25:3c:27:08:d0:bf:93:b2:66:
                    68:3c:61:7b:de:09:7c:df:d2:6e:9e:dd:06:d0:52:
                    c9:b0:29:3c:59:16:94:45:b0:e2:88:67:89:b4:8a:
                    a9:8e:3f:89:76:54:b3:59:35:99:7e:98:cc:ae:29:
                    64:db:54:98:c2:18:1d:c5:20:52:98:fe:e4:b3:e4:
                    35:1e:59:de:be:0e:a1:8a:66:19:55:15:cd:ec:53:
                    46:48:ce:3b:26:92:45:41:e8:81:25:c8:eb:35:0c:
                    df:89:50:a3:11:1e:95:0e:73:c7:93:ba:7f:76:c1:
                    46:b2:0f:3e:bd:20:7c:43:e9:27:31:cd:b1:f4:6c:
                    0a:45:10:df:25:27:c1:d0:1e:5f:71:76:35:dd:4c:
                    eb:f0:62:74:af:86:ea:3b:6f:80:10:82:c1:f4:dc:
                    8c:17:ec:69:af:6b:d2:6b:d0:82:13:7e:e1:ac:f8:
                    86:f4:97:08:db:56:a5:bc:b6:3c:98:f3:8c:d9:42:
                    d4:41:0e:5b:35:28:fe:13:a2:f9:c4:0d:41:96:76:
                    50:38:c7:91:cb:e1:72:65:96:ba:32:ca:21:59:e8:
                    de:21:25
                Exponent: 65537 (0x10001)
        X509v3 extensions:
            X509v3 Key Usage: critical
                Digital Signature, Key Encipherment
            X509v3 Basic Constraints: 
                CA:FALSE
            X509v3 Extended Key Usage: 
                TLS Web Client Authentication
            X509v3 Subject Key Identifier: 
                0E:18:6A:8D:38:A8:97:1F:4F:BB:64:7C:DD:D0:22:B3:1A:F9:6A:25
            X509v3 Authority Key Identifier: 
                keyid:40:4E:DB:7F:82:7A:7D:C2:97:CA:E6:8E:20:04:79:BE:F7:EB:CA:B7

            X509v3 Subject Alternative Name: 
                email:provided@email.com
    Signature Algorithm: sha1WithRSAEncryption
         7d:2f:c5:70:0b:8d:a3:40:8b:63:bd:67:b3:7c:44:e9:f4:06:
         ed:b3:9b:a7:1b:c3:02:7e:1e:62:38:d4:c6:24:2b:63:c9:fb:
         cf:b3:70:24:37:8b:40:15:10:83:8e:6f:f4:d5:fe:d6:9b:e6:
         a8:13:67:35:85:44:51:e7:12:10:3e:06:ce:2c:73:59:e3:12:
         d3:f4:d8:db:b8:90:f2:3e:51:a5:11:f1:f1:85:d8:0f:53:9e:
         db:da:1e:7d:7e:10:e0:30:c9:0f:f9:5a:96:b6:36:07:25:3c:
         bb:ab:19:b2:fe:56:6a:6e:cc:7f:04:0e:8a:aa:8d:3c:75:03:
         1f:88:fa:3c:86:4c:aa:95:44:1d:41:f4:a5:31:3f:87:3f:7f:
         2a:a1:f1:58:5a:05:e2:63:f5:f2:98:44:b4:2e:8e:e1:5e:c7:
         e1:aa:65:11:40:02:38:3f:b4:9f:ea:7c:d5:b8:3a:12:f3:74:
         a0:49:60:88:4a:b0:e2:8d:a6:37:9f:24:76:08:69:9b:65:ef:
         64:a8:49:82:51:04:fb:14:ff:b4:e7:e9:43:5b:f2:11:fa:3b:
         8a:d2:1f:a6:d0:ca:84:a1:70:7a:9c:34:b1:e8:ad:1a:91:a7:
         00:47:db:a0:43:91:82:30:ae:00:00:04:e3:a1:9d:66:af:64:
         ee:0d:ea:0b:2c:25:92:6a:69:03:56:69:dd:e0:dc:f8:a3:1d:
         ab:e6:f9:9c:4a:53:25:48:07:54:fb:42:64:64:07:ae:c7:90:
         d1:74:51:35:78:eb:d9:b5:e0:fe:39:30:9a:63:55:39:ca:5e:
         42:b3:e6:89:82:53:53:1d:36:76:8d:65:b9:a9:45:1c:ca:5e:
         c7:7d:d5:fc:6b:a0:aa:f4:56:23:ac:44:81:19:1c:9a:44:41:
         0d:29:6d:19:46:8b:58:37:9c:8d:e8:c2:69:36:2c:f7:3e:26:
         bf:a7:ae:e4:cd:1d:f2:70:6f:2f:2c:1c:76:b6:42:23:48:b5:
         fe:10:a9:70:b4:af:09:6b:b9:47:a1:90:22:58:61:26:02:0f:
         75:4c:51:9b:55:c5:c0:08:8a:17:c7:a4:67:24:4c:86:27:72:
         76:51:cd:d7:2b:2c:95:1c:36:4f:82:4b:14:25:90:13:72:d7:
         70:58:06:b7:da:8e:c2:99:74:7e:72:ff:2d:be:d4:a4:cd:4a:
         f5:07:4d:69:27:4a:4b:14:ef:21:ab:d5:c0:4d:d1:3c:ba:a6:
         b0:f3:a9:27:6d:97:0d:c0:28:36:80:a7:f8:67:b4:df:38:e5:
         f5:33:31:bb:fe:c2:70:f6:1e:da:03:e1:68:b4:73:4e:00:3f:
         8e:20:73:8c:96:c5:e7:c0
-----BEGIN CERTIFICATE-----
MIIFsTCCA5mgAwIBAgIBKjANBgkqhkiG9w0BAQUFADBqMQswCQYDVQQGEwJSUzEP
MA0GA1UECAwGU2VyYmlhMREwDwYDVQQHDAhCZWxncmFkZTEQMA4GA1UECgwHQ29k
ZVJlZDERMA8GA1UECwwIU2VjdXJpdHkxEjAQBgNVBAMMCUNsaWVudCBDQTAeFw0x
ODA0MDExMjQ4MDVaFw0xOTA0MDExMjQ4MDVaMDkxETAPBgNVBAoMCENvZGUgUmVk
MREwDwYDVQQLDAhTZWN1cml0eTERMA8GA1UEAwwIdXNlcm5hbWUwggIiMA0GCSqG
SIb3DQEBAQUAA4ICDwAwggIKAoICAQD9UfcaDllNM16I0YOftXN8xtxqDMH05vnw
oTsqp3d4LBde7T+gOH2WMCWusIUAhwrmTfVSh1M6RpQa9QvupiFhLcNT3NUtKoRT
UjQTTDbZ9vGXmxvybSFn0J66nlE8PAa1qmmsexlJzzJj43t1Kit/TVHjG1TYNr7a
USyGZuNpyT/PywRpM8U7t4Z843282tTt2Pbo3RWX2oEK7Jk0crpJu6NEWOaFCI1b
sayQsq2ozhVtqD0n98cKsEXxHf7VZjEyOd6jGmS8eP5zA3M0LUskYj8PENRGmFs9
a6qikXFEnZPLHuMDZa1ONOIQ/rE/EC0QlaXuJPiaQE/aCqgvdCD3rMi2BM5GDDWR
SS0HDFtpm6YmjkF3F3G9g5ZSdvKQ3cRMgSU8JwjQv5OyZmg8YXveCXzf0m6e3QbQ
UsmwKTxZFpRFsOKIZ4m0iqmOP4l2VLNZNZl+mMyuKWTbVJjCGB3FIFKY/uSz5DUe
Wd6+DqGKZhlVFc3sU0ZIzjsmkkVB6IElyOs1DN+JUKMRHpUOc8eTun92wUayDz69
IHxD6ScxzbH0bApFEN8lJ8HQHl9xdjXdTOvwYnSvhuo7b4AQgsH03IwX7Gmva9Jr
0IITfuGs+Ib0lwjbVqW8tjyY84zZQtRBDls1KP4TovnEDUGWdlA4x5HL4XJllroy
yiFZ6N4hJQIDAQABo4GSMIGPMA4GA1UdDwEB/wQEAwIFoDAJBgNVHRMEAjAAMBMG
A1UdJQQMMAoGCCsGAQUFBwMCMB0GA1UdDgQWBBQOGGqNOKiXH0+7ZHzd0CKzGvlq
JTAfBgNVHSMEGDAWgBRATtt/gnp9wpfK5o4gBHm+9+vKtzAdBgNVHREEFjAUgRJw
cm92aWRlZEBlbWFpbC5jb20wDQYJKoZIhvcNAQEFBQADggIBAH0vxXALjaNAi2O9
Z7N8ROn0Bu2zm6cbwwJ+HmI41MYkK2PJ+8+zcCQ3i0AVEIOOb/TV/tab5qgTZzWF
RFHnEhA+Bs4sc1njEtP02Nu4kPI+UaUR8fGF2A9TntvaHn1+EOAwyQ/5Wpa2Ngcl
PLurGbL+VmpuzH8EDoqqjTx1Ax+I+jyGTKqVRB1B9KUxP4c/fyqh8VhaBeJj9fKY
RLQujuFex+GqZRFAAjg/tJ/qfNW4OhLzdKBJYIhKsOKNpjefJHYIaZtl72SoSYJR
BPsU/7Tn6UNb8hH6O4rSH6bQyoShcHqcNLHorRqRpwBH26BDkYIwrgAABOOhnWav
ZO4N6gssJZJqaQNWad3g3PijHavm+ZxKUyVIB1T7QmRkB67HkNF0UTV469m14P45
MJpjVTnKXkKz5omCU1MdNnaNZbmpRRzKXsd91fxroKr0ViOsRIEZHJpEQQ0pbRlG
i1g3nI3owmk2LPc+Jr+nruTNHfJwby8sHHa2QiNItf4QqXC0rwlruUehkCJYYSYC
D3VMUZtVxcAIihfHpGckTIYncnZRzdcrLJUcNk+CSxQlkBNy13BYBrfajsKZdH5y
/y2+1KTNSvUHTWknSksU7yGr1cBN0Ty6prDzqSdtlw3AKDaAp/hntN845fUzMbv+
wnD2HtoD4Wi0c04AP44gc4yWxefA
-----END CERTIFICATE-----
