Certificate:
    Data:
        Version: 3 (0x2)
        Serial Number: 43 (0x2b)
    Signature Algorithm: sha1WithRSAEncryption
        Issuer: C=RS, ST=Serbia, L=Belgrade, O=CodeRed, OU=Security, CN=Client CA
        Validity
            Not Before: Apr  1 12:48:20 2018 GMT
            Not After : Apr  1 12:48:20 2019 GMT
        Subject: O=Code Red, OU=Security, CN=username
        Subject Public Key Info:
            Public Key Algorithm: rsaEncryption
                Public-Key: (4096 bit)
                Modulus:
                    00:ef:ac:ad:e6:f9:5d:7d:24:40:3c:77:32:23:e2:
                    9f:50:ff:8e:74:f3:59:9f:1b:6b:67:6e:76:5e:a7:
                    1a:16:7d:5b:fd:e0:aa:31:1e:1e:10:1b:1f:8f:41:
                    5c:cd:14:57:b8:09:8f:33:50:0b:a5:0c:7d:fb:d5:
                    ed:fb:f4:6d:d1:9d:36:97:58:2d:af:01:d2:90:1b:
                    d5:db:76:4d:1b:98:92:2d:04:5a:96:27:22:99:ae:
                    65:8e:15:79:10:80:8b:66:a6:7f:91:61:73:5e:52:
                    27:20:6e:99:73:1f:47:4f:cb:8c:b1:79:a2:ba:48:
                    05:80:7e:fd:a0:ef:4a:eb:76:86:af:4b:8d:89:6a:
                    b8:b5:5c:2c:3a:4a:70:10:69:16:93:cd:dd:7d:b7:
                    8e:5f:79:bc:45:72:15:03:6c:bd:a6:ab:e8:d4:05:
                    e6:cb:7f:bf:af:6f:34:ad:a9:68:f8:91:7a:76:f4:
                    1e:f8:50:0c:85:fa:5b:1e:be:16:a0:53:0c:14:4d:
                    99:07:d7:88:1b:fb:d8:50:c5:29:c5:46:a2:10:d9:
                    46:07:c1:a6:d6:95:29:04:e0:f7:38:74:84:19:70:
                    77:c7:08:a8:58:a2:bd:d8:67:72:c7:63:ac:c2:a1:
                    cd:c3:dd:86:80:d8:7e:76:33:81:58:f1:2b:39:d5:
                    8d:50:02:97:94:0b:80:61:5b:cf:61:56:a1:7c:71:
                    a8:50:7d:4e:35:95:2e:9e:91:13:51:2c:a5:30:a2:
                    b4:60:10:93:b0:5f:0a:52:af:3e:f6:2b:42:19:d7:
                    6f:39:64:4a:a4:0d:f0:48:b1:c8:9c:96:d0:ff:b8:
                    59:93:a0:d2:19:4d:1c:b8:37:f6:16:e2:4d:42:17:
                    9a:0b:a8:5b:03:03:71:69:30:34:cf:65:fb:cc:fe:
                    63:86:c7:4f:7d:02:a7:e2:b8:14:81:0c:88:6c:9a:
                    85:fe:5e:b0:bb:5f:9c:a8:2b:d5:f3:4c:b1:56:49:
                    7f:48:eb:49:cf:35:5d:ac:78:ac:05:8e:ae:47:28:
                    6a:5b:09:29:77:67:3b:a8:c0:42:9d:00:6f:10:00:
                    c7:1b:88:f6:3a:ca:5a:80:98:76:d1:88:24:f5:36:
                    28:e7:bd:66:3b:37:97:94:76:f7:a7:2a:a3:14:6b:
                    4b:c7:9c:69:e5:67:70:e8:bb:78:9e:bb:6a:69:cc:
                    35:73:46:2f:60:a0:6b:be:f3:12:d5:dd:0a:02:0a:
                    11:24:0d:c6:d2:d7:67:4e:62:17:c4:ab:3c:d5:87:
                    59:a4:45:e8:71:79:30:b6:0b:79:c9:5c:6f:d1:2b:
                    7b:8c:33:c5:b8:dc:b6:46:60:d5:11:51:8e:64:60:
                    20:1d:3f
                Exponent: 65537 (0x10001)
        X509v3 extensions:
            X509v3 Key Usage: critical
                Digital Signature, Key Encipherment
            X509v3 Basic Constraints: 
                CA:FALSE
            X509v3 Extended Key Usage: 
                TLS Web Client Authentication
            X509v3 Subject Key Identifier: 
                15:0A:96:09:CE:F4:9A:41:FD:22:FC:F3:11:01:A4:2C:46:A1:02:A2
            X509v3 Authority Key Identifier: 
                keyid:40:4E:DB:7F:82:7A:7D:C2:97:CA:E6:8E:20:04:79:BE:F7:EB:CA:B7

            X509v3 Subject Alternative Name: 
                email:provided@email.com
    Signature Algorithm: sha1WithRSAEncryption
         1d:2f:51:ad:62:2b:90:d7:ea:43:6b:15:98:3c:d3:7f:74:19:
         2d:95:32:f0:15:31:4c:fd:b7:3b:38:c5:3e:3a:0e:8d:98:96:
         6c:77:d1:28:47:32:ae:89:ba:a6:b6:11:13:4a:79:aa:f1:66:
         fb:54:10:7c:e7:8c:95:c2:ca:35:43:57:d5:5e:bb:7d:a9:a9:
         cd:37:50:25:55:0e:3c:e9:71:0d:b5:14:bb:65:c5:d3:19:86:
         f1:cb:29:93:89:bf:90:ac:78:4d:d1:68:64:7b:20:5c:e1:e4:
         8b:cb:be:b1:b2:b3:ee:15:1c:fa:4e:88:c9:cc:79:4a:ae:2a:
         6c:4e:b3:67:c3:cd:19:3a:50:dc:10:04:86:d7:be:c3:8a:26:
         cf:57:0a:62:68:e0:5d:13:89:47:fe:c0:09:12:66:5d:ea:0a:
         63:72:65:93:23:2a:5e:fb:37:fb:2e:75:e6:ff:a8:74:94:d6:
         d6:11:77:c2:0e:23:47:b8:21:03:09:00:93:9a:15:48:6f:40:
         cb:08:1c:f5:ba:bc:72:3a:4e:5f:fe:cc:a9:53:48:cd:11:3c:
         fe:05:4e:a2:7c:ff:62:fe:e8:e7:1a:f2:07:bf:ce:6b:df:8f:
         40:18:c9:67:2b:f3:92:82:6c:57:10:8e:9f:bc:24:1a:d7:87:
         bf:a2:36:cf:65:67:1a:e5:05:1a:6a:4c:0a:a9:78:bc:d4:33:
         3f:d6:2a:a6:bb:fc:96:e8:50:67:52:99:4b:aa:ad:b8:57:50:
         a2:fb:ed:ec:99:cf:6c:0a:d2:93:fb:4d:18:e7:61:31:44:a5:
         2e:4e:32:bf:3a:f2:5f:af:97:73:63:76:b5:6b:e0:9a:83:cb:
         78:6f:9f:8d:e9:72:28:c6:ab:e3:9b:e1:62:48:b9:99:ae:48:
         da:0c:3a:b9:2d:cb:a0:f5:d3:f3:bb:29:53:f3:53:a8:7b:fc:
         cd:a7:68:5d:71:89:13:bf:c3:f8:34:e8:95:87:7f:37:9f:cc:
         b1:b7:a1:4d:29:52:f3:d5:00:5a:5d:25:f8:ea:3d:80:b4:9d:
         a7:1d:41:fe:38:08:c0:1f:87:a9:e1:5a:c2:1b:50:c1:ff:02:
         e0:6a:cd:0d:81:7c:f6:c1:98:7a:5a:56:a9:af:21:e0:50:ea:
         47:c0:fe:c7:c8:31:e1:45:c7:0d:aa:6e:aa:be:eb:24:d8:e8:
         73:10:31:c8:40:84:eb:dd:7a:b0:9b:47:5e:02:dd:3a:ab:db:
         a3:c2:7b:2d:01:eb:0d:0e:93:2d:71:01:f7:1b:8d:25:52:6c:
         b6:7f:d1:42:06:cf:bc:1f:61:aa:38:b2:11:7c:73:57:e3:85:
         45:ff:cc:4e:54:c0:d8:c3
-----BEGIN CERTIFICATE-----
MIIFsTCCA5mgAwIBAgIBKzANBgkqhkiG9w0BAQUFADBqMQswCQYDVQQGEwJSUzEP
MA0GA1UECAwGU2VyYmlhMREwDwYDVQQHDAhCZWxncmFkZTEQMA4GA1UECgwHQ29k
ZVJlZDERMA8GA1UECwwIU2VjdXJpdHkxEjAQBgNVBAMMCUNsaWVudCBDQTAeFw0x
ODA0MDExMjQ4MjBaFw0xOTA0MDExMjQ4MjBaMDkxETAPBgNVBAoMCENvZGUgUmVk
MREwDwYDVQQLDAhTZWN1cml0eTERMA8GA1UEAwwIdXNlcm5hbWUwggIiMA0GCSqG
SIb3DQEBAQUAA4ICDwAwggIKAoICAQDvrK3m+V19JEA8dzIj4p9Q/45081mfG2tn
bnZepxoWfVv94KoxHh4QGx+PQVzNFFe4CY8zUAulDH371e379G3RnTaXWC2vAdKQ
G9Xbdk0bmJItBFqWJyKZrmWOFXkQgItmpn+RYXNeUicgbplzH0dPy4yxeaK6SAWA
fv2g70rrdoavS42Jari1XCw6SnAQaRaTzd19t45febxFchUDbL2mq+jUBebLf7+v
bzStqWj4kXp29B74UAyF+lsevhagUwwUTZkH14gb+9hQxSnFRqIQ2UYHwabWlSkE
4Pc4dIQZcHfHCKhYor3YZ3LHY6zCoc3D3YaA2H52M4FY8Ss51Y1QApeUC4BhW89h
VqF8cahQfU41lS6ekRNRLKUworRgEJOwXwpSrz72K0IZ1285ZEqkDfBIscicltD/
uFmToNIZTRy4N/YW4k1CF5oLqFsDA3FpMDTPZfvM/mOGx099AqfiuBSBDIhsmoX+
XrC7X5yoK9XzTLFWSX9I60nPNV2seKwFjq5HKGpbCSl3ZzuowEKdAG8QAMcbiPY6
ylqAmHbRiCT1NijnvWY7N5eUdvenKqMUa0vHnGnlZ3Dou3ieu2ppzDVzRi9goGu+
8xLV3QoCChEkDcbS12dOYhfEqzzVh1mkRehxeTC2C3nJXG/RK3uMM8W43LZGYNUR
UY5kYCAdPwIDAQABo4GSMIGPMA4GA1UdDwEB/wQEAwIFoDAJBgNVHRMEAjAAMBMG
A1UdJQQMMAoGCCsGAQUFBwMCMB0GA1UdDgQWBBQVCpYJzvSaQf0i/PMRAaQsRqEC
ojAfBgNVHSMEGDAWgBRATtt/gnp9wpfK5o4gBHm+9+vKtzAdBgNVHREEFjAUgRJw
cm92aWRlZEBlbWFpbC5jb20wDQYJKoZIhvcNAQEFBQADggIBAB0vUa1iK5DX6kNr
FZg80390GS2VMvAVMUz9tzs4xT46Do2Ylmx30ShHMq6Juqa2ERNKearxZvtUEHzn
jJXCyjVDV9Veu32pqc03UCVVDjzpcQ21FLtlxdMZhvHLKZOJv5CseE3RaGR7IFzh
5IvLvrGys+4VHPpOiMnMeUquKmxOs2fDzRk6UNwQBIbXvsOKJs9XCmJo4F0TiUf+
wAkSZl3qCmNyZZMjKl77N/sudeb/qHSU1tYRd8IOI0e4IQMJAJOaFUhvQMsIHPW6
vHI6Tl/+zKlTSM0RPP4FTqJ8/2L+6Oca8ge/zmvfj0AYyWcr85KCbFcQjp+8JBrX
h7+iNs9lZxrlBRpqTAqpeLzUMz/WKqa7/JboUGdSmUuqrbhXUKL77eyZz2wK0pP7
TRjnYTFEpS5OMr868l+vl3NjdrVr4JqDy3hvn43pcijGq+Ob4WJIuZmuSNoMOrkt
y6D10/O7KVPzU6h7/M2naF1xiRO/w/g06JWHfzefzLG3oU0pUvPVAFpdJfjqPYC0
nacdQf44CMAfh6nhWsIbUMH/AuBqzQ2BfPbBmHpaVqmvIeBQ6kfA/sfIMeFFxw2q
bqq+6yTY6HMQMchAhOvderCbR14C3Tqr26PCey0B6w0Oky1xAfcbjSVSbLZ/0UIG
z7wfYao4shF8c1fjhUX/zE5UwNjD
-----END CERTIFICATE-----
