Certificate:
    Data:
        Version: 3 (0x2)
        Serial Number: 44 (0x2c)
    Signature Algorithm: sha1WithRSAEncryption
        Issuer: C=RS, ST=Serbia, L=Belgrade, O=CodeRed, OU=Security, CN=Client CA
        Validity
            Not Before: Apr  1 12:49:07 2018 GMT
            Not After : Apr  1 12:49:07 2019 GMT
        Subject: O=Code Red, OU=Security, CN=username
        Subject Public Key Info:
            Public Key Algorithm: rsaEncryption
                Public-Key: (4096 bit)
                Modulus:
                    00:c3:dd:aa:3f:de:28:ec:cc:2a:2a:26:66:05:95:
                    bb:33:3f:cd:99:46:0a:7f:31:46:ac:5e:71:d0:8e:
                    4b:4f:36:b6:88:18:ac:6c:c2:b4:d0:2c:2b:71:39:
                    a7:ff:f7:a1:c6:dc:f6:db:94:20:ec:a6:ba:70:1c:
                    3b:b4:33:9d:bb:25:b8:8c:35:5b:97:f7:fa:b8:1e:
                    61:e4:9b:f1:3a:b1:b4:b4:b0:a1:87:be:46:90:c8:
                    20:87:39:f6:64:42:e5:60:ba:b7:b8:57:49:f1:5f:
                    e3:1c:33:3d:f1:c4:e1:2b:45:f1:b0:1c:c2:38:a6:
                    ae:14:2c:6c:7a:15:49:b3:5b:57:89:39:f5:0e:e9:
                    9a:2c:fc:5a:f0:97:dc:d7:84:bd:d5:b9:18:3c:a0:
                    04:7f:40:44:f5:a4:be:03:73:b8:98:e1:d0:ef:fe:
                    02:5d:40:31:17:31:d6:8f:38:5b:87:45:4f:a0:cd:
                    a3:42:ca:e4:39:82:02:31:37:40:b8:d1:82:23:ec:
                    f5:a5:c0:9a:c4:35:46:06:cb:21:98:f5:54:ad:de:
                    fb:fe:a8:8d:cf:99:95:ea:37:6a:a5:c3:89:24:82:
                    95:92:c2:17:7f:df:38:55:0e:41:ee:37:8b:21:ea:
                    63:dc:95:86:c7:8d:28:9f:b4:84:bd:88:e3:9e:3c:
                    94:7b:e5:b4:bb:d6:45:d6:d4:de:fb:4d:14:48:74:
                    e4:36:99:58:4e:3c:4a:19:f9:d3:d4:20:e0:9f:73:
                    5e:3b:40:07:29:b1:78:d4:a0:88:a1:1a:52:79:f8:
                    ef:22:df:71:48:b0:c6:52:20:40:ce:c9:12:6f:9e:
                    07:9f:90:15:4c:4a:96:b6:35:f8:b2:ee:58:4b:a6:
                    bf:e1:a7:95:26:d5:e0:6d:bc:cc:37:5b:f9:b6:17:
                    c7:fc:53:a7:07:2d:83:62:f9:ca:e7:4a:53:17:89:
                    53:f8:1b:4f:cf:8c:e7:29:f6:02:dc:9f:ea:b4:06:
                    a9:92:92:80:59:72:6f:da:9e:5e:b5:9a:31:29:c4:
                    88:46:cd:8f:97:cc:d9:7e:69:73:4e:b7:2c:4a:f7:
                    7f:cd:cf:aa:4f:86:a3:ae:59:8a:c8:21:0f:08:8b:
                    2e:64:39:62:b4:23:4a:81:82:4b:52:9d:8d:5d:7c:
                    53:cb:7d:6f:e4:27:bb:2d:d2:f3:39:56:7d:5d:9f:
                    4e:85:8f:c7:2d:a5:6a:99:a0:4d:d8:cb:03:21:d3:
                    08:44:a4:52:1d:f8:02:82:d7:bd:72:7a:ed:2f:85:
                    ef:d4:ab:2b:bc:f0:50:fe:f4:5b:08:95:21:12:9f:
                    54:17:b4:fc:29:3a:f0:12:bb:73:1e:67:4f:fc:eb:
                    94:90:77
                Exponent: 65537 (0x10001)
        X509v3 extensions:
            X509v3 Key Usage: critical
                Digital Signature, Key Encipherment
            X509v3 Basic Constraints: 
                CA:FALSE
            X509v3 Extended Key Usage: 
                TLS Web Client Authentication
            X509v3 Subject Key Identifier: 
                89:B5:45:3D:C6:CF:26:D6:AD:F6:E5:46:62:38:37:49:0F:56:3F:9B
            X509v3 Authority Key Identifier: 
                keyid:40:4E:DB:7F:82:7A:7D:C2:97:CA:E6:8E:20:04:79:BE:F7:EB:CA:B7

            X509v3 Subject Alternative Name: 
                email:provided@email.com
    Signature Algorithm: sha1WithRSAEncryption
         69:0a:a9:97:62:b4:f2:7b:60:a8:35:b2:2e:39:73:f7:e3:2f:
         6e:dc:3e:c6:d7:de:61:59:db:2f:13:e4:72:dc:ba:51:6e:b6:
         5b:40:ba:b6:03:d7:5a:06:cb:21:8c:f7:c2:73:92:87:4a:d3:
         6a:3b:e8:1c:a7:01:d5:d6:0f:1b:9e:b6:05:44:55:79:e5:42:
         13:24:7f:51:11:69:61:07:d6:84:8c:c1:22:49:59:fa:3d:e3:
         fd:79:a8:73:7d:4f:8b:9b:97:99:9f:66:af:8f:2b:ad:2b:85:
         a3:7e:48:74:63:b7:27:90:83:f0:25:a9:b3:9f:c7:f4:91:8f:
         ff:4c:82:a5:c0:6e:77:52:21:9f:c8:30:22:6c:e8:8b:89:f1:
         b6:4f:c4:4b:7b:b0:91:32:b5:42:09:1f:28:25:1a:63:2f:30:
         62:0c:df:2f:32:d1:3f:68:13:51:67:12:4e:f2:b5:3a:5e:71:
         3d:34:7d:cb:0c:d2:47:56:78:44:d8:d1:03:d3:1d:9d:0c:9d:
         f3:ec:7e:db:44:55:58:d2:60:04:ca:c8:52:29:9c:9d:81:5f:
         d7:01:6f:48:df:c0:d4:ac:c1:52:f2:d6:a9:18:1f:08:e5:02:
         45:5f:71:4b:7c:f7:e8:49:9a:4f:9e:a8:4b:8e:96:98:14:01:
         4c:0f:5f:11:28:cf:75:cd:80:3d:a2:32:00:78:3d:b8:a2:d4:
         92:45:73:63:52:ee:6b:4d:58:0e:72:b5:0d:a0:f7:94:82:71:
         d7:31:9a:6a:58:76:de:d1:7a:14:6a:0f:47:1f:c8:7b:8e:88:
         1d:8e:7f:1e:fa:a3:cc:d3:ef:ea:e3:9e:fe:00:f7:fd:7b:1f:
         ac:63:ad:9f:a6:5d:eb:0a:17:f2:19:30:c5:b5:8c:0e:25:53:
         11:15:f2:6c:fd:db:a4:4b:68:ad:56:e9:96:56:8a:51:cd:f7:
         0a:96:b5:bb:8b:f0:65:c3:6c:8e:88:d6:35:05:60:ab:84:f9:
         64:94:df:03:6e:ce:2c:a6:f1:89:fb:ec:0a:02:89:55:bd:39:
         90:51:dd:d1:5a:ef:24:ad:8a:ab:00:43:89:4a:2d:93:0d:24:
         a1:a6:01:a0:52:96:7e:e1:9a:d8:e0:ef:99:7d:68:d7:45:ad:
         d8:65:ac:0a:c8:3b:bd:42:91:62:93:31:15:20:3d:9a:cf:6c:
         8a:d6:a4:db:75:04:47:fe:40:51:46:4e:fe:f6:e4:94:26:07:
         28:10:60:7d:18:2e:1e:3d:b4:2d:1f:a3:87:e7:7a:58:a6:bc:
         1c:07:eb:a4:e5:66:fd:df:17:55:82:38:86:3f:6d:09:b3:24:
         67:3b:8f:58:92:2c:83:51
-----BEGIN CERTIFICATE-----
MIIFsTCCA5mgAwIBAgIBLDANBgkqhkiG9w0BAQUFADBqMQswCQYDVQQGEwJSUzEP
MA0GA1UECAwGU2VyYmlhMREwDwYDVQQHDAhCZWxncmFkZTEQMA4GA1UECgwHQ29k
ZVJlZDERMA8GA1UECwwIU2VjdXJpdHkxEjAQBgNVBAMMCUNsaWVudCBDQTAeFw0x
ODA0MDExMjQ5MDdaFw0xOTA0MDExMjQ5MDdaMDkxETAPBgNVBAoMCENvZGUgUmVk
MREwDwYDVQQLDAhTZWN1cml0eTERMA8GA1UEAwwIdXNlcm5hbWUwggIiMA0GCSqG
SIb3DQEBAQUAA4ICDwAwggIKAoICAQDD3ao/3ijszCoqJmYFlbszP82ZRgp/MUas
XnHQjktPNraIGKxswrTQLCtxOaf/96HG3PbblCDsprpwHDu0M527JbiMNVuX9/q4
HmHkm/E6sbS0sKGHvkaQyCCHOfZkQuVgure4V0nxX+McMz3xxOErRfGwHMI4pq4U
LGx6FUmzW1eJOfUO6Zos/Frwl9zXhL3VuRg8oAR/QET1pL4Dc7iY4dDv/gJdQDEX
MdaPOFuHRU+gzaNCyuQ5ggIxN0C40YIj7PWlwJrENUYGyyGY9VSt3vv+qI3PmZXq
N2qlw4kkgpWSwhd/3zhVDkHuN4sh6mPclYbHjSiftIS9iOOePJR75bS71kXW1N77
TRRIdOQ2mVhOPEoZ+dPUIOCfc147QAcpsXjUoIihGlJ5+O8i33FIsMZSIEDOyRJv
ngefkBVMSpa2Nfiy7lhLpr/hp5Um1eBtvMw3W/m2F8f8U6cHLYNi+crnSlMXiVP4
G0/PjOcp9gLcn+q0BqmSkoBZcm/anl61mjEpxIhGzY+XzNl+aXNOtyxK93/Nz6pP
hqOuWYrIIQ8Iiy5kOWK0I0qBgktSnY1dfFPLfW/kJ7st0vM5Vn1dn06Fj8ctpWqZ
oE3YywMh0whEpFId+AKC171yeu0vhe/Uqyu88FD+9FsIlSESn1QXtPwpOvASu3Me
Z0/865SQdwIDAQABo4GSMIGPMA4GA1UdDwEB/wQEAwIFoDAJBgNVHRMEAjAAMBMG
A1UdJQQMMAoGCCsGAQUFBwMCMB0GA1UdDgQWBBSJtUU9xs8m1q325UZiODdJD1Y/
mzAfBgNVHSMEGDAWgBRATtt/gnp9wpfK5o4gBHm+9+vKtzAdBgNVHREEFjAUgRJw
cm92aWRlZEBlbWFpbC5jb20wDQYJKoZIhvcNAQEFBQADggIBAGkKqZditPJ7YKg1
si45c/fjL27cPsbX3mFZ2y8T5HLculFutltAurYD11oGyyGM98JzkodK02o76Byn
AdXWDxuetgVEVXnlQhMkf1ERaWEH1oSMwSJJWfo94/15qHN9T4ubl5mfZq+PK60r
haN+SHRjtyeQg/AlqbOfx/SRj/9MgqXAbndSIZ/IMCJs6IuJ8bZPxEt7sJEytUIJ
HyglGmMvMGIM3y8y0T9oE1FnEk7ytTpecT00fcsM0kdWeETY0QPTHZ0MnfPsfttE
VVjSYATKyFIpnJ2BX9cBb0jfwNSswVLy1qkYHwjlAkVfcUt89+hJmk+eqEuOlpgU
AUwPXxEoz3XNgD2iMgB4Pbii1JJFc2NS7mtNWA5ytQ2g95SCcdcxmmpYdt7RehRq
D0cfyHuOiB2Ofx76o8zT7+rjnv4A9/17H6xjrZ+mXesKF/IZMMW1jA4lUxEV8mz9
26RLaK1W6ZZWilHN9wqWtbuL8GXDbI6I1jUFYKuE+WSU3wNuziym8Yn77AoCiVW9
OZBR3dFa7yStiqsAQ4lKLZMNJKGmAaBSln7hmtjg75l9aNdFrdhlrArIO71CkWKT
MRUgPZrPbIrWpNt1BEf+QFFGTv725JQmBygQYH0YLh49tC0fo4fnelimvBwH66Tl
Zv3fF1WCOIY/bQmzJGc7j1iSLINR
-----END CERTIFICATE-----
