Certificate:
    Data:
        Version: 3 (0x2)
        Serial Number: 45 (0x2d)
    Signature Algorithm: sha1WithRSAEncryption
        Issuer: C=RS, ST=Serbia, L=Belgrade, O=CodeRed, OU=Security, CN=Client CA
        Validity
            Not Before: Apr  1 12:50:21 2018 GMT
            Not After : Apr  1 12:50:21 2019 GMT
        Subject: O=Code Red, OU=Security, CN=username
        Subject Public Key Info:
            Public Key Algorithm: rsaEncryption
                Public-Key: (4096 bit)
                Modulus:
                    00:d5:fa:50:9b:11:d8:54:94:b8:84:d9:e2:d4:1a:
                    e9:67:2a:ed:d3:48:11:bf:ec:30:56:ad:f8:ca:65:
                    90:38:9e:01:42:3f:0a:50:28:7d:05:1b:65:92:a7:
                    75:7b:71:fe:92:ed:de:9a:24:95:1c:d4:c7:96:f5:
                    b3:9f:80:3b:41:7a:1e:ec:71:88:c7:6b:5d:60:0a:
                    7b:22:47:15:56:15:d2:c0:f7:20:15:46:ff:bf:a6:
                    ef:5a:75:ab:01:ba:59:df:65:b7:90:c0:e6:74:72:
                    52:ad:1a:bc:8a:e8:42:f8:c0:51:64:3d:2f:dc:e8:
                    cf:92:cd:9b:bb:af:42:89:fd:90:b7:c1:11:cb:2c:
                    50:4e:de:2f:3b:46:c5:8f:47:12:04:04:4d:84:07:
                    bf:5b:99:af:b8:21:6d:f8:7b:c9:c0:01:81:ef:c1:
                    62:34:9d:49:53:0a:69:a5:c8:ca:e0:53:74:21:ce:
                    3f:56:b4:6a:c4:16:94:de:e0:9f:cd:2f:1e:fe:55:
                    22:92:ba:53:3c:b2:91:53:6a:d4:71:ee:cb:75:76:
                    d4:30:bd:6a:97:fc:dd:76:ee:22:4f:7f:4a:19:8c:
                    05:37:ef:bc:b9:b1:87:b9:d3:78:6a:6d:cb:37:be:
                    ef:8b:17:ab:59:5c:c9:1b:50:b9:09:4f:e5:9b:95:
                    d2:09:c5:0b:d0:bb:2e:fd:90:ff:d9:f9:bd:9b:5a:
                    63:36:7e:d0:2d:2c:c9:2f:62:8d:52:40:3f:6b:6e:
                    d7:99:81:f9:25:a8:e9:b1:8e:c7:84:0a:e6:f1:e4:
                    12:2f:68:1e:fd:90:7d:42:b0:c5:7f:0a:02:fb:09:
                    d1:a1:46:bd:22:4e:2d:ad:2d:b9:25:3d:53:44:66:
                    9e:a2:0b:22:65:71:84:98:18:35:26:bd:2b:02:62:
                    7d:b9:7f:1f:a7:73:4f:48:46:bc:16:65:19:ad:0a:
                    78:b4:4b:cc:c2:0e:4b:24:5a:59:f4:3d:cd:4b:b0:
                    9e:af:61:99:c5:a4:20:34:31:2e:b6:ec:3f:a3:23:
                    da:43:a0:d6:fb:d8:62:f9:62:f7:66:35:a3:6f:78:
                    2b:94:d3:9d:cd:49:2d:25:3a:dc:85:49:ae:af:25:
                    d0:0a:b8:b1:dd:06:b6:bd:48:b8:e9:ee:ce:f9:a6:
                    20:c1:90:38:f3:b2:b2:c8:22:54:fb:b8:1d:6e:68:
                    8f:16:50:6e:92:bb:6d:1d:b3:48:9e:17:47:10:e5:
                    1d:c2:7a:25:66:a2:b4:69:d3:84:fe:7e:c2:e0:89:
                    bd:25:ff:cb:d3:eb:e7:7e:55:51:3c:67:13:70:62:
                    a8:2b:8f:ed:f0:87:2a:ef:88:25:f3:13:08:7f:ca:
                    74:42:6b
                Exponent: 65537 (0x10001)
        X509v3 extensions:
            X509v3 Key Usage: critical
                Digital Signature, Key Encipherment
            X509v3 Basic Constraints: 
                CA:FALSE
            X509v3 Extended Key Usage: 
                TLS Web Client Authentication
            X509v3 Subject Key Identifier: 
                9E:E1:0E:C4:A4:0B:89:59:E0:EE:BF:7E:05:63:16:57:2F:B3:66:FD
            X509v3 Authority Key Identifier: 
                keyid:40:4E:DB:7F:82:7A:7D:C2:97:CA:E6:8E:20:04:79:BE:F7:EB:CA:B7

            X509v3 Subject Alternative Name: 
                email:provided@email.com
    Signature Algorithm: sha1WithRSAEncryption
         1d:46:5d:33:6e:68:3a:d1:47:ef:7a:c0:a3:c1:bb:63:81:01:
         72:4e:5a:0b:23:32:6d:12:34:8e:4f:de:7f:11:02:8c:cd:2a:
         1f:17:98:53:b6:15:61:00:bf:7b:7b:c9:94:ce:ce:f3:ce:8b:
         82:a3:41:4b:0e:90:1b:c4:15:62:04:34:30:19:94:e5:f8:8b:
         49:41:92:74:5c:64:c2:89:47:70:e5:fd:e1:fa:5c:37:22:7d:
         50:77:d0:28:bb:42:08:53:a4:4a:2b:60:c0:ec:7f:8d:6d:3c:
         18:82:21:d5:3c:6c:37:a9:e5:73:bf:c1:1f:4d:31:24:06:03:
         ff:07:6f:a1:7e:ca:7e:b0:a1:ad:0d:04:3d:90:ed:1e:97:e4:
         ee:e8:78:95:32:58:b7:27:75:23:7e:92:cb:73:e6:82:db:76:
         dc:49:52:db:09:fb:f3:e9:39:b9:05:80:51:c6:48:99:0d:29:
         05:b7:20:71:be:4f:8e:95:e7:87:ca:91:21:ae:64:47:23:95:
         62:77:05:da:6d:bb:b8:46:6d:e5:cf:54:ca:ab:61:d5:13:7a:
         26:76:b3:8e:78:99:1e:2e:ce:82:45:dd:b6:a5:3d:ab:56:b5:
         4b:31:3b:1f:ea:32:0f:7b:65:af:fc:a0:ef:5a:bc:07:49:62:
         1f:c9:bb:b5:96:54:02:a7:1a:ea:16:f5:af:db:58:d3:76:73:
         af:9e:6a:77:24:a3:6e:9e:8a:43:fe:fc:e0:a8:d7:32:6e:5c:
         5e:a6:1b:91:37:90:5b:d7:8b:ad:13:e7:b4:a6:91:cb:22:ff:
         6e:fe:e0:9d:85:9c:5f:8c:50:1e:cc:32:76:66:a3:5c:cb:46:
         a1:e6:dd:f1:22:d0:1c:00:14:0d:f1:fc:27:46:c3:39:93:41:
         cd:ba:8b:60:8b:b4:47:f9:a7:37:61:f3:21:aa:96:30:e2:ec:
         d8:53:67:1b:0b:92:ff:e8:06:c7:0e:6d:ae:92:8e:4b:74:1f:
         ac:9b:f7:aa:d9:53:9e:1f:51:ac:e7:03:94:60:ab:aa:3f:29:
         84:82:a3:93:5e:a5:67:3a:55:10:fa:c6:28:cb:9a:f3:d9:62:
         ee:cc:1c:d7:46:9b:18:31:36:9c:3d:59:b1:a4:3c:cd:4c:03:
         35:06:68:e2:fc:e5:6d:02:d4:89:8a:84:79:74:a2:80:38:00:
         ab:3a:56:f1:f8:16:2b:37:1a:f8:33:1b:fe:73:83:bb:94:3a:
         f7:f1:b5:38:7e:07:a6:86:b9:22:27:d7:b2:20:b5:e2:9e:b3:
         16:17:8b:00:b2:d9:8c:1d:87:3c:7b:e2:5e:30:da:65:c8:46:
         60:07:49:98:f4:9f:f4:22
-----BEGIN CERTIFICATE-----
MIIFsTCCA5mgAwIBAgIBLTANBgkqhkiG9w0BAQUFADBqMQswCQYDVQQGEwJSUzEP
MA0GA1UECAwGU2VyYmlhMREwDwYDVQQHDAhCZWxncmFkZTEQMA4GA1UECgwHQ29k
ZVJlZDERMA8GA1UECwwIU2VjdXJpdHkxEjAQBgNVBAMMCUNsaWVudCBDQTAeFw0x
ODA0MDExMjUwMjFaFw0xOTA0MDExMjUwMjFaMDkxETAPBgNVBAoMCENvZGUgUmVk
MREwDwYDVQQLDAhTZWN1cml0eTERMA8GA1UEAwwIdXNlcm5hbWUwggIiMA0GCSqG
SIb3DQEBAQUAA4ICDwAwggIKAoICAQDV+lCbEdhUlLiE2eLUGulnKu3TSBG/7DBW
rfjKZZA4ngFCPwpQKH0FG2WSp3V7cf6S7d6aJJUc1MeW9bOfgDtBeh7scYjHa11g
CnsiRxVWFdLA9yAVRv+/pu9adasBulnfZbeQwOZ0clKtGryK6EL4wFFkPS/c6M+S
zZu7r0KJ/ZC3wRHLLFBO3i87RsWPRxIEBE2EB79bma+4IW34e8nAAYHvwWI0nUlT
CmmlyMrgU3Qhzj9WtGrEFpTe4J/NLx7+VSKSulM8spFTatRx7st1dtQwvWqX/N12
7iJPf0oZjAU377y5sYe503hqbcs3vu+LF6tZXMkbULkJT+WbldIJxQvQuy79kP/Z
+b2bWmM2ftAtLMkvYo1SQD9rbteZgfklqOmxjseECubx5BIvaB79kH1CsMV/CgL7
CdGhRr0iTi2tLbklPVNEZp6iCyJlcYSYGDUmvSsCYn25fx+nc09IRrwWZRmtCni0
S8zCDkskWln0Pc1LsJ6vYZnFpCA0MS627D+jI9pDoNb72GL5YvdmNaNveCuU053N
SS0lOtyFSa6vJdAKuLHdBra9SLjp7s75piDBkDjzsrLIIlT7uB1uaI8WUG6Su20d
s0ieF0cQ5R3CeiVmorRp04T+fsLgib0l/8vT6+d+VVE8ZxNwYqgrj+3whyrviCXz
Ewh/ynRCawIDAQABo4GSMIGPMA4GA1UdDwEB/wQEAwIFoDAJBgNVHRMEAjAAMBMG
A1UdJQQMMAoGCCsGAQUFBwMCMB0GA1UdDgQWBBSe4Q7EpAuJWeDuv34FYxZXL7Nm
/TAfBgNVHSMEGDAWgBRATtt/gnp9wpfK5o4gBHm+9+vKtzAdBgNVHREEFjAUgRJw
cm92aWRlZEBlbWFpbC5jb20wDQYJKoZIhvcNAQEFBQADggIBAB1GXTNuaDrRR+96
wKPBu2OBAXJOWgsjMm0SNI5P3n8RAozNKh8XmFO2FWEAv3t7yZTOzvPOi4KjQUsO
kBvEFWIENDAZlOX4i0lBknRcZMKJR3Dl/eH6XDcifVB30Ci7QghTpEorYMDsf41t
PBiCIdU8bDep5XO/wR9NMSQGA/8Hb6F+yn6woa0NBD2Q7R6X5O7oeJUyWLcndSN+
kstz5oLbdtxJUtsJ+/PpObkFgFHGSJkNKQW3IHG+T46V54fKkSGuZEcjlWJ3Bdpt
u7hGbeXPVMqrYdUTeiZ2s454mR4uzoJF3balPatWtUsxOx/qMg97Za/8oO9avAdJ
Yh/Ju7WWVAKnGuoW9a/bWNN2c6+eancko26eikP+/OCo1zJuXF6mG5E3kFvXi60T
57Smkcsi/27+4J2FnF+MUB7MMnZmo1zLRqHm3fEi0BwAFA3x/CdGwzmTQc26i2CL
tEf5pzdh8yGqljDi7NhTZxsLkv/oBscOba6Sjkt0H6yb96rZU54fUaznA5Rgq6o/
KYSCo5NepWc6VRD6xijLmvPZYu7MHNdGmxgxNpw9WbGkPM1MAzUGaOL85W0C1ImK
hHl0ooA4AKs6VvH4Fis3GvgzG/5zg7uUOvfxtTh+B6aGuSIn17IgteKesxYXiwCy
2Ywdhzx74l4w2mXIRmAHSZj0n/Qi
-----END CERTIFICATE-----
