Certificate:
    Data:
        Version: 3 (0x2)
        Serial Number: 46 (0x2e)
    Signature Algorithm: sha1WithRSAEncryption
        Issuer: C=RS, ST=Serbia, L=Belgrade, O=CodeRed, OU=Security, CN=Client CA
        Validity
            Not Before: Apr  1 12:56:49 2018 GMT
            Not After : Apr  1 12:56:49 2019 GMT
        Subject: O=Code Red, OU=Security, CN=username
        Subject Public Key Info:
            Public Key Algorithm: rsaEncryption
                Public-Key: (4096 bit)
                Modulus:
                    00:e9:0e:51:ce:06:25:f6:81:6e:30:cc:05:08:8d:
                    f8:23:e8:ee:64:8a:b0:cc:af:28:2c:05:e3:41:d9:
                    d4:68:95:f9:66:51:99:3f:81:fc:01:a8:41:af:7f:
                    c6:8a:ca:9b:6c:2a:27:d2:c2:18:80:74:45:59:dc:
                    14:62:0a:9d:63:25:b2:25:c8:94:5a:59:b2:06:c6:
                    35:db:e8:a8:cf:0f:8c:c2:b0:b6:9a:01:39:4f:31:
                    19:5b:2e:6b:0c:cc:28:2d:7a:ed:52:c4:54:e1:85:
                    4a:f7:48:08:03:72:a3:c7:47:5f:ff:c5:a9:63:ae:
                    77:e0:c7:89:aa:74:f7:98:f4:88:25:cd:92:2e:44:
                    e8:c9:a4:e5:3a:e4:fe:4a:51:d6:03:5e:8b:a6:47:
                    9b:63:26:2f:43:a0:5c:ad:46:96:78:70:e7:dd:2f:
                    72:b4:ed:6e:8e:a8:d1:8f:17:eb:67:36:5c:e1:32:
                    8b:5e:7e:3e:3f:46:11:0e:9c:3e:1a:dc:4f:d8:cd:
                    57:c2:98:91:d8:73:3f:25:a9:36:b8:85:67:e7:ac:
                    29:1f:35:2e:fa:ef:f0:ed:1b:c5:a2:53:90:2a:4a:
                    2b:35:68:ae:6e:49:8b:55:36:81:52:45:cc:b0:17:
                    27:c1:63:4d:a9:29:d7:0c:29:8f:11:d5:fc:b6:72:
                    ff:2b:0b:33:55:9e:8c:2b:6d:60:f2:86:5c:fd:c8:
                    24:79:c3:27:ae:35:73:8c:0a:af:02:a4:7d:09:cd:
                    60:a8:7f:ef:59:11:97:dc:5a:18:b1:b5:79:bf:27:
                    98:ff:98:9c:ff:6e:d6:d8:f2:97:61:b2:b1:d5:e0:
                    e6:a5:5e:d6:fd:24:71:8c:5e:1a:08:00:76:49:89:
                    15:04:38:42:a5:6c:b3:f5:b1:f9:3f:7b:b1:6f:f4:
                    70:c3:ba:45:41:1f:bc:a2:30:5b:2e:55:94:12:72:
                    26:0e:3f:83:7c:07:47:71:03:fa:fc:08:cb:ff:06:
                    5f:43:e8:6b:45:9f:89:18:b5:71:04:ef:16:01:32:
                    21:af:d0:11:6e:bc:f4:34:9e:cf:d4:48:41:8c:ce:
                    a4:31:90:e7:f4:20:b0:51:67:27:4e:c1:b7:f3:c9:
                    99:f1:14:8a:22:41:0c:f2:06:3c:4f:d8:14:44:da:
                    3f:95:14:8e:74:0e:c1:00:3e:d2:0a:ee:65:f6:15:
                    06:be:e7:2d:39:12:6c:10:f2:fc:36:a9:ae:ee:05:
                    c0:b7:bd:4c:31:ec:a8:af:b4:c0:f9:fd:2a:4a:aa:
                    12:05:74:1c:80:4c:24:6d:f6:f1:97:a8:be:3d:fe:
                    0c:3b:e1:de:68:56:f9:60:77:1c:7e:9f:78:77:f5:
                    74:a1:e7
                Exponent: 65537 (0x10001)
        X509v3 extensions:
            X509v3 Key Usage: critical
                Digital Signature, Key Encipherment
            X509v3 Basic Constraints: 
                CA:FALSE
            X509v3 Extended Key Usage: 
                TLS Web Client Authentication
            X509v3 Subject Key Identifier: 
                E7:14:6E:CE:DF:B6:F5:5C:9A:AE:D5:45:63:1C:D5:AA:3E:43:BC:1B
            X509v3 Authority Key Identifier: 
                keyid:40:4E:DB:7F:82:7A:7D:C2:97:CA:E6:8E:20:04:79:BE:F7:EB:CA:B7

            X509v3 Subject Alternative Name: 
                email:provided@email.com
    Signature Algorithm: sha1WithRSAEncryption
         8c:d8:b2:78:9f:1f:aa:01:da:e7:36:9f:1f:35:3c:31:83:a0:
         e7:3c:d7:59:fb:7f:b7:e0:7d:c1:b7:f5:8b:b2:0b:bd:56:81:
         7e:b8:06:6d:23:a1:31:9f:61:e3:cd:b7:ec:7b:0d:3a:ad:87:
         e0:88:aa:89:0d:d6:66:93:01:c5:95:0e:04:64:8c:2d:85:76:
         01:f0:c4:a8:1a:12:0a:9d:02:7e:24:74:34:9e:7e:6d:17:a7:
         ec:dd:7a:a4:38:26:1c:e1:3a:21:18:f0:92:8e:90:90:9d:9a:
         87:24:ac:6b:89:f3:8c:a1:a4:ab:6f:83:8f:25:78:41:a7:37:
         b7:2a:17:64:fc:72:e1:35:d0:a7:07:0b:a8:ba:2f:19:48:81:
         a2:9e:0d:f3:1c:3e:a0:8e:81:d1:eb:26:17:dc:69:5b:d6:5c:
         b2:0e:1f:8a:6b:e9:d9:d4:3d:84:6e:a8:e3:77:85:13:46:61:
         ab:f9:64:35:ac:b5:73:86:65:de:72:47:4f:df:35:42:29:89:
         c0:b3:24:2e:78:cc:8d:6a:2a:d0:3c:c6:fb:e6:5e:15:d9:c5:
         c4:d3:ea:99:c9:64:23:b7:27:5d:b7:e2:45:30:1e:ea:de:7f:
         82:bc:af:b4:d5:d0:91:d7:8e:28:f9:dd:13:4c:75:c9:87:92:
         f0:5a:21:ef:06:dc:78:b9:9e:24:89:19:52:d6:ae:b6:fd:f6:
         f4:fc:be:62:c7:8b:d7:b4:b7:94:90:b2:01:ed:cc:00:13:ca:
         d6:44:0e:21:f3:f6:17:9a:7d:78:cc:67:85:12:23:cb:47:0c:
         6c:22:69:31:5a:39:b0:6b:e7:1e:e0:a0:6a:30:34:2d:25:e4:
         b5:38:3f:d6:ce:e9:a4:ec:ae:8c:a8:7a:1b:80:9f:47:30:e4:
         a9:15:99:91:9a:2a:a2:7c:fb:00:af:f2:6b:0b:ca:08:05:3e:
         cf:5b:83:76:70:ad:08:1e:d9:5e:31:cf:4b:30:45:fe:1e:5d:
         4b:c6:97:bb:4e:94:3e:e6:f8:03:0a:92:3f:50:cf:68:05:1c:
         a2:24:36:41:5d:c2:af:99:8b:0a:ef:03:82:b4:e7:bd:52:2f:
         7e:9d:2e:ea:2b:9c:77:e3:d7:fe:f1:a6:18:37:32:35:78:03:
         d2:51:56:ff:57:74:bb:87:49:8d:89:a6:4d:4b:47:07:cd:da:
         e8:10:b6:f5:5e:6f:ee:06:35:10:63:c3:49:2e:7d:47:a6:bf:
         58:46:0e:f9:a8:8f:6e:b2:1e:91:75:48:b4:4e:db:85:df:91:
         e2:fe:05:bb:e6:ac:89:c8:68:cd:df:76:f7:00:bd:b2:9f:fd:
         e6:6a:a7:fc:f4:67:07:48
-----BEGIN CERTIFICATE-----
MIIFsTCCA5mgAwIBAgIBLjANBgkqhkiG9w0BAQUFADBqMQswCQYDVQQGEwJSUzEP
MA0GA1UECAwGU2VyYmlhMREwDwYDVQQHDAhCZWxncmFkZTEQMA4GA1UECgwHQ29k
ZVJlZDERMA8GA1UECwwIU2VjdXJpdHkxEjAQBgNVBAMMCUNsaWVudCBDQTAeFw0x
ODA0MDExMjU2NDlaFw0xOTA0MDExMjU2NDlaMDkxETAPBgNVBAoMCENvZGUgUmVk
MREwDwYDVQQLDAhTZWN1cml0eTERMA8GA1UEAwwIdXNlcm5hbWUwggIiMA0GCSqG
SIb3DQEBAQUAA4ICDwAwggIKAoICAQDpDlHOBiX2gW4wzAUIjfgj6O5kirDMrygs
BeNB2dRolflmUZk/gfwBqEGvf8aKyptsKifSwhiAdEVZ3BRiCp1jJbIlyJRaWbIG
xjXb6KjPD4zCsLaaATlPMRlbLmsMzCgteu1SxFThhUr3SAgDcqPHR1//xaljrnfg
x4mqdPeY9IglzZIuROjJpOU65P5KUdYDXoumR5tjJi9DoFytRpZ4cOfdL3K07W6O
qNGPF+tnNlzhMotefj4/RhEOnD4a3E/YzVfCmJHYcz8lqTa4hWfnrCkfNS767/Dt
G8WiU5AqSis1aK5uSYtVNoFSRcywFyfBY02pKdcMKY8R1fy2cv8rCzNVnowrbWDy
hlz9yCR5wyeuNXOMCq8CpH0JzWCof+9ZEZfcWhixtXm/J5j/mJz/btbY8pdhsrHV
4OalXtb9JHGMXhoIAHZJiRUEOEKlbLP1sfk/e7Fv9HDDukVBH7yiMFsuVZQSciYO
P4N8B0dxA/r8CMv/Bl9D6GtFn4kYtXEE7xYBMiGv0BFuvPQ0ns/USEGMzqQxkOf0
ILBRZydOwbfzyZnxFIoiQQzyBjxP2BRE2j+VFI50DsEAPtIK7mX2FQa+5y05EmwQ
8vw2qa7uBcC3vUwx7KivtMD5/SpKqhIFdByATCRt9vGXqL49/gw74d5oVvlgdxx+
n3h39XSh5wIDAQABo4GSMIGPMA4GA1UdDwEB/wQEAwIFoDAJBgNVHRMEAjAAMBMG
A1UdJQQMMAoGCCsGAQUFBwMCMB0GA1UdDgQWBBTnFG7O37b1XJqu1UVjHNWqPkO8
GzAfBgNVHSMEGDAWgBRATtt/gnp9wpfK5o4gBHm+9+vKtzAdBgNVHREEFjAUgRJw
cm92aWRlZEBlbWFpbC5jb20wDQYJKoZIhvcNAQEFBQADggIBAIzYsnifH6oB2uc2
nx81PDGDoOc811n7f7fgfcG39YuyC71WgX64Bm0joTGfYePNt+x7DTqth+CIqokN
1maTAcWVDgRkjC2FdgHwxKgaEgqdAn4kdDSefm0Xp+zdeqQ4JhzhOiEY8JKOkJCd
mockrGuJ84yhpKtvg48leEGnN7cqF2T8cuE10KcHC6i6LxlIgaKeDfMcPqCOgdHr
JhfcaVvWXLIOH4pr6dnUPYRuqON3hRNGYav5ZDWstXOGZd5yR0/fNUIpicCzJC54
zI1qKtA8xvvmXhXZxcTT6pnJZCO3J1234kUwHuref4K8r7TV0JHXjij53RNMdcmH
kvBaIe8G3Hi5niSJGVLWrrb99vT8vmLHi9e0t5SQsgHtzAATytZEDiHz9heafXjM
Z4USI8tHDGwiaTFaObBr5x7goGowNC0l5LU4P9bO6aTsroyoehuAn0cw5KkVmZGa
KqJ8+wCv8msLyggFPs9bg3ZwrQge2V4xz0swRf4eXUvGl7tOlD7m+AMKkj9Qz2gF
HKIkNkFdwq+ZiwrvA4K0571SL36dLuornHfj1/7xphg3MjV4A9JRVv9XdLuHSY2J
pk1LRwfN2ugQtvVeb+4GNRBjw0kufUemv1hGDvmoj26yHpF1SLRO24XfkeL+Bbvm
rInIaM3fdvcAvbKf/eZqp/z0ZwdI
-----END CERTIFICATE-----
