Certificate:
    Data:
        Version: 3 (0x2)
        Serial Number: 47 (0x2f)
    Signature Algorithm: sha1WithRSAEncryption
        Issuer: C=RS, ST=Serbia, L=Belgrade, O=CodeRed, OU=Security, CN=Client CA
        Validity
            Not Before: Apr  1 20:29:04 2018 GMT
            Not After : Apr  1 20:29:04 2019 GMT
        Subject: O=Code Red, OU=Security, CN=username
        Subject Public Key Info:
            Public Key Algorithm: rsaEncryption
                Public-Key: (4096 bit)
                Modulus:
                    00:ca:43:6c:ad:0e:66:21:40:b9:80:bb:d5:78:67:
                    90:73:c1:d8:9e:40:10:49:cb:80:fd:a1:0f:9a:85:
                    8a:4d:3c:88:0f:d2:cb:b2:4a:f9:c0:11:2c:13:4b:
                    90:56:87:2c:90:8d:aa:5f:0d:87:80:ea:7c:f8:c6:
                    8d:f8:5c:3e:4d:b6:f0:e4:b0:3d:a3:19:9b:e0:2e:
                    c8:20:26:a7:2a:58:34:42:11:62:bb:dc:3b:24:33:
                    56:e1:94:03:e6:6c:e2:9b:4d:74:e5:24:d7:ef:9f:
                    91:ca:e8:d2:bd:81:91:43:4c:85:8e:0b:2d:78:11:
                    ee:02:0f:1e:98:ce:0e:4b:3a:c2:b3:d8:a9:92:51:
                    61:ff:bc:de:a8:8c:2b:76:6f:1a:87:c7:b6:18:65:
                    a5:7c:67:44:f4:03:f6:53:b2:43:12:f6:40:d3:09:
                    b1:66:ff:23:31:e4:77:6b:b8:62:77:93:21:be:ae:
                    f0:f0:3a:d6:b8:6d:81:c9:7a:01:e6:4a:61:64:4e:
                    74:aa:e3:a5:ea:ed:33:96:75:07:c2:a6:38:d8:5d:
                    2c:04:30:d8:9e:9c:14:50:62:f7:b1:fe:3f:ba:52:
                    6f:aa:66:79:21:77:a2:b6:e2:cc:58:58:8b:64:12:
                    5d:7b:f5:01:53:a5:d4:5f:12:9b:1f:d7:74:fd:32:
                    21:3d:38:05:b1:f1:52:2b:b8:bc:6f:2e:ed:59:5e:
                    28:f0:ef:e7:09:7a:53:64:68:01:91:24:c5:a2:b0:
                    1c:1b:a6:b2:ca:3f:1d:5b:f3:8d:ce:a3:36:b7:06:
                    17:8b:31:69:cc:48:b7:34:2c:1f:5c:73:b1:28:a6:
                    3b:3b:63:41:3c:9a:97:2d:1d:b7:f0:d2:5a:3a:2c:
                    e0:e7:53:42:bc:9b:02:94:76:3b:69:de:d5:79:e8:
                    fd:5f:dc:9b:ef:12:b8:7c:38:f1:de:7d:b9:9a:b6:
                    e2:45:6d:c1:a5:c7:17:9b:c8:67:a2:61:57:c4:a1:
                    94:d1:b6:95:04:30:9f:28:a2:ba:00:a4:2f:3c:6c:
                    d4:8c:8d:1e:44:eb:1b:02:c9:23:07:6d:08:02:b8:
                    3d:c7:75:b9:42:e4:70:5e:4a:20:7d:5a:d1:21:fa:
                    e4:35:af:4e:bc:c0:3a:02:72:2c:62:8f:b4:5b:6b:
                    05:4b:c8:a4:db:83:fc:1a:69:63:af:67:94:b6:49:
                    09:cf:e4:a6:5e:48:cd:10:56:e1:80:60:54:7b:05:
                    68:e6:6f:5e:37:a6:bb:1b:4a:0f:ab:61:66:9d:2d:
                    b5:c2:ff:88:7f:9f:fe:df:39:64:d2:45:b1:f8:45:
                    bd:26:32:60:d9:02:56:ac:d1:f6:d8:e2:0b:0f:8d:
                    4b:39:bf
                Exponent: 65537 (0x10001)
        X509v3 extensions:
            X509v3 Key Usage: critical
                Digital Signature, Key Encipherment
            X509v3 Basic Constraints: 
                CA:FALSE
            X509v3 Extended Key Usage: 
                TLS Web Client Authentication
            X509v3 Subject Key Identifier: 
                B2:0E:A2:FC:EE:3E:FD:63:A6:73:77:B2:9D:71:0F:B2:C9:FC:40:7D
            X509v3 Authority Key Identifier: 
                keyid:40:4E:DB:7F:82:7A:7D:C2:97:CA:E6:8E:20:04:79:BE:F7:EB:CA:B7

            X509v3 Subject Alternative Name: 
                email:provided@email.com
    Signature Algorithm: sha1WithRSAEncryption
         55:63:de:aa:53:79:57:09:d6:4a:3d:46:58:d6:fc:67:05:e5:
         a9:a0:e3:d1:61:bf:f5:1f:1b:1b:85:e1:3e:2c:61:2a:6a:32:
         f6:07:a7:0e:da:42:bb:3b:89:9a:11:ff:b9:97:1f:4b:3b:72:
         ab:22:8b:2f:d7:72:a0:99:e6:60:22:12:a8:97:15:d1:da:9f:
         e9:c2:1a:21:4f:73:2e:91:0f:00:5c:c9:d4:a2:94:c4:e6:38:
         5e:00:51:e3:ce:d8:6d:74:c6:ae:43:c8:1d:84:2b:d8:c7:d0:
         b4:9b:e6:67:b7:bc:74:c6:3c:a4:50:25:00:47:c6:bc:70:ed:
         5d:b1:a3:42:2f:32:11:dc:c5:72:7a:04:2c:69:69:c9:f0:3a:
         c9:da:c0:5e:65:47:94:aa:bf:cc:9d:ce:79:c9:16:2b:23:58:
         a2:c1:02:63:08:93:7e:70:f7:a0:79:22:5a:a0:5d:4f:8a:23:
         ff:bc:0a:52:c2:10:ba:58:7e:3b:83:d4:a0:f4:f8:03:89:80:
         39:8e:30:37:9c:a0:db:75:7e:3a:97:6d:49:5f:d0:01:d1:07:
         02:86:d2:a2:cf:1d:ad:13:40:6f:10:19:1e:6e:39:ca:cc:d6:
         83:90:be:2b:8e:da:98:d3:38:fc:87:8f:ac:a4:bd:ca:38:62:
         45:cb:bc:09:d3:50:a0:f6:eb:43:15:fb:c8:e6:e7:38:8b:9a:
         3d:7e:eb:14:11:7e:a5:92:a7:db:c1:36:07:5c:83:4e:90:b0:
         6f:24:d2:72:54:e5:93:11:41:62:02:cf:c6:42:2c:98:9d:d1:
         78:8b:d9:2f:c9:26:2e:df:d4:18:51:7b:11:e9:fd:e9:dd:93:
         f4:07:cb:75:eb:9f:63:3b:5d:b7:f3:20:1f:a4:25:1b:1a:9c:
         23:fb:f7:7a:b5:8d:5b:61:95:63:f3:b2:f2:5d:80:8e:88:ce:
         3e:1f:99:71:b6:bd:e7:d5:95:55:0d:77:58:45:7e:dd:ad:be:
         38:a6:15:68:f1:31:a5:b2:af:c9:00:04:03:9c:76:df:96:cb:
         cc:f6:a5:56:eb:ec:d0:e7:72:44:76:35:e8:6f:a1:e2:c9:cd:
         15:c8:5c:95:ae:6c:77:11:ae:c9:5e:62:88:52:f2:e7:66:30:
         72:28:31:85:80:8e:29:28:c8:4e:a2:8c:a4:d4:c8:40:79:52:
         71:dd:7b:65:04:90:ee:b1:56:d2:bd:c8:08:a1:a0:76:88:34:
         9a:3a:f1:21:ff:f3:1d:a8:f2:4f:57:73:7a:a8:06:a4:9b:0d:
         be:89:9a:83:08:b4:8a:f0:c3:9c:bd:9e:25:0d:5e:38:05:07:
         ab:66:7f:44:03:f6:eb:11
-----BEGIN CERTIFICATE-----
MIIFsTCCA5mgAwIBAgIBLzANBgkqhkiG9w0BAQUFADBqMQswCQYDVQQGEwJSUzEP
MA0GA1UECAwGU2VyYmlhMREwDwYDVQQHDAhCZWxncmFkZTEQMA4GA1UECgwHQ29k
ZVJlZDERMA8GA1UECwwIU2VjdXJpdHkxEjAQBgNVBAMMCUNsaWVudCBDQTAeFw0x
ODA0MDEyMDI5MDRaFw0xOTA0MDEyMDI5MDRaMDkxETAPBgNVBAoMCENvZGUgUmVk
MREwDwYDVQQLDAhTZWN1cml0eTERMA8GA1UEAwwIdXNlcm5hbWUwggIiMA0GCSqG
SIb3DQEBAQUAA4ICDwAwggIKAoICAQDKQ2ytDmYhQLmAu9V4Z5BzwdieQBBJy4D9
oQ+ahYpNPIgP0suySvnAESwTS5BWhyyQjapfDYeA6nz4xo34XD5NtvDksD2jGZvg
LsggJqcqWDRCEWK73DskM1bhlAPmbOKbTXTlJNfvn5HK6NK9gZFDTIWOCy14Ee4C
Dx6Yzg5LOsKz2KmSUWH/vN6ojCt2bxqHx7YYZaV8Z0T0A/ZTskMS9kDTCbFm/yMx
5HdruGJ3kyG+rvDwOta4bYHJegHmSmFkTnSq46Xq7TOWdQfCpjjYXSwEMNienBRQ
Yvex/j+6Um+qZnkhd6K24sxYWItkEl179QFTpdRfEpsf13T9MiE9OAWx8VIruLxv
Lu1ZXijw7+cJelNkaAGRJMWisBwbprLKPx1b843Ooza3BheLMWnMSLc0LB9cc7Eo
pjs7Y0E8mpctHbfw0lo6LODnU0K8mwKUdjtp3tV56P1f3JvvErh8OPHefbmatuJF
bcGlxxebyGeiYVfEoZTRtpUEMJ8ooroApC88bNSMjR5E6xsCySMHbQgCuD3HdblC
5HBeSiB9WtEh+uQ1r068wDoCcixij7RbawVLyKTbg/waaWOvZ5S2SQnP5KZeSM0Q
VuGAYFR7BWjmb143prsbSg+rYWadLbXC/4h/n/7fOWTSRbH4Rb0mMmDZAlas0fbY
4gsPjUs5vwIDAQABo4GSMIGPMA4GA1UdDwEB/wQEAwIFoDAJBgNVHRMEAjAAMBMG
A1UdJQQMMAoGCCsGAQUFBwMCMB0GA1UdDgQWBBSyDqL87j79Y6Zzd7KdcQ+yyfxA
fTAfBgNVHSMEGDAWgBRATtt/gnp9wpfK5o4gBHm+9+vKtzAdBgNVHREEFjAUgRJw
cm92aWRlZEBlbWFpbC5jb20wDQYJKoZIhvcNAQEFBQADggIBAFVj3qpTeVcJ1ko9
RljW/GcF5amg49Fhv/UfGxuF4T4sYSpqMvYHpw7aQrs7iZoR/7mXH0s7cqsiiy/X
cqCZ5mAiEqiXFdHan+nCGiFPcy6RDwBcydSilMTmOF4AUePO2G10xq5DyB2EK9jH
0LSb5me3vHTGPKRQJQBHxrxw7V2xo0IvMhHcxXJ6BCxpacnwOsnawF5lR5Sqv8yd
znnJFisjWKLBAmMIk35w96B5IlqgXU+KI/+8ClLCELpYfjuD1KD0+AOJgDmOMDec
oNt1fjqXbUlf0AHRBwKG0qLPHa0TQG8QGR5uOcrM1oOQviuO2pjTOPyHj6ykvco4
YkXLvAnTUKD260MV+8jm5ziLmj1+6xQRfqWSp9vBNgdcg06QsG8k0nJU5ZMRQWIC
z8ZCLJid0XiL2S/JJi7f1BhRexHp/endk/QHy3Xrn2M7XbfzIB+kJRsanCP793q1
jVthlWPzsvJdgI6Izj4fmXG2vefVlVUNd1hFft2tvjimFWjxMaWyr8kABAOcdt+W
y8z2pVbr7NDnckR2NehvoeLJzRXIXJWubHcRrsleYohS8udmMHIoMYWAjikoyE6i
jKTUyEB5UnHde2UEkO6xVtK9yAihoHaINJo68SH/8x2o8k9Xc3qoBqSbDb6JmoMI
tIrww5y9niUNXjgFB6tmf0QD9usR
-----END CERTIFICATE-----
