Certificate:
    Data:
        Version: 3 (0x2)
        Serial Number: 48 (0x30)
    Signature Algorithm: sha1WithRSAEncryption
        Issuer: C=RS, ST=Serbia, L=Belgrade, O=CodeRed, OU=Security, CN=Client CA
        Validity
            Not Before: Apr  1 20:39:29 2018 GMT
            Not After : Apr  1 20:39:29 2019 GMT
        Subject: O=Code Red, OU=Security, CN=username
        Subject Public Key Info:
            Public Key Algorithm: rsaEncryption
                Public-Key: (4096 bit)
                Modulus:
                    00:d0:23:ba:90:05:eb:a0:5b:ae:5f:71:38:ef:a8:
                    64:3b:40:20:10:fc:3e:34:2c:aa:03:54:e4:ad:c8:
                    08:fc:90:fa:d4:db:d2:cd:fb:0a:d1:2e:2c:ac:e5:
                    b0:bc:c3:ea:d3:cb:50:b6:80:4d:74:78:78:e6:cb:
                    ab:f9:25:a3:f6:8b:92:d2:ee:90:23:b3:b5:3b:c1:
                    4b:e5:46:5c:47:a7:6a:59:6b:d3:8d:92:ad:04:41:
                    0b:9a:e0:f4:1e:bb:af:d0:ff:34:07:44:7a:1c:3b:
                    3d:4f:6b:ba:5a:fd:1a:b6:88:ed:6e:f4:5f:0d:50:
                    e1:46:66:0a:e2:ba:12:a0:cc:73:bf:bd:74:c6:19:
                    dd:de:98:ae:30:5f:90:b2:6a:8e:29:e0:b8:38:2d:
                    15:c4:d1:7c:85:78:c8:53:cf:c0:93:41:d5:09:54:
                    1d:98:35:af:65:b2:95:77:15:2d:01:59:19:f4:82:
                    9c:ce:b4:51:ea:99:79:54:50:08:c4:bf:c2:f8:c2:
                    aa:b0:50:04:1c:2b:a5:0f:11:8e:ee:70:6e:20:e9:
                    e5:74:1a:3a:5e:4c:98:bf:33:94:5b:78:18:70:cd:
                    1d:0a:9a:18:e1:92:7c:fa:30:93:f7:1a:29:61:7a:
                    87:f9:74:8a:45:30:10:93:44:0e:7a:0b:31:0f:07:
                    fe:42:de:47:50:0c:fb:b1:52:a3:3c:08:83:13:c1:
                    75:18:92:f5:0a:74:67:ac:09:97:20:e0:38:0f:3b:
                    8e:90:60:a5:8d:56:2f:cb:da:a1:cb:d5:9f:76:67:
                    65:9f:71:9f:98:d9:4f:e1:d6:cd:5f:8a:5f:49:ed:
                    db:32:16:2c:7e:fc:2d:40:f3:86:86:bb:01:a6:49:
                    df:87:d1:b5:8b:37:e7:62:db:d8:c9:17:4e:4a:87:
                    c5:5a:b2:db:0c:8a:4b:c8:13:d3:2d:e9:db:48:fd:
                    04:e7:13:11:a2:67:20:ea:8b:d6:64:b0:49:a3:f5:
                    0f:f9:3d:af:83:88:9b:c2:b4:c8:d3:15:3a:ee:9f:
                    0b:3f:f2:0b:aa:20:13:13:2e:f4:e1:83:db:30:2a:
                    63:f4:8c:6e:7b:38:eb:b6:f1:ac:64:21:52:16:84:
                    84:c3:6b:90:77:bc:8c:3b:9c:71:dc:06:57:b3:55:
                    60:8c:f0:44:37:c8:2a:1f:06:c8:99:38:f0:8e:fe:
                    a4:24:48:2d:3d:65:8c:7e:53:0f:24:58:ac:8f:c6:
                    c5:3c:09:e8:0c:5e:b6:0f:c0:60:c7:80:67:93:dc:
                    39:04:e3:03:69:27:c3:86:a7:54:58:c4:28:01:7e:
                    f2:b0:04:1d:5c:91:30:3e:b7:a0:c6:78:33:c8:af:
                    e4:41:85
                Exponent: 65537 (0x10001)
        X509v3 extensions:
            X509v3 Key Usage: critical
                Digital Signature, Key Encipherment
            X509v3 Basic Constraints: 
                CA:FALSE
            X509v3 Extended Key Usage: 
                TLS Web Client Authentication
            X509v3 Subject Key Identifier: 
                3E:90:AC:0E:59:30:33:DB:B3:C5:CF:B5:DA:03:45:69:AF:95:84:61
            X509v3 Authority Key Identifier: 
                keyid:40:4E:DB:7F:82:7A:7D:C2:97:CA:E6:8E:20:04:79:BE:F7:EB:CA:B7

            X509v3 Subject Alternative Name: 
                email:provided@email.com
    Signature Algorithm: sha1WithRSAEncryption
         4d:4a:e6:ba:ab:04:bd:90:dc:c2:36:67:09:6e:aa:97:08:9a:
         dc:6e:df:ec:f6:d4:cd:f9:e0:f9:6e:aa:56:bf:ed:70:f8:b7:
         09:e1:7a:e6:03:07:78:ca:a0:be:51:94:15:1d:bf:3b:1e:cb:
         68:da:7e:1b:5c:94:69:09:81:e3:d1:fb:2d:36:c4:44:97:56:
         ea:fd:c0:ba:e9:d1:d3:8d:a6:a0:ac:27:5c:72:47:9d:61:92:
         d4:e3:36:aa:00:1f:b0:d7:95:90:4d:61:4e:92:96:16:39:53:
         2e:48:6b:04:a8:cb:1e:30:8c:ee:b4:82:ef:13:ad:c2:15:35:
         26:d9:b5:05:7d:e5:ca:6c:b3:46:d6:e1:7c:df:2f:f1:bf:97:
         d5:b2:c3:4d:78:74:4e:c7:6f:9d:14:c6:d1:0e:ba:83:7b:e3:
         f4:40:bd:69:7a:c8:ef:50:10:c4:31:1f:a4:d8:78:eb:b7:dc:
         9c:b5:60:d3:b2:57:51:da:c7:1e:ae:4b:b9:af:35:c8:aa:3d:
         09:2f:1e:3c:73:a8:bc:10:9f:dd:ea:e9:94:02:09:81:cc:72:
         1e:6d:83:9c:8d:16:9d:d4:dc:33:f6:18:3d:25:65:0a:6e:36:
         36:cd:b9:de:91:cd:96:3b:c4:b0:27:5b:2c:d9:ad:5e:36:60:
         ce:ac:ac:76:bb:64:b7:3e:81:75:15:77:ea:36:7f:c4:df:80:
         1b:be:9c:8d:53:51:ea:37:8f:8d:e0:6a:37:7f:b6:6b:68:89:
         30:bc:44:d1:8f:0f:d0:3b:e7:14:90:0f:e7:56:8f:63:f9:41:
         f0:c7:4e:fd:e8:99:bb:59:48:5c:0b:f9:53:6f:10:6b:af:7e:
         f4:c4:bc:77:d9:c8:52:d6:e3:98:0f:e9:c4:01:a3:e0:be:58:
         68:f8:8f:6a:61:59:b3:43:a7:6a:06:87:56:f0:48:ac:54:07:
         61:ec:b5:b5:68:93:b4:36:b1:9e:98:6e:fc:f4:a2:11:09:b9:
         a1:fb:94:88:67:1b:59:f3:71:d8:d6:0d:1b:fa:e4:ce:db:77:
         a5:3b:be:50:9c:d8:b9:35:7e:14:eb:99:a0:4f:08:8a:97:d2:
         fa:60:3c:85:b7:01:21:e2:f8:06:5b:e3:3d:b7:96:bd:fb:64:
         3a:6f:63:5a:1f:bb:13:28:2c:5a:7f:c3:a0:94:7d:d5:9b:f0:
         61:e8:6b:ac:53:7d:47:a6:1b:44:98:cc:df:93:b3:0b:ee:8b:
         bc:05:29:6d:d3:6b:3b:13:84:e7:e6:04:2e:c4:da:b7:7c:ec:
         51:20:6e:23:b1:9b:68:b9:86:c2:c8:ca:81:7b:e3:e7:df:96:
         49:15:3b:15:79:ed:77:cd
-----BEGIN CERTIFICATE-----
MIIFsTCCA5mgAwIBAgIBMDANBgkqhkiG9w0BAQUFADBqMQswCQYDVQQGEwJSUzEP
MA0GA1UECAwGU2VyYmlhMREwDwYDVQQHDAhCZWxncmFkZTEQMA4GA1UECgwHQ29k
ZVJlZDERMA8GA1UECwwIU2VjdXJpdHkxEjAQBgNVBAMMCUNsaWVudCBDQTAeFw0x
ODA0MDEyMDM5MjlaFw0xOTA0MDEyMDM5MjlaMDkxETAPBgNVBAoMCENvZGUgUmVk
MREwDwYDVQQLDAhTZWN1cml0eTERMA8GA1UEAwwIdXNlcm5hbWUwggIiMA0GCSqG
SIb3DQEBAQUAA4ICDwAwggIKAoICAQDQI7qQBeugW65fcTjvqGQ7QCAQ/D40LKoD
VOStyAj8kPrU29LN+wrRLiys5bC8w+rTy1C2gE10eHjmy6v5JaP2i5LS7pAjs7U7
wUvlRlxHp2pZa9ONkq0EQQua4PQeu6/Q/zQHRHocOz1Pa7pa/Rq2iO1u9F8NUOFG
ZgriuhKgzHO/vXTGGd3emK4wX5Cyao4p4Lg4LRXE0XyFeMhTz8CTQdUJVB2YNa9l
spV3FS0BWRn0gpzOtFHqmXlUUAjEv8L4wqqwUAQcK6UPEY7ucG4g6eV0GjpeTJi/
M5RbeBhwzR0Kmhjhknz6MJP3Gilheof5dIpFMBCTRA56CzEPB/5C3kdQDPuxUqM8
CIMTwXUYkvUKdGesCZcg4DgPO46QYKWNVi/L2qHL1Z92Z2WfcZ+Y2U/h1s1fil9J
7dsyFix+/C1A84aGuwGmSd+H0bWLN+di29jJF05Kh8VastsMikvIE9Mt6dtI/QTn
ExGiZyDqi9ZksEmj9Q/5Pa+DiJvCtMjTFTrunws/8guqIBMTLvThg9swKmP0jG57
OOu28axkIVIWhITDa5B3vIw7nHHcBlezVWCM8EQ3yCofBsiZOPCO/qQkSC09ZYx+
Uw8kWKyPxsU8CegMXrYPwGDHgGeT3DkE4wNpJ8OGp1RYxCgBfvKwBB1ckTA+t6DG
eDPIr+RBhQIDAQABo4GSMIGPMA4GA1UdDwEB/wQEAwIFoDAJBgNVHRMEAjAAMBMG
A1UdJQQMMAoGCCsGAQUFBwMCMB0GA1UdDgQWBBQ+kKwOWTAz27PFz7XaA0Vpr5WE
YTAfBgNVHSMEGDAWgBRATtt/gnp9wpfK5o4gBHm+9+vKtzAdBgNVHREEFjAUgRJw
cm92aWRlZEBlbWFpbC5jb20wDQYJKoZIhvcNAQEFBQADggIBAE1K5rqrBL2Q3MI2
ZwluqpcImtxu3+z21M354Pluqla/7XD4twnheuYDB3jKoL5RlBUdvzsey2jafhtc
lGkJgePR+y02xESXVur9wLrp0dONpqCsJ1xyR51hktTjNqoAH7DXlZBNYU6SlhY5
Uy5IawSoyx4wjO60gu8TrcIVNSbZtQV95cpss0bW4XzfL/G/l9Wyw014dE7Hb50U
xtEOuoN74/RAvWl6yO9QEMQxH6TYeOu33Jy1YNOyV1Haxx6uS7mvNciqPQkvHjxz
qLwQn93q6ZQCCYHMch5tg5yNFp3U3DP2GD0lZQpuNjbNud6RzZY7xLAnWyzZrV42
YM6srHa7ZLc+gXUVd+o2f8TfgBu+nI1TUeo3j43gajd/tmtoiTC8RNGPD9A75xSQ
D+dWj2P5QfDHTv3ombtZSFwL+VNvEGuvfvTEvHfZyFLW45gP6cQBo+C+WGj4j2ph
WbNDp2oGh1bwSKxUB2HstbVok7Q2sZ6Ybvz0ohEJuaH7lIhnG1nzcdjWDRv65M7b
d6U7vlCc2Lk1fhTrmaBPCIqX0vpgPIW3ASHi+AZb4z23lr37ZDpvY1ofuxMoLFp/
w6CUfdWb8GHoa6xTfUemG0SYzN+Tswvui7wFKW3TazsThOfmBC7E2rd87FEgbiOx
m2i5hsLIyoF74+fflkkVOxV57XfN
-----END CERTIFICATE-----
