Certificate:
    Data:
        Version: 3 (0x2)
        Serial Number: 49 (0x31)
    Signature Algorithm: sha1WithRSAEncryption
        Issuer: C=RS, ST=Serbia, L=Belgrade, O=CodeRed, OU=Security, CN=Client CA
        Validity
            Not Before: Apr  1 20:39:39 2018 GMT
            Not After : Apr  1 20:39:39 2019 GMT
        Subject: O=Code Red, OU=Security, CN=username
        Subject Public Key Info:
            Public Key Algorithm: rsaEncryption
                Public-Key: (4096 bit)
                Modulus:
                    00:ff:09:0f:99:7b:2c:75:85:93:53:cb:0c:05:d3:
                    51:2d:e5:e1:1b:ab:8c:1b:66:89:9b:11:cb:6c:d7:
                    23:6d:7b:7b:78:e5:14:8a:37:f9:1f:00:8b:d0:46:
                    89:25:1c:31:6c:5b:00:39:0e:45:21:93:8e:5d:d6:
                    0b:2f:08:5f:74:c6:eb:74:11:00:66:bf:08:91:aa:
                    f2:bc:b4:f1:be:6f:1c:c5:f9:9f:53:e6:83:e8:25:
                    5b:ab:8b:e1:0d:04:67:e7:e0:33:75:90:a7:c0:02:
                    65:d9:21:a1:17:15:d0:3e:1a:72:6b:16:db:90:2a:
                    10:df:31:18:8e:c7:d0:80:73:bf:de:f6:9a:53:74:
                    e9:b2:6c:24:7b:8f:ff:72:cd:37:45:11:f2:f7:f8:
                    c8:28:84:5b:c7:74:bd:7b:ef:58:51:3a:6a:b0:2a:
                    5b:3d:48:ba:95:d2:5e:a5:51:a7:df:58:76:85:27:
                    72:23:a7:c4:56:8c:c1:f6:6e:2f:97:f0:d4:cb:8a:
                    07:86:f0:2d:17:2e:82:78:fe:b9:ae:36:00:7f:55:
                    94:36:e6:f9:6a:17:09:95:c2:7f:c4:a3:3c:d6:fa:
                    69:09:44:0a:72:7e:31:bf:bc:52:c6:c0:8d:54:e3:
                    61:fd:96:73:05:ec:cb:33:97:37:11:ad:b8:1e:ab:
                    d3:bc:b0:ca:b3:81:11:d9:e0:af:2d:e8:4e:2e:94:
                    f7:9c:c0:8e:8f:05:8b:d0:97:18:81:13:3d:db:d7:
                    12:07:19:71:db:72:11:d4:34:e2:1d:fd:f4:ac:f0:
                    df:5f:31:0d:ac:39:99:58:f2:bb:7d:c4:2b:81:a4:
                    c2:47:3d:49:28:e5:f7:8b:9a:52:be:7a:d2:8f:29:
                    72:7b:73:60:a5:2c:eb:a2:d8:a8:6f:29:e1:3a:c4:
                    66:59:4e:27:d7:ae:aa:ad:1b:2e:81:05:c6:f3:f8:
                    02:cf:6c:80:63:68:56:1f:98:8b:65:38:c7:86:0b:
                    ea:6d:a3:f1:16:1f:32:2a:53:37:03:cb:5d:d4:3c:
                    85:b0:70:cb:e3:e6:b4:bd:e1:01:8e:a4:d7:4b:16:
                    bc:86:df:9f:37:90:9e:f0:ab:d0:95:ab:09:06:90:
                    49:59:d0:24:b5:82:0c:0c:07:10:87:81:78:4b:0b:
                    5c:ba:b2:b5:2d:36:b0:36:a5:30:13:9b:b9:65:cf:
                    9a:bc:35:f6:6b:3c:03:94:92:bf:5f:54:a5:0b:38:
                    91:99:fc:e1:81:da:ef:5e:0b:45:b5:0a:8e:41:2e:
                    dd:a6:4b:32:1c:7a:f8:de:f2:41:76:d0:9e:b0:8f:
                    71:76:45:59:84:e5:bf:4a:f6:ac:82:71:7c:b3:fd:
                    06:e9:6f
                Exponent: 65537 (0x10001)
        X509v3 extensions:
            X509v3 Key Usage: critical
                Digital Signature, Key Encipherment
            X509v3 Basic Constraints: 
                CA:FALSE
            X509v3 Extended Key Usage: 
                TLS Web Client Authentication
            X509v3 Subject Key Identifier: 
                03:96:9E:A0:84:73:23:5E:80:AC:EF:37:48:E3:DD:01:71:3E:C6:31
            X509v3 Authority Key Identifier: 
                keyid:40:4E:DB:7F:82:7A:7D:C2:97:CA:E6:8E:20:04:79:BE:F7:EB:CA:B7

            X509v3 Subject Alternative Name: 
                email:provided@email.com
    Signature Algorithm: sha1WithRSAEncryption
         92:37:a2:83:d2:fc:3e:9a:10:62:a3:77:66:b2:33:50:14:3a:
         3e:2d:f6:42:79:03:ff:9c:87:92:a6:8b:00:43:16:81:e7:37:
         f4:f8:99:eb:dd:23:06:8c:04:37:84:b7:b4:e2:c0:dc:fd:63:
         cd:f0:11:4b:30:1c:c7:de:cb:72:b5:aa:62:60:74:3d:93:ca:
         b4:75:b8:70:9b:c7:c1:80:f3:ff:07:4b:ca:54:02:14:7b:08:
         43:be:62:7c:3c:16:33:0e:d1:f6:e4:d0:13:6a:9b:a6:97:33:
         c8:6f:d2:1c:7d:8c:41:89:77:11:a9:96:ff:99:ad:b1:6d:6a:
         b6:08:92:41:58:e6:91:e7:7a:42:87:1e:b3:61:37:c3:9d:8a:
         07:57:3c:b2:72:ae:8d:0b:52:b3:e9:a0:ff:2b:70:73:5f:3d:
         ae:aa:c2:9d:38:5d:24:04:2c:8b:64:2b:62:0e:fd:30:5c:3f:
         25:b3:a9:34:61:81:8b:ed:c2:36:8d:7f:f9:30:df:e0:97:08:
         87:98:ea:38:21:8a:1b:02:0a:50:af:70:42:4f:dd:07:c9:97:
         aa:93:ac:82:0d:9f:d4:46:3c:db:74:18:bb:61:d3:62:dd:75:
         9c:ce:0b:57:8f:e1:1e:87:42:a0:a4:6c:f2:c6:ca:20:23:aa:
         b4:0f:31:29:ad:36:50:70:a7:3b:91:02:78:d3:59:61:2f:95:
         f4:f5:91:ac:85:a8:c2:42:a7:79:c1:6c:c5:8a:04:81:db:6c:
         71:aa:ab:af:a5:f5:f4:51:8f:b7:75:64:1b:9b:9e:01:1b:70:
         c2:b3:fb:2c:88:22:d5:07:39:a9:fb:e0:4d:75:56:7c:3e:25:
         72:3f:20:b0:de:73:ac:0c:08:58:a6:3f:f0:b6:e1:86:a4:ae:
         ba:08:98:52:21:a3:f1:64:30:fc:17:90:73:82:cb:8f:8e:a6:
         9c:c5:a9:1b:40:ff:ba:be:ee:45:4d:79:e6:a8:80:0e:ee:f7:
         f9:d5:cc:b1:2e:b4:3d:74:14:30:94:6a:55:1b:8e:f2:d5:6c:
         1a:e4:65:71:7b:93:ec:b9:d0:42:9a:1f:64:68:22:6d:0a:3e:
         c2:73:57:2e:12:cd:d8:d5:fa:2d:06:f2:d5:e9:d3:5c:37:a1:
         e2:94:4a:3c:af:ec:b4:62:f8:14:96:0f:56:b7:33:c9:9d:83:
         95:8f:12:77:f5:02:6e:5f:f3:fa:d3:93:13:87:81:f3:43:33:
         66:95:ca:73:bb:64:be:80:c8:d6:84:10:42:1e:bb:58:ef:ee:
         11:aa:10:33:28:1e:c2:e9:7d:2c:ed:e3:07:31:91:c7:09:d8:
         c5:9c:d7:e1:90:f2:e7:92
-----BEGIN CERTIFICATE-----
MIIFsTCCA5mgAwIBAgIBMTANBgkqhkiG9w0BAQUFADBqMQswCQYDVQQGEwJSUzEP
MA0GA1UECAwGU2VyYmlhMREwDwYDVQQHDAhCZWxncmFkZTEQMA4GA1UECgwHQ29k
ZVJlZDERMA8GA1UECwwIU2VjdXJpdHkxEjAQBgNVBAMMCUNsaWVudCBDQTAeFw0x
ODA0MDEyMDM5MzlaFw0xOTA0MDEyMDM5MzlaMDkxETAPBgNVBAoMCENvZGUgUmVk
MREwDwYDVQQLDAhTZWN1cml0eTERMA8GA1UEAwwIdXNlcm5hbWUwggIiMA0GCSqG
SIb3DQEBAQUAA4ICDwAwggIKAoICAQD/CQ+Zeyx1hZNTywwF01Et5eEbq4wbZomb
Ects1yNte3t45RSKN/kfAIvQRoklHDFsWwA5DkUhk45d1gsvCF90xut0EQBmvwiR
qvK8tPG+bxzF+Z9T5oPoJVuri+ENBGfn4DN1kKfAAmXZIaEXFdA+GnJrFtuQKhDf
MRiOx9CAc7/e9ppTdOmybCR7j/9yzTdFEfL3+MgohFvHdL1771hROmqwKls9SLqV
0l6lUaffWHaFJ3Ijp8RWjMH2bi+X8NTLigeG8C0XLoJ4/rmuNgB/VZQ25vlqFwmV
wn/EozzW+mkJRApyfjG/vFLGwI1U42H9lnMF7MszlzcRrbgeq9O8sMqzgRHZ4K8t
6E4ulPecwI6PBYvQlxiBEz3b1xIHGXHbchHUNOId/fSs8N9fMQ2sOZlY8rt9xCuB
pMJHPUko5feLmlK+etKPKXJ7c2ClLOui2KhvKeE6xGZZTifXrqqtGy6BBcbz+ALP
bIBjaFYfmItlOMeGC+pto/EWHzIqUzcDy13UPIWwcMvj5rS94QGOpNdLFryG3583
kJ7wq9CVqwkGkElZ0CS1ggwMBxCHgXhLC1y6srUtNrA2pTATm7llz5q8NfZrPAOU
kr9fVKULOJGZ/OGB2u9eC0W1Co5BLt2mSzIcevje8kF20J6wj3F2RVmE5b9K9qyC
cXyz/QbpbwIDAQABo4GSMIGPMA4GA1UdDwEB/wQEAwIFoDAJBgNVHRMEAjAAMBMG
A1UdJQQMMAoGCCsGAQUFBwMCMB0GA1UdDgQWBBQDlp6ghHMjXoCs7zdI490BcT7G
MTAfBgNVHSMEGDAWgBRATtt/gnp9wpfK5o4gBHm+9+vKtzAdBgNVHREEFjAUgRJw
cm92aWRlZEBlbWFpbC5jb20wDQYJKoZIhvcNAQEFBQADggIBAJI3ooPS/D6aEGKj
d2ayM1AUOj4t9kJ5A/+ch5KmiwBDFoHnN/T4mevdIwaMBDeEt7TiwNz9Y83wEUsw
HMfey3K1qmJgdD2TyrR1uHCbx8GA8/8HS8pUAhR7CEO+Ynw8FjMO0fbk0BNqm6aX
M8hv0hx9jEGJdxGplv+ZrbFtarYIkkFY5pHnekKHHrNhN8OdigdXPLJyro0LUrPp
oP8rcHNfPa6qwp04XSQELItkK2IO/TBcPyWzqTRhgYvtwjaNf/kw3+CXCIeY6jgh
ihsCClCvcEJP3QfJl6qTrIINn9RGPNt0GLth02LddZzOC1eP4R6HQqCkbPLGyiAj
qrQPMSmtNlBwpzuRAnjTWWEvlfT1kayFqMJCp3nBbMWKBIHbbHGqq6+l9fRRj7d1
ZBubngEbcMKz+yyIItUHOan74E11Vnw+JXI/ILDec6wMCFimP/C24YakrroImFIh
o/FkMPwXkHOCy4+OppzFqRtA/7q+7kVNeeaogA7u9/nVzLEutD10FDCUalUbjvLV
bBrkZXF7k+y50EKaH2RoIm0KPsJzVy4SzdjV+i0G8tXp01w3oeKUSjyv7LRi+BSW
D1a3M8mdg5WPEnf1Am5f8/rTkxOHgfNDM2aVynO7ZL6AyNaEEEIeu1jv7hGqEDMo
HsLpfSzt4wcxkccJ2MWc1+GQ8ueS
-----END CERTIFICATE-----
