Certificate:
    Data:
        Version: 3 (0x2)
        Serial Number: 50 (0x32)
    Signature Algorithm: sha1WithRSAEncryption
        Issuer: C=RS, ST=Serbia, L=Belgrade, O=CodeRed, OU=Security, CN=Client CA
        Validity
            Not Before: Apr  1 20:46:40 2018 GMT
            Not After : Apr  1 20:46:40 2019 GMT
        Subject: O=Code Red, OU=Security, CN=username
        Subject Public Key Info:
            Public Key Algorithm: rsaEncryption
                Public-Key: (4096 bit)
                Modulus:
                    00:cd:97:5d:d0:8c:3d:9f:a1:93:8a:21:50:ce:a2:
                    ec:1b:70:cc:de:ec:69:e4:2c:4e:7f:1e:bb:b7:67:
                    88:29:18:c9:19:13:0c:9d:c6:3f:26:09:fe:33:55:
                    4a:cf:eb:12:7d:7a:50:a4:c8:54:05:93:7f:5e:ba:
                    66:d1:82:b2:13:6a:32:f4:f6:18:26:bf:7c:46:e0:
                    71:5b:b5:cf:af:5d:96:73:52:65:87:d7:b2:6a:51:
                    63:8a:22:3f:8e:3b:ca:6b:2e:66:dd:71:d5:9b:4a:
                    aa:dd:e4:97:a9:d8:41:13:b0:22:20:71:fc:ed:36:
                    d9:21:e9:2d:db:b7:13:27:82:0e:92:1c:0c:ce:43:
                    48:a2:11:a5:cb:7e:c5:3b:1d:39:46:31:37:99:48:
                    c9:d2:f3:56:6a:97:70:e1:fc:89:13:0c:8f:71:4c:
                    5f:1a:18:f6:22:d4:95:36:04:77:2c:0e:43:d9:22:
                    c8:d3:f7:64:97:85:b5:a9:b4:e1:eb:2b:fc:31:60:
                    0a:17:08:ca:55:e5:6a:83:e7:27:f1:e8:ea:50:21:
                    a1:24:6b:11:56:db:9d:a7:af:10:ab:32:7b:f5:a1:
                    c0:2a:72:3a:bc:29:f5:82:1c:21:c9:a7:1d:af:88:
                    e9:0a:2c:b0:66:a2:0e:6c:1d:e5:88:a7:62:57:0a:
                    c2:57:0d:8c:88:10:30:37:7d:ca:be:dd:ac:d0:56:
                    99:20:cc:2c:3c:ea:27:78:5f:34:7c:2e:d1:25:f9:
                    14:9b:ff:fd:1d:74:75:da:57:fd:cd:b1:2d:18:b8:
                    47:7c:4d:3a:00:d9:f2:7c:de:98:0c:9a:ef:5f:c9:
                    17:41:91:f5:6e:c0:a3:5b:05:ed:45:e7:e5:fc:95:
                    dd:5d:ee:a5:30:66:2d:c3:a1:27:b2:1e:aa:04:a3:
                    ef:7f:93:9e:3c:38:b3:15:b2:73:5c:94:45:b0:c1:
                    99:f3:c7:7d:fb:25:53:37:2f:0e:de:a5:e5:a3:8f:
                    71:d6:d9:04:cc:f6:50:74:85:39:54:1c:8e:ad:1c:
                    1d:ca:a8:aa:5b:b9:f9:6b:a9:f2:e6:b3:0b:29:d4:
                    b2:20:2d:fa:e4:b4:19:04:f0:44:e2:0b:91:d1:9f:
                    b0:3c:9d:28:13:a4:b5:b0:61:7f:09:eb:9b:94:66:
                    30:d4:66:4f:76:a2:b8:a4:29:68:eb:37:d3:80:dc:
                    18:8b:de:46:09:da:ae:9c:34:48:ea:7f:18:66:a8:
                    b8:0e:20:62:f8:8b:76:33:30:a9:44:b8:cd:81:0c:
                    5e:11:78:cd:07:d5:95:45:53:30:ff:7b:36:50:76:
                    62:d7:0b:98:5c:8f:f9:6c:40:db:9f:48:4a:89:c7:
                    95:6c:65
                Exponent: 65537 (0x10001)
        X509v3 extensions:
            X509v3 Key Usage: critical
                Digital Signature, Key Encipherment
            X509v3 Basic Constraints: 
                CA:FALSE
            X509v3 Extended Key Usage: 
                TLS Web Client Authentication
            X509v3 Subject Key Identifier: 
                41:D8:5B:2D:A1:AC:03:03:78:48:8E:AB:36:30:B3:BA:1E:68:21:6B
            X509v3 Authority Key Identifier: 
                keyid:40:4E:DB:7F:82:7A:7D:C2:97:CA:E6:8E:20:04:79:BE:F7:EB:CA:B7

            X509v3 Subject Alternative Name: 
                email:provided@email.com
    Signature Algorithm: sha1WithRSAEncryption
         07:08:ee:9a:49:5c:65:07:8f:ec:83:a5:e6:82:8c:0c:1d:61:
         a7:14:60:a0:4d:92:63:c0:1e:d5:1d:03:4c:fb:91:86:86:32:
         b9:3f:4a:80:7c:77:e4:b8:a7:58:d8:86:d1:43:9b:1b:a7:0f:
         e5:58:c1:14:b5:c6:28:ac:ca:5e:c3:61:d9:15:6b:19:3b:74:
         b9:9d:15:3b:25:1a:de:4b:c4:53:f6:5f:6b:a1:00:19:90:b2:
         8b:20:97:79:1b:06:dc:ab:05:d0:5e:3b:57:7f:13:a2:e4:76:
         8f:bb:0b:ec:1e:51:fc:1c:b4:c7:9c:76:e1:41:3f:fc:30:89:
         7f:cd:30:e4:ce:44:ef:a9:3c:15:4a:7a:ba:70:85:44:ef:ef:
         35:f2:e1:24:92:61:7f:a0:3f:ac:05:9f:62:f7:4e:0e:60:37:
         e0:0a:9b:46:d1:10:64:51:e8:48:f8:de:c9:a8:3d:af:71:2c:
         c6:f0:c4:2f:b7:6f:41:96:fe:55:3f:d9:30:25:7a:cf:c4:1e:
         3e:2b:aa:2c:f9:d7:9d:ee:87:59:78:cb:59:c2:62:80:80:03:
         62:e5:96:8e:15:81:55:7f:e4:70:08:8c:93:48:37:ff:54:b6:
         33:c2:2d:53:24:c9:84:15:f4:d0:76:29:28:b7:5e:73:96:94:
         75:76:ba:0d:5e:65:6c:75:56:b0:32:9e:25:0f:4e:1c:b8:18:
         8b:47:ad:b9:3f:10:5d:bf:61:1f:b0:b4:2e:2d:e0:be:a2:a2:
         ee:47:f0:5c:07:0b:3a:e0:e0:4d:1e:73:77:ab:ce:da:0f:ef:
         14:fe:b7:da:9d:39:3e:2c:65:67:d9:25:c9:1f:28:fa:5f:4d:
         87:6b:90:69:22:58:00:64:32:21:0e:58:56:d9:ce:7c:bd:8a:
         9a:1f:9d:26:7b:54:74:10:bd:d4:6a:db:43:23:79:dd:fd:68:
         0c:28:04:66:df:8a:37:f3:f5:06:91:87:ec:6e:59:c6:d4:70:
         ba:04:58:83:66:ce:6b:1b:ce:58:10:9f:8e:67:34:64:57:ec:
         9c:6a:9f:c3:05:c4:1b:2e:51:83:c3:74:61:17:10:82:92:95:
         cf:af:88:3e:69:4f:6b:c3:88:2d:f3:9b:e4:7f:f4:33:48:17:
         f6:98:22:4d:ab:1d:bd:e3:b0:ab:ba:60:aa:4f:ec:b4:3c:7e:
         1a:c4:56:84:71:dc:d0:af:58:11:1e:71:20:2a:e0:35:08:27:
         b5:35:f3:24:43:83:6c:8b:58:cf:c7:00:94:34:71:62:04:5a:
         91:1d:1f:7c:a7:80:5e:4e:e8:4e:34:c2:ae:1f:c7:76:39:b9:
         ec:23:76:ed:c6:75:33:7a
-----BEGIN CERTIFICATE-----
MIIFsTCCA5mgAwIBAgIBMjANBgkqhkiG9w0BAQUFADBqMQswCQYDVQQGEwJSUzEP
MA0GA1UECAwGU2VyYmlhMREwDwYDVQQHDAhCZWxncmFkZTEQMA4GA1UECgwHQ29k
ZVJlZDERMA8GA1UECwwIU2VjdXJpdHkxEjAQBgNVBAMMCUNsaWVudCBDQTAeFw0x
ODA0MDEyMDQ2NDBaFw0xOTA0MDEyMDQ2NDBaMDkxETAPBgNVBAoMCENvZGUgUmVk
MREwDwYDVQQLDAhTZWN1cml0eTERMA8GA1UEAwwIdXNlcm5hbWUwggIiMA0GCSqG
SIb3DQEBAQUAA4ICDwAwggIKAoICAQDNl13QjD2foZOKIVDOouwbcMze7GnkLE5/
Hru3Z4gpGMkZEwydxj8mCf4zVUrP6xJ9elCkyFQFk39eumbRgrITajL09hgmv3xG
4HFbtc+vXZZzUmWH17JqUWOKIj+OO8prLmbdcdWbSqrd5Jep2EETsCIgcfztNtkh
6S3btxMngg6SHAzOQ0iiEaXLfsU7HTlGMTeZSMnS81Zql3Dh/IkTDI9xTF8aGPYi
1JU2BHcsDkPZIsjT92SXhbWptOHrK/wxYAoXCMpV5WqD5yfx6OpQIaEkaxFW252n
rxCrMnv1ocAqcjq8KfWCHCHJpx2viOkKLLBmog5sHeWIp2JXCsJXDYyIEDA3fcq+
3azQVpkgzCw86id4XzR8LtEl+RSb//0ddHXaV/3NsS0YuEd8TToA2fJ83pgMmu9f
yRdBkfVuwKNbBe1F5+X8ld1d7qUwZi3DoSeyHqoEo+9/k548OLMVsnNclEWwwZnz
x337JVM3Lw7epeWjj3HW2QTM9lB0hTlUHI6tHB3KqKpbuflrqfLmswsp1LIgLfrk
tBkE8ETiC5HRn7A8nSgTpLWwYX8J65uUZjDUZk92orikKWjrN9OA3BiL3kYJ2q6c
NEjqfxhmqLgOIGL4i3YzMKlEuM2BDF4ReM0H1ZVFUzD/ezZQdmLXC5hcj/lsQNuf
SEqJx5VsZQIDAQABo4GSMIGPMA4GA1UdDwEB/wQEAwIFoDAJBgNVHRMEAjAAMBMG
A1UdJQQMMAoGCCsGAQUFBwMCMB0GA1UdDgQWBBRB2FstoawDA3hIjqs2MLO6Hmgh
azAfBgNVHSMEGDAWgBRATtt/gnp9wpfK5o4gBHm+9+vKtzAdBgNVHREEFjAUgRJw
cm92aWRlZEBlbWFpbC5jb20wDQYJKoZIhvcNAQEFBQADggIBAAcI7ppJXGUHj+yD
peaCjAwdYacUYKBNkmPAHtUdA0z7kYaGMrk/SoB8d+S4p1jYhtFDmxunD+VYwRS1
xiisyl7DYdkVaxk7dLmdFTslGt5LxFP2X2uhABmQsosgl3kbBtyrBdBeO1d/E6Lk
do+7C+weUfwctMecduFBP/wwiX/NMOTORO+pPBVKerpwhUTv7zXy4SSSYX+gP6wF
n2L3Tg5gN+AKm0bREGRR6Ej43smoPa9xLMbwxC+3b0GW/lU/2TAles/EHj4rqiz5
153uh1l4y1nCYoCAA2Lllo4VgVV/5HAIjJNIN/9UtjPCLVMkyYQV9NB2KSi3XnOW
lHV2ug1eZWx1VrAyniUPThy4GItHrbk/EF2/YR+wtC4t4L6iou5H8FwHCzrg4E0e
c3erztoP7xT+t9qdOT4sZWfZJckfKPpfTYdrkGkiWABkMiEOWFbZzny9ipofnSZ7
VHQQvdRq20Mjed39aAwoBGbfijfz9QaRh+xuWcbUcLoEWINmzmsbzlgQn45nNGRX
7Jxqn8MFxBsuUYPDdGEXEIKSlc+viD5pT2vDiC3zm+R/9DNIF/aYIk2rHb3jsKu6
YKpP7LQ8fhrEVoRx3NCvWBEecSAq4DUIJ7U18yRDg2yLWM/HAJQ0cWIEWpEdH3yn
gF5O6E40wq4fx3Y5uewjdu3GdTN6
-----END CERTIFICATE-----
