Certificate:
    Data:
        Version: 3 (0x2)
        Serial Number: 51 (0x33)
    Signature Algorithm: sha1WithRSAEncryption
        Issuer: C=RS, ST=Serbia, L=Belgrade, O=CodeRed, OU=Security, CN=Client CA
        Validity
            Not Before: Apr  1 20:54:28 2018 GMT
            Not After : Apr  1 20:54:28 2019 GMT
        Subject: O=Code Red, OU=Security, CN=username
        Subject Public Key Info:
            Public Key Algorithm: rsaEncryption
                Public-Key: (4096 bit)
                Modulus:
                    00:af:f5:3b:89:b6:7a:da:60:84:bb:54:bd:7a:77:
                    60:6e:05:2a:f2:ea:b6:17:09:27:97:d4:9b:9a:ca:
                    87:5e:01:a7:42:c4:36:07:e3:89:d3:28:8e:83:74:
                    db:6c:f4:8d:95:a7:61:ab:aa:1f:42:ff:bd:1f:1a:
                    34:a4:0b:07:de:25:22:81:a0:d4:c9:3e:9e:b3:6f:
                    00:02:fd:9f:ad:a9:d9:23:18:28:51:d7:af:e7:a5:
                    eb:5d:20:fc:f8:da:1d:8f:b8:6d:1a:31:d2:95:00:
                    ea:14:a7:13:89:b7:4f:1e:26:7d:9a:17:5b:dd:59:
                    4b:14:61:07:75:84:d3:18:37:ac:d0:2a:55:5f:ac:
                    c6:17:63:11:0d:1c:cb:3e:3e:92:54:81:35:5c:57:
                    af:1b:14:39:d5:9d:42:6b:5e:90:e7:ec:28:46:99:
                    ed:79:b8:6f:c6:fc:b2:45:87:0d:a4:84:3f:b5:9b:
                    49:1e:95:4c:fb:04:fa:1b:4f:2f:ce:0e:f0:bb:d3:
                    bb:ba:4d:90:91:b3:c0:f3:cb:a1:7f:3e:8d:1b:f1:
                    35:7c:21:71:73:e6:4b:a6:5f:2f:68:bf:e8:28:96:
                    36:8b:e8:3a:ab:93:aa:98:71:ba:91:fe:35:43:bd:
                    17:47:06:02:96:b3:c4:43:04:9a:f2:8b:e9:2c:fa:
                    50:3c:20:c8:81:1d:6d:0d:06:97:63:b7:6a:7c:c3:
                    68:69:f8:3c:a4:0c:3f:72:58:1e:20:2f:fc:dc:45:
                    87:c1:ea:51:97:84:51:98:c4:46:e0:2a:15:5c:5c:
                    a1:81:8d:f6:24:7f:09:2d:d1:0e:22:af:19:c7:a1:
                    15:fd:1a:f7:e1:47:24:37:95:bb:73:9e:7e:d7:97:
                    96:fb:94:a6:35:8e:b8:52:48:c7:95:0d:30:4b:7a:
                    7c:30:b5:a1:8b:42:d0:c1:ee:29:c2:3b:1c:99:de:
                    0b:71:4c:82:0b:42:86:d1:62:bb:59:40:a2:3e:6d:
                    7e:02:c3:86:45:b1:da:99:d5:c7:08:91:43:48:03:
                    ce:2c:96:a9:db:69:55:9d:68:d8:3a:6c:e5:ae:cb:
                    7c:16:ea:38:d4:71:cb:3d:b9:4c:ac:0a:57:92:e6:
                    5b:9a:94:2c:3d:0b:1e:92:02:ea:6d:4c:ce:a0:f2:
                    43:9a:72:bf:63:79:c4:94:82:3b:8f:29:60:4f:1f:
                    27:c6:89:87:1b:d4:0b:72:c3:8e:ad:50:12:93:5b:
                    8d:0e:00:3f:87:40:86:bf:79:ba:ce:5d:e0:45:90:
                    af:33:6a:84:7f:3a:49:e8:76:41:4d:29:f9:e5:9e:
                    e0:07:23:1a:48:15:55:14:21:78:b3:2f:5e:ac:4d:
                    b6:6d:2f
                Exponent: 65537 (0x10001)
        X509v3 extensions:
            X509v3 Key Usage: critical
                Digital Signature, Key Encipherment
            X509v3 Basic Constraints: 
                CA:FALSE
            X509v3 Extended Key Usage: 
                TLS Web Client Authentication
            X509v3 Subject Key Identifier: 
                68:7B:D0:0A:10:6F:09:C0:63:46:B5:58:CE:19:3E:E3:07:CA:2F:5D
            X509v3 Authority Key Identifier: 
                keyid:40:4E:DB:7F:82:7A:7D:C2:97:CA:E6:8E:20:04:79:BE:F7:EB:CA:B7

            X509v3 Subject Alternative Name: 
                email:provided@email.com
    Signature Algorithm: sha1WithRSAEncryption
         0f:4e:03:ed:3c:6f:86:51:ed:19:6d:86:6e:94:0d:d3:f2:16:
         b2:c0:d2:e1:fd:f1:d5:c1:72:ed:e6:df:d8:ba:ce:e6:87:23:
         ee:2b:a3:f8:6a:9e:ab:60:45:7b:bb:bf:b4:42:8e:b7:cb:74:
         b1:a3:a8:bd:48:d9:b3:9d:aa:af:74:39:a3:d3:cb:26:7e:26:
         1d:a1:2e:31:73:bb:67:48:19:58:c0:68:bd:04:b9:01:4e:89:
         78:82:d2:5f:06:a5:f8:d7:91:f8:58:0d:52:85:f2:bc:46:1e:
         77:a7:f3:33:0f:79:e1:97:67:2e:d0:6e:75:d0:f5:2b:b5:3f:
         27:19:ab:e9:14:bd:1a:88:ca:bb:4d:d6:0b:57:0c:f1:a0:bc:
         95:44:e2:96:8c:98:66:43:1e:b2:d5:72:59:5e:b0:cd:33:b9:
         72:9e:03:38:a3:96:0d:61:34:ee:bb:42:21:50:15:bd:20:eb:
         f5:9b:c4:9f:f2:5c:00:db:ca:a7:2d:8e:e5:8d:99:f3:55:5f:
         53:46:00:ef:62:fb:b7:e2:c3:0b:ad:38:be:af:70:f0:44:9c:
         0c:08:79:ac:ed:1b:23:97:50:00:7f:e4:e7:86:17:93:e7:47:
         d3:bc:8b:07:a7:e7:af:fb:34:68:99:b3:fb:1c:15:d9:80:24:
         e6:09:fb:f6:c8:54:07:98:8f:ef:d9:c0:03:ae:68:9f:39:8d:
         71:f8:22:1d:13:87:72:d8:e1:7b:54:94:dc:63:fd:b4:a1:a2:
         e6:3b:de:08:1b:9e:0e:5a:a2:ff:fc:63:cb:e3:bd:63:d3:9b:
         f6:3b:82:4e:f7:23:21:20:00:e4:bb:f9:83:4b:e7:97:e9:02:
         b0:86:42:94:45:f5:04:7d:b6:bf:b1:15:4d:22:f9:48:db:ba:
         96:5f:16:18:8e:9b:93:c6:57:00:8a:12:cb:c6:ed:37:0e:08:
         1c:37:3f:f1:9b:55:f5:d8:8e:6a:2c:06:f3:47:54:c9:7f:d8:
         bc:92:02:e3:ee:5e:e7:9d:12:90:9c:6a:45:a1:eb:df:dd:29:
         53:a4:77:8e:73:c3:43:6f:1e:f7:83:e4:b5:b6:7b:ae:0e:f9:
         9c:47:85:3e:b1:72:9c:a9:89:df:7e:8a:f8:ce:18:7e:a6:a4:
         e4:c6:34:66:50:7b:bf:36:ea:7d:23:ed:0d:84:73:ef:ee:5d:
         87:12:dc:1c:d2:39:21:81:bb:51:87:8b:a5:03:cf:bb:91:b1:
         02:a0:50:d2:49:73:f0:32:fc:26:5c:80:3c:bf:e5:0e:c1:b8:
         54:ae:e6:e8:db:b0:09:f0:b2:29:73:af:fc:36:e9:af:9a:87:
         51:e3:4c:cc:fc:90:fd:20
-----BEGIN CERTIFICATE-----
MIIFsTCCA5mgAwIBAgIBMzANBgkqhkiG9w0BAQUFADBqMQswCQYDVQQGEwJSUzEP
MA0GA1UECAwGU2VyYmlhMREwDwYDVQQHDAhCZWxncmFkZTEQMA4GA1UECgwHQ29k
ZVJlZDERMA8GA1UECwwIU2VjdXJpdHkxEjAQBgNVBAMMCUNsaWVudCBDQTAeFw0x
ODA0MDEyMDU0MjhaFw0xOTA0MDEyMDU0MjhaMDkxETAPBgNVBAoMCENvZGUgUmVk
MREwDwYDVQQLDAhTZWN1cml0eTERMA8GA1UEAwwIdXNlcm5hbWUwggIiMA0GCSqG
SIb3DQEBAQUAA4ICDwAwggIKAoICAQCv9TuJtnraYIS7VL16d2BuBSry6rYXCSeX
1JuayodeAadCxDYH44nTKI6DdNts9I2Vp2Grqh9C/70fGjSkCwfeJSKBoNTJPp6z
bwAC/Z+tqdkjGChR16/npetdIPz42h2PuG0aMdKVAOoUpxOJt08eJn2aF1vdWUsU
YQd1hNMYN6zQKlVfrMYXYxENHMs+PpJUgTVcV68bFDnVnUJrXpDn7ChGme15uG/G
/LJFhw2khD+1m0kelUz7BPobTy/ODvC707u6TZCRs8Dzy6F/Po0b8TV8IXFz5kum
Xy9ov+goljaL6Dqrk6qYcbqR/jVDvRdHBgKWs8RDBJryi+ks+lA8IMiBHW0NBpdj
t2p8w2hp+DykDD9yWB4gL/zcRYfB6lGXhFGYxEbgKhVcXKGBjfYkfwkt0Q4irxnH
oRX9GvfhRyQ3lbtznn7Xl5b7lKY1jrhSSMeVDTBLenwwtaGLQtDB7inCOxyZ3gtx
TIILQobRYrtZQKI+bX4Cw4ZFsdqZ1ccIkUNIA84slqnbaVWdaNg6bOWuy3wW6jjU
ccs9uUysCleS5lualCw9Cx6SAuptTM6g8kOacr9jecSUgjuPKWBPHyfGiYcb1Aty
w46tUBKTW40OAD+HQIa/ebrOXeBFkK8zaoR/OknodkFNKfnlnuAHIxpIFVUUIXiz
L16sTbZtLwIDAQABo4GSMIGPMA4GA1UdDwEB/wQEAwIFoDAJBgNVHRMEAjAAMBMG
A1UdJQQMMAoGCCsGAQUFBwMCMB0GA1UdDgQWBBRoe9AKEG8JwGNGtVjOGT7jB8ov
XTAfBgNVHSMEGDAWgBRATtt/gnp9wpfK5o4gBHm+9+vKtzAdBgNVHREEFjAUgRJw
cm92aWRlZEBlbWFpbC5jb20wDQYJKoZIhvcNAQEFBQADggIBAA9OA+08b4ZR7Rlt
hm6UDdPyFrLA0uH98dXBcu3m39i6zuaHI+4ro/hqnqtgRXu7v7RCjrfLdLGjqL1I
2bOdqq90OaPTyyZ+Jh2hLjFzu2dIGVjAaL0EuQFOiXiC0l8GpfjXkfhYDVKF8rxG
Hnen8zMPeeGXZy7QbnXQ9Su1PycZq+kUvRqIyrtN1gtXDPGgvJVE4paMmGZDHrLV
cllesM0zuXKeAzijlg1hNO67QiFQFb0g6/WbxJ/yXADbyqctjuWNmfNVX1NGAO9i
+7fiwwutOL6vcPBEnAwIeaztGyOXUAB/5OeGF5PnR9O8iwen56/7NGiZs/scFdmA
JOYJ+/bIVAeYj+/ZwAOuaJ85jXH4Ih0Th3LY4XtUlNxj/bShouY73ggbng5aov/8
Y8vjvWPTm/Y7gk73IyEgAOS7+YNL55fpArCGQpRF9QR9tr+xFU0i+UjbupZfFhiO
m5PGVwCKEsvG7TcOCBw3P/GbVfXYjmosBvNHVMl/2LySAuPuXuedEpCcakWh69/d
KVOkd45zw0NvHveD5LW2e64O+ZxHhT6xcpypid9+ivjOGH6mpOTGNGZQe7826n0j
7Q2Ec+/uXYcS3BzSOSGBu1GHi6UDz7uRsQKgUNJJc/Ay/CZcgDy/5Q7BuFSu5ujb
sAnwsilzr/w26a+ah1HjTMz8kP0g
-----END CERTIFICATE-----
