Certificate:
    Data:
        Version: 3 (0x2)
        Serial Number: 52 (0x34)
    Signature Algorithm: sha1WithRSAEncryption
        Issuer: C=RS, ST=Serbia, L=Belgrade, O=CodeRed, OU=Security, CN=Client CA
        Validity
            Not Before: Apr  1 21:00:13 2018 GMT
            Not After : Apr  1 21:00:13 2019 GMT
        Subject: O=Code Red, OU=Security, CN=username
        Subject Public Key Info:
            Public Key Algorithm: rsaEncryption
                Public-Key: (4096 bit)
                Modulus:
                    00:af:23:4c:fe:8a:9c:78:a6:5f:09:a6:1c:33:d1:
                    77:d3:e3:cd:44:2f:d4:23:ee:85:91:ec:ef:2e:d6:
                    60:41:a3:61:28:b0:65:22:ee:e4:da:9f:c8:8c:27:
                    05:e6:e1:48:7a:11:bf:63:ad:95:c5:5f:f4:8c:48:
                    e7:0c:31:2d:b0:86:c2:68:07:eb:90:cf:9b:75:a3:
                    1b:9d:cb:79:36:ab:52:a1:b8:8a:82:b5:12:0f:91:
                    49:b5:68:aa:c2:96:94:b2:c9:29:71:1c:45:f5:95:
                    fb:5a:eb:33:72:57:fc:3c:64:fb:9e:5c:2d:7b:56:
                    65:7f:50:85:01:69:14:ad:dd:41:04:df:d5:7a:2b:
                    06:98:46:5e:4e:83:d2:f7:cb:b4:5d:04:c2:99:f1:
                    67:ef:24:17:32:90:46:1d:18:fd:fc:d7:d2:78:8b:
                    ff:80:aa:07:a4:45:bd:f8:92:0c:80:e4:be:02:a6:
                    f9:cf:3a:9f:a2:f2:1f:78:bf:49:cd:e7:49:4b:7a:
                    79:94:07:d4:53:54:b7:2e:62:22:5e:1f:b5:e1:2f:
                    76:0d:26:c7:6b:aa:13:22:ff:fe:b5:9c:59:f5:6a:
                    ac:fa:a8:53:c4:36:42:98:c2:e4:57:64:0b:f1:a8:
                    fa:6e:c9:28:88:29:e4:3c:29:8e:6c:40:8f:56:39:
                    82:69:4f:a5:98:9d:3d:ad:ce:cc:06:66:4f:f5:e6:
                    2a:ec:b2:ed:cd:72:6e:40:79:0a:7f:98:c3:f7:1d:
                    53:b6:d5:95:14:b0:a7:5c:f6:15:27:2d:cc:8f:35:
                    ac:a6:d5:c8:d5:d6:ca:ed:ac:d2:5f:88:02:19:b6:
                    39:34:03:21:aa:44:d0:bb:e4:aa:1b:1a:39:0c:f3:
                    55:3d:37:b2:9f:d3:38:33:96:0a:80:eb:71:51:3a:
                    2d:25:e6:be:17:a3:52:09:90:90:17:3c:09:5e:a5:
                    bb:7d:ba:76:b3:95:c8:76:67:72:fa:39:e8:7d:c2:
                    ac:89:59:3d:17:c4:ae:d5:ad:b3:15:26:0d:e1:bc:
                    cb:71:82:c0:ad:da:b9:56:34:ac:dd:2d:c7:b7:97:
                    5f:dd:c2:56:3e:96:6e:c9:37:2a:c8:a9:88:15:57:
                    c9:8d:05:8e:bf:46:dd:48:ce:c4:82:87:56:c3:4e:
                    df:a4:5c:3a:6c:36:ec:a9:44:7e:5b:c0:5d:97:e2:
                    29:79:60:d6:d5:31:fd:b4:78:2c:e7:01:7d:d3:be:
                    9b:8c:6d:52:32:66:fc:46:60:fc:8e:ec:ed:94:db:
                    bc:0c:b4:ee:5d:e7:f3:ca:13:73:f9:e1:e3:6d:4f:
                    0d:d3:5c:c8:76:73:67:e4:5e:47:1e:c4:55:88:43:
                    13:73:b9
                Exponent: 65537 (0x10001)
        X509v3 extensions:
            X509v3 Key Usage: critical
                Digital Signature, Key Encipherment
            X509v3 Basic Constraints: 
                CA:FALSE
            X509v3 Extended Key Usage: 
                TLS Web Client Authentication
            X509v3 Subject Key Identifier: 
                84:94:CF:5C:DB:C5:17:05:DF:6E:CC:32:ED:EA:A5:81:B3:1D:CE:AE
            X509v3 Authority Key Identifier: 
                keyid:40:4E:DB:7F:82:7A:7D:C2:97:CA:E6:8E:20:04:79:BE:F7:EB:CA:B7

            X509v3 Subject Alternative Name: 
                email:provided@email.com
    Signature Algorithm: sha1WithRSAEncryption
         91:cc:de:fc:2a:31:87:77:3a:7c:23:31:63:f0:ef:d9:59:2e:
         53:7b:0f:93:5e:0c:d9:4d:be:d2:b2:89:95:d2:6c:c4:0b:3c:
         2a:b3:12:c3:42:96:24:97:fe:d7:c8:61:fc:0f:2c:cc:ef:00:
         7e:c7:43:fb:17:49:61:93:a3:49:dc:cc:49:5a:15:33:e0:ba:
         7b:bf:61:7c:44:70:bb:a1:50:00:2a:d8:a1:c4:50:da:e3:4a:
         dd:15:c6:46:12:a8:60:1d:38:ea:22:99:87:9a:d1:92:5c:0b:
         87:25:50:99:e2:e0:a6:17:3a:d2:00:23:01:53:97:0d:de:47:
         8b:69:e7:b9:30:74:1b:e1:f2:64:0b:19:67:21:cd:73:a3:b3:
         d0:ba:f8:d7:aa:11:c1:e1:ac:2b:1d:28:30:f1:6f:f7:20:0a:
         45:5a:5d:1a:48:61:40:04:d9:3f:4c:ff:d8:c8:12:66:b2:9f:
         6d:67:65:c9:1c:3c:25:4e:9c:9e:42:4f:6d:8b:ec:c0:f3:e5:
         b6:e0:d0:93:d4:c3:a9:c8:f5:76:3c:96:46:ee:ff:b4:52:b8:
         ef:a3:ca:c5:d6:1a:1d:cf:64:5d:e0:ab:65:cc:76:51:74:d4:
         94:b0:00:f2:95:5c:b2:9d:9f:fd:56:87:0b:6e:9a:a6:1a:b3:
         b1:d0:07:4a:65:dd:f4:f7:9f:d2:35:71:3b:eb:d9:a4:00:43:
         40:03:bc:25:90:c5:48:3f:1f:0b:44:c2:b7:3b:64:c1:f0:3a:
         2a:dd:60:5b:b9:2e:c0:a9:f7:1a:22:35:f6:3d:8c:17:84:53:
         ed:e7:6e:51:e7:1f:c5:ae:6b:ba:f8:91:aa:77:2f:18:9e:b3:
         0f:ca:0f:f1:15:eb:76:8e:24:9b:66:6d:86:b0:06:d8:2b:25:
         f0:41:fb:71:41:0b:e7:d6:f4:f2:90:66:9f:97:ae:f7:e2:ae:
         d1:f0:3c:ab:ba:57:ff:3b:0f:04:41:19:9e:59:64:c1:d0:76:
         24:a6:b0:2f:8f:a5:30:24:4b:3f:25:be:4e:ff:43:48:ef:e6:
         09:be:86:8d:4f:6a:d2:d4:8b:f1:bb:d8:8d:67:22:49:f7:df:
         7f:16:cf:90:3c:36:13:34:44:54:7e:fc:02:0c:b7:0a:91:3c:
         35:71:59:bd:3c:86:8b:e5:d4:d1:60:bb:f2:5e:d4:66:e8:15:
         fb:45:b4:55:b3:aa:9f:20:e9:88:11:81:44:15:21:33:55:dd:
         cd:b5:34:9e:38:34:03:4b:cc:80:9f:09:db:08:9d:9c:42:f2:
         f1:83:b2:6f:a4:d3:6d:6a:c0:ab:48:62:31:08:03:16:e0:a0:
         84:1b:da:24:67:50:c1:f1
-----BEGIN CERTIFICATE-----
MIIFsTCCA5mgAwIBAgIBNDANBgkqhkiG9w0BAQUFADBqMQswCQYDVQQGEwJSUzEP
MA0GA1UECAwGU2VyYmlhMREwDwYDVQQHDAhCZWxncmFkZTEQMA4GA1UECgwHQ29k
ZVJlZDERMA8GA1UECwwIU2VjdXJpdHkxEjAQBgNVBAMMCUNsaWVudCBDQTAeFw0x
ODA0MDEyMTAwMTNaFw0xOTA0MDEyMTAwMTNaMDkxETAPBgNVBAoMCENvZGUgUmVk
MREwDwYDVQQLDAhTZWN1cml0eTERMA8GA1UEAwwIdXNlcm5hbWUwggIiMA0GCSqG
SIb3DQEBAQUAA4ICDwAwggIKAoICAQCvI0z+ipx4pl8Jphwz0XfT481EL9Qj7oWR
7O8u1mBBo2EosGUi7uTan8iMJwXm4Uh6Eb9jrZXFX/SMSOcMMS2whsJoB+uQz5t1
oxudy3k2q1KhuIqCtRIPkUm1aKrClpSyySlxHEX1lfta6zNyV/w8ZPueXC17VmV/
UIUBaRSt3UEE39V6KwaYRl5Og9L3y7RdBMKZ8WfvJBcykEYdGP3819J4i/+Aqgek
Rb34kgyA5L4CpvnPOp+i8h94v0nN50lLenmUB9RTVLcuYiJeH7XhL3YNJsdrqhMi
//61nFn1aqz6qFPENkKYwuRXZAvxqPpuySiIKeQ8KY5sQI9WOYJpT6WYnT2tzswG
Zk/15irssu3Ncm5AeQp/mMP3HVO21ZUUsKdc9hUnLcyPNaym1cjV1srtrNJfiAIZ
tjk0AyGqRNC75KobGjkM81U9N7Kf0zgzlgqA63FROi0l5r4Xo1IJkJAXPAlepbt9
unazlch2Z3L6Oeh9wqyJWT0XxK7VrbMVJg3hvMtxgsCt2rlWNKzdLce3l1/dwlY+
lm7JNyrIqYgVV8mNBY6/Rt1IzsSCh1bDTt+kXDpsNuypRH5bwF2X4il5YNbVMf20
eCznAX3TvpuMbVIyZvxGYPyO7O2U27wMtO5d5/PKE3P54eNtTw3TXMh2c2fkXkce
xFWIQxNzuQIDAQABo4GSMIGPMA4GA1UdDwEB/wQEAwIFoDAJBgNVHRMEAjAAMBMG
A1UdJQQMMAoGCCsGAQUFBwMCMB0GA1UdDgQWBBSElM9c28UXBd9uzDLt6qWBsx3O
rjAfBgNVHSMEGDAWgBRATtt/gnp9wpfK5o4gBHm+9+vKtzAdBgNVHREEFjAUgRJw
cm92aWRlZEBlbWFpbC5jb20wDQYJKoZIhvcNAQEFBQADggIBAJHM3vwqMYd3Onwj
MWPw79lZLlN7D5NeDNlNvtKyiZXSbMQLPCqzEsNCliSX/tfIYfwPLMzvAH7HQ/sX
SWGTo0nczElaFTPgunu/YXxEcLuhUAAq2KHEUNrjSt0VxkYSqGAdOOoimYea0ZJc
C4clUJni4KYXOtIAIwFTlw3eR4tp57kwdBvh8mQLGWchzXOjs9C6+NeqEcHhrCsd
KDDxb/cgCkVaXRpIYUAE2T9M/9jIEmayn21nZckcPCVOnJ5CT22L7MDz5bbg0JPU
w6nI9XY8lkbu/7RSuO+jysXWGh3PZF3gq2XMdlF01JSwAPKVXLKdn/1WhwtumqYa
s7HQB0pl3fT3n9I1cTvr2aQAQ0ADvCWQxUg/HwtEwrc7ZMHwOirdYFu5LsCp9xoi
NfY9jBeEU+3nblHnH8Wua7r4kap3Lxiesw/KD/EV63aOJJtmbYawBtgrJfBB+3FB
C+fW9PKQZp+XrvfirtHwPKu6V/87DwRBGZ5ZZMHQdiSmsC+PpTAkSz8lvk7/Q0jv
5gm+ho1PatLUi/G72I1nIkn3338Wz5A8NhM0RFR+/AIMtwqRPDVxWb08hovl1NFg
u/Je1GboFftFtFWzqp8g6YgRgUQVITNV3c21NJ44NANLzICfCdsInZxC8vGDsm+k
021qwKtIYjEIAxbgoIQb2iRnUMHx
-----END CERTIFICATE-----
