Certificate:
    Data:
        Version: 3 (0x2)
        Serial Number: 53 (0x35)
    Signature Algorithm: sha1WithRSAEncryption
        Issuer: C=RS, ST=Serbia, L=Belgrade, O=CodeRed, OU=Security, CN=Client CA
        Validity
            Not Before: Apr  1 21:00:42 2018 GMT
            Not After : Apr  1 21:00:42 2019 GMT
        Subject: O=Code Red, OU=Security, CN=username
        Subject Public Key Info:
            Public Key Algorithm: rsaEncryption
                Public-Key: (4096 bit)
                Modulus:
                    00:cc:90:0a:d6:87:0c:3d:3d:0c:16:21:c0:39:3f:
                    47:41:a5:a1:e4:67:d5:7c:65:cb:b6:78:21:a9:ec:
                    c8:17:a6:3d:6b:0e:be:ab:e2:7d:f4:29:44:ec:d1:
                    d1:1f:85:2f:b3:39:11:fb:e1:b0:f7:88:80:d1:2d:
                    e2:94:9b:88:6e:8c:16:5f:77:61:be:da:c5:d7:37:
                    21:d7:ab:c6:69:c6:58:9f:8e:21:a8:f6:72:3d:ee:
                    3f:7e:db:6e:b2:e2:c5:cb:7c:9d:3e:5d:2c:d9:f4:
                    c2:1f:39:08:ee:2e:65:da:50:79:12:a1:1a:bf:0c:
                    ca:60:18:23:f2:78:bc:89:a4:be:0f:d7:31:19:29:
                    cb:08:1a:77:d2:59:91:23:0a:b1:9f:56:ac:29:9d:
                    9e:18:75:20:c8:c9:e1:e4:81:7c:28:08:c0:5b:ec:
                    49:a4:8c:09:57:84:f7:c3:3a:7b:f9:a6:2f:69:9a:
                    9e:3c:42:4a:42:ca:ca:32:ce:f5:4a:8e:88:e6:9c:
                    67:31:6a:d8:e2:4a:b0:ef:59:e9:eb:e2:e8:93:d9:
                    a1:1f:bb:8b:e5:cb:7a:ec:c2:8f:3f:0d:cb:52:27:
                    9d:9d:86:18:a5:bd:f9:ef:bb:16:dc:b0:a6:bf:8b:
                    29:20:d9:cd:5e:92:50:0d:4c:43:67:56:06:bc:a5:
                    79:16:ef:48:75:a0:40:ce:61:7b:c4:e0:e3:57:93:
                    c9:c5:8c:d3:ad:30:6e:7c:57:63:1b:7b:02:d8:48:
                    28:8d:50:10:95:35:20:fb:0e:c9:fb:54:a0:40:75:
                    1f:bd:83:39:d9:8d:13:0b:64:69:9c:43:b6:22:b4:
                    09:7d:77:0f:77:94:aa:04:57:ab:7c:41:3c:8a:b9:
                    66:3b:92:05:e5:42:a3:3b:c1:a4:0c:8d:8a:e2:f3:
                    d0:01:27:73:59:2d:9a:ad:c3:95:fc:fb:42:76:17:
                    07:2c:f6:96:7f:8a:07:ff:62:36:7a:98:83:8a:99:
                    2f:ce:fe:78:c1:97:0f:6b:ed:ad:7b:cb:82:23:32:
                    cd:11:ca:35:f6:aa:be:5b:a0:11:90:2b:05:5e:e0:
                    96:84:03:fa:b6:53:a5:96:db:ff:66:3e:a7:6c:c4:
                    17:2b:87:82:e3:4d:4c:d2:64:ef:5d:99:93:d4:01:
                    93:3c:e0:23:b4:40:02:c6:d2:f0:fa:fa:ac:53:14:
                    62:e5:f7:db:dd:e0:88:8e:7e:a6:3a:af:e5:e6:47:
                    d1:c1:d3:a3:35:ba:70:ff:4b:bc:2e:e8:67:b4:56:
                    02:27:33:1f:78:36:c7:ed:ff:15:d1:44:f7:b1:91:
                    97:70:7b:0b:65:57:cd:0d:7b:6a:20:39:81:3d:ac:
                    56:7d:39
                Exponent: 65537 (0x10001)
        X509v3 extensions:
            X509v3 Key Usage: critical
                Digital Signature, Key Encipherment
            X509v3 Basic Constraints: 
                CA:FALSE
            X509v3 Extended Key Usage: 
                TLS Web Client Authentication
            X509v3 Subject Key Identifier: 
                76:82:17:95:A9:02:04:5C:CB:13:9B:33:BB:CD:27:59:BE:ED:B1:85
            X509v3 Authority Key Identifier: 
                keyid:40:4E:DB:7F:82:7A:7D:C2:97:CA:E6:8E:20:04:79:BE:F7:EB:CA:B7

            X509v3 Subject Alternative Name: 
                email:provided@email.com
    Signature Algorithm: sha1WithRSAEncryption
         52:50:cf:00:34:78:59:2c:26:34:70:a0:e3:95:f7:02:84:96:
         96:87:cc:ea:64:f9:36:e0:c2:56:c7:6c:e3:9a:08:4f:8e:14:
         50:21:ea:2c:ed:a4:82:6a:a9:60:cb:71:4a:31:90:28:a3:71:
         da:98:3a:a8:3b:c1:6d:7c:07:8f:18:14:ca:24:9d:6b:92:4e:
         e1:46:f8:3a:36:f6:01:dc:7b:20:d3:81:88:a8:98:3a:0e:7a:
         66:42:5e:44:75:35:60:39:bf:ad:d7:53:c9:8d:7e:89:fb:16:
         90:cf:28:33:4a:39:d9:3c:b0:fc:bf:39:bf:f0:93:e0:7a:ec:
         28:57:7d:db:47:e4:f9:8e:98:44:54:37:a3:65:08:db:b6:6e:
         19:58:cb:dd:73:f9:ab:d3:ac:eb:62:f2:00:79:1b:da:68:0d:
         31:f2:e7:5f:ff:8a:1e:31:20:7f:fa:41:86:ae:e5:5c:b7:c1:
         1a:80:ea:b8:d1:f4:af:db:3d:96:04:24:c8:6d:bd:b8:1e:de:
         48:14:c5:84:38:13:45:36:a7:d5:ba:f4:15:72:ac:b7:33:d9:
         0a:2c:f3:e5:50:36:9f:b3:28:7e:c1:dc:88:4e:13:80:f3:b8:
         c7:c6:1e:69:70:56:69:ec:48:1e:b6:ea:03:be:b6:19:e6:95:
         f1:fe:09:a8:99:a1:fb:12:b8:40:b9:dc:21:8a:4b:f4:92:e2:
         2d:32:de:05:13:a4:12:a5:8b:0f:13:05:a1:fa:bc:61:32:c7:
         fd:08:90:fa:87:2a:4c:81:b7:90:a6:82:82:a1:81:cc:10:4f:
         23:2f:7b:1d:e6:59:ca:5b:3f:03:51:c2:f0:a3:8b:78:08:8a:
         13:d2:3f:89:ab:a0:cd:ff:fd:02:90:22:bd:1c:bf:5d:a2:42:
         f2:5e:67:3f:44:b9:75:cc:e8:d3:90:36:6e:48:30:11:bf:37:
         7a:b6:92:91:aa:09:33:76:ba:28:25:2e:5c:07:fd:13:1e:41:
         9a:5f:8b:73:e0:e5:68:1e:28:83:cb:d7:28:18:9d:c7:c5:9c:
         2b:0f:24:c4:a1:80:2b:18:5c:d2:0c:76:22:4a:56:19:e6:86:
         aa:0f:c7:d9:39:0c:7d:1c:a5:84:f0:1b:d8:24:1e:79:0c:31:
         24:7b:3a:13:55:f5:4e:e8:53:6d:ca:74:35:9f:29:58:5a:5f:
         1d:aa:59:f1:11:1c:2b:18:45:e6:ea:8c:52:da:bd:58:b2:9c:
         4b:22:9c:0c:3a:8d:4c:d0:af:57:55:cb:d2:36:9d:38:7d:7b:
         7d:47:3d:05:a2:59:3a:44:5f:ef:ce:83:18:b3:3a:36:18:54:
         12:f3:c2:c1:d2:12:c7:ce
-----BEGIN CERTIFICATE-----
MIIFsTCCA5mgAwIBAgIBNTANBgkqhkiG9w0BAQUFADBqMQswCQYDVQQGEwJSUzEP
MA0GA1UECAwGU2VyYmlhMREwDwYDVQQHDAhCZWxncmFkZTEQMA4GA1UECgwHQ29k
ZVJlZDERMA8GA1UECwwIU2VjdXJpdHkxEjAQBgNVBAMMCUNsaWVudCBDQTAeFw0x
ODA0MDEyMTAwNDJaFw0xOTA0MDEyMTAwNDJaMDkxETAPBgNVBAoMCENvZGUgUmVk
MREwDwYDVQQLDAhTZWN1cml0eTERMA8GA1UEAwwIdXNlcm5hbWUwggIiMA0GCSqG
SIb3DQEBAQUAA4ICDwAwggIKAoICAQDMkArWhww9PQwWIcA5P0dBpaHkZ9V8Zcu2
eCGp7MgXpj1rDr6r4n30KUTs0dEfhS+zORH74bD3iIDRLeKUm4hujBZfd2G+2sXX
NyHXq8ZpxlifjiGo9nI97j9+226y4sXLfJ0+XSzZ9MIfOQjuLmXaUHkSoRq/DMpg
GCPyeLyJpL4P1zEZKcsIGnfSWZEjCrGfVqwpnZ4YdSDIyeHkgXwoCMBb7EmkjAlX
hPfDOnv5pi9pmp48QkpCysoyzvVKjojmnGcxatjiSrDvWenr4uiT2aEfu4vly3rs
wo8/DctSJ52dhhilvfnvuxbcsKa/iykg2c1eklANTENnVga8pXkW70h1oEDOYXvE
4ONXk8nFjNOtMG58V2MbewLYSCiNUBCVNSD7Dsn7VKBAdR+9gznZjRMLZGmcQ7Yi
tAl9dw93lKoEV6t8QTyKuWY7kgXlQqM7waQMjYri89ABJ3NZLZqtw5X8+0J2Fwcs
9pZ/igf/YjZ6mIOKmS/O/njBlw9r7a17y4IjMs0RyjX2qr5boBGQKwVe4JaEA/q2
U6WW2/9mPqdsxBcrh4LjTUzSZO9dmZPUAZM84CO0QALG0vD6+qxTFGLl99vd4IiO
fqY6r+XmR9HB06M1unD/S7wu6Ge0VgInMx94Nsft/xXRRPexkZdwewtlV80Ne2og
OYE9rFZ9OQIDAQABo4GSMIGPMA4GA1UdDwEB/wQEAwIFoDAJBgNVHRMEAjAAMBMG
A1UdJQQMMAoGCCsGAQUFBwMCMB0GA1UdDgQWBBR2gheVqQIEXMsTmzO7zSdZvu2x
hTAfBgNVHSMEGDAWgBRATtt/gnp9wpfK5o4gBHm+9+vKtzAdBgNVHREEFjAUgRJw
cm92aWRlZEBlbWFpbC5jb20wDQYJKoZIhvcNAQEFBQADggIBAFJQzwA0eFksJjRw
oOOV9wKElpaHzOpk+TbgwlbHbOOaCE+OFFAh6iztpIJqqWDLcUoxkCijcdqYOqg7
wW18B48YFMoknWuSTuFG+Do29gHceyDTgYiomDoOemZCXkR1NWA5v63XU8mNfon7
FpDPKDNKOdk8sPy/Ob/wk+B67ChXfdtH5PmOmERUN6NlCNu2bhlYy91z+avTrOti
8gB5G9poDTHy51//ih4xIH/6QYau5Vy3wRqA6rjR9K/bPZYEJMhtvbge3kgUxYQ4
E0U2p9W69BVyrLcz2Qos8+VQNp+zKH7B3IhOE4DzuMfGHmlwVmnsSB626gO+thnm
lfH+CaiZofsSuEC53CGKS/SS4i0y3gUTpBKliw8TBaH6vGEyx/0IkPqHKkyBt5Cm
goKhgcwQTyMvex3mWcpbPwNRwvCji3gIihPSP4mroM3//QKQIr0cv12iQvJeZz9E
uXXM6NOQNm5IMBG/N3q2kpGqCTN2uiglLlwH/RMeQZpfi3Pg5WgeKIPL1ygYncfF
nCsPJMShgCsYXNIMdiJKVhnmhqoPx9k5DH0cpYTwG9gkHnkMMSR7OhNV9U7oU23K
dDWfKVhaXx2qWfERHCsYRebqjFLavViynEsinAw6jUzQr1dVy9I2nTh9e31HPQWi
WTpEX+/OgxizOjYYVBLzwsHSEsfO
-----END CERTIFICATE-----
