Certificate:
    Data:
        Version: 3 (0x2)
        Serial Number: 54 (0x36)
    Signature Algorithm: sha1WithRSAEncryption
        Issuer: C=RS, ST=Serbia, L=Belgrade, O=CodeRed, OU=Security, CN=Client CA
        Validity
            Not Before: Apr  1 21:08:31 2018 GMT
            Not After : Apr  1 21:08:31 2019 GMT
        Subject: O=Code Red, OU=Security, CN=username
        Subject Public Key Info:
            Public Key Algorithm: rsaEncryption
                Public-Key: (4096 bit)
                Modulus:
                    00:ce:dc:67:06:da:d1:2b:f0:d5:62:ff:40:68:d5:
                    76:c2:a0:a9:f1:9b:a2:9e:51:45:20:69:96:23:57:
                    70:27:c2:f8:75:1a:99:4a:20:83:99:34:03:2f:37:
                    3a:2c:5e:01:83:34:0c:76:7a:f3:f4:14:96:1c:39:
                    39:64:36:69:12:7f:85:ad:31:3b:bc:fc:26:d4:74:
                    b7:8b:bb:92:8e:0e:96:66:a7:18:d8:24:9c:0a:92:
                    90:5b:e2:00:40:92:c6:a2:28:49:40:5a:2f:7e:15:
                    c7:74:fb:a0:5e:97:0c:28:5b:c0:33:b2:01:ea:29:
                    98:81:c0:02:1c:06:70:6a:46:74:8b:59:61:d6:d4:
                    29:d6:df:d4:4a:18:51:15:07:f8:ec:4c:7b:d3:8c:
                    0b:16:ec:b8:d7:6d:1b:57:9f:31:0d:25:13:0a:5d:
                    b9:f7:dc:77:34:e5:3a:b2:d1:49:f9:bc:d7:4b:0d:
                    91:2c:c4:d0:13:9c:13:7e:c5:4a:11:90:e5:b4:cd:
                    d0:f5:7e:0c:a2:6b:26:da:97:fa:e6:bc:00:7b:85:
                    38:e0:0a:5d:72:3d:dc:97:4b:f6:f6:af:ce:d8:29:
                    49:e8:90:82:e3:a0:b9:30:71:a1:ee:b9:25:09:7b:
                    e7:3c:85:e1:6a:69:7b:76:1c:ad:e9:ab:6b:48:7e:
                    60:c6:e2:26:63:86:53:12:3c:98:85:f2:aa:41:67:
                    39:cd:a2:9c:2c:c2:e9:c3:91:ad:8d:b6:40:cd:76:
                    5d:2e:95:de:4c:21:5f:ab:34:65:d1:23:09:2a:f2:
                    d8:54:b5:33:0c:0b:a7:cf:b9:c3:31:4a:ca:c0:7b:
                    a5:28:45:c2:68:29:67:42:fb:b7:9d:d7:49:8f:13:
                    61:47:5c:e8:f4:00:d8:10:9d:c9:2b:f3:8b:57:6a:
                    82:54:1b:50:83:11:37:cc:50:c6:93:b5:c1:b8:e5:
                    80:21:c3:f3:ce:76:e8:83:24:a9:07:ce:a8:de:6b:
                    cb:f8:89:95:31:e0:53:ab:de:6d:97:e7:d8:f8:64:
                    25:84:3f:ec:98:de:df:3a:b2:94:eb:c5:09:60:a6:
                    37:df:44:e5:6e:69:d7:35:b2:38:18:9c:67:d0:e2:
                    f5:99:04:f3:f1:c2:7f:3f:4f:75:b4:5a:cb:38:23:
                    a8:9f:4b:79:c4:e4:5a:59:a7:ba:64:ae:74:5e:56:
                    47:36:e5:c7:19:67:11:0f:45:a7:30:77:a5:33:2f:
                    28:59:24:ec:18:d2:77:3c:b6:b9:76:4e:39:db:a0:
                    ad:03:df:25:89:cc:62:64:d5:d2:84:60:74:c7:44:
                    e8:a8:1a:ad:f0:11:d5:f4:85:a0:e6:d7:15:33:4d:
                    79:1f:9f
                Exponent: 65537 (0x10001)
        X509v3 extensions:
            X509v3 Key Usage: critical
                Digital Signature, Key Encipherment
            X509v3 Basic Constraints: 
                CA:FALSE
            X509v3 Extended Key Usage: 
                TLS Web Client Authentication
            X509v3 Subject Key Identifier: 
                11:F6:9E:57:62:73:EE:CE:7B:14:CE:48:AB:CA:0F:87:E7:8D:C2:8B
            X509v3 Authority Key Identifier: 
                keyid:40:4E:DB:7F:82:7A:7D:C2:97:CA:E6:8E:20:04:79:BE:F7:EB:CA:B7

            X509v3 Subject Alternative Name: 
                email:provided@email.com
    Signature Algorithm: sha1WithRSAEncryption
         19:59:69:a8:ea:4e:2b:a8:54:00:f1:73:2d:ed:29:51:85:24:
         25:27:06:ce:ec:10:35:f4:b1:29:6c:5a:ef:ac:b2:2c:3c:1d:
         18:92:4f:76:9d:6e:aa:c8:f8:fa:81:e5:65:d3:3d:f9:ed:d2:
         cc:d0:44:11:04:1e:1b:1f:41:fa:39:8b:03:86:d5:b1:c3:a0:
         bf:f9:45:ed:4e:c7:23:7c:32:0a:e0:2a:21:ea:89:14:86:0a:
         c2:c6:dc:db:b4:89:bb:9e:12:d0:41:39:98:db:c1:53:df:07:
         c4:de:82:8e:fe:2a:a9:52:25:2b:8c:1d:3d:cd:c4:0a:93:8d:
         e4:52:7b:e4:f5:5d:d9:45:52:98:41:be:aa:f1:0f:b2:38:b1:
         50:96:b0:d5:65:57:af:28:fe:08:67:7c:66:b4:f0:27:f2:cf:
         53:5b:54:0c:de:c7:be:df:36:a4:86:88:13:74:c6:40:cf:d0:
         02:3c:f4:69:1e:3d:9b:c4:f2:ea:f8:6d:e7:7f:0b:d1:bd:58:
         69:19:dc:d8:6f:42:32:a6:67:fd:38:c7:53:d6:d2:92:55:6a:
         7f:26:00:d9:01:2d:6f:7d:40:f5:49:ec:aa:cc:78:b3:61:b1:
         6c:2e:f3:ed:46:21:85:8f:07:69:97:c5:ef:1a:48:cb:b8:32:
         37:7c:09:74:fe:90:48:84:d9:0e:48:04:5a:74:1f:6f:54:fc:
         83:a9:ca:f2:ed:b7:cd:10:40:34:bd:4d:76:2d:8c:79:76:9d:
         6e:d4:14:b8:ce:41:45:6d:fe:a8:b9:7d:ec:e8:28:27:60:ff:
         ef:90:2c:26:77:fd:1d:fb:b9:fc:92:0e:17:08:ae:c9:ad:b2:
         34:61:2a:0c:b7:88:37:98:32:36:bf:30:72:51:68:7b:f5:b8:
         5d:e4:53:94:e4:b1:3a:e8:f8:7b:ea:a1:ec:14:bb:6d:b5:1f:
         f6:82:d0:47:ba:97:6a:2a:6b:8c:0d:e0:2d:a6:12:80:c4:a7:
         02:a0:81:04:3e:ec:42:4a:05:7d:f2:0c:98:7c:2b:81:45:d3:
         4d:4c:5b:6c:6e:f4:48:37:4a:b3:13:aa:b9:2b:b8:fd:82:8d:
         ff:11:67:ae:56:44:07:61:34:f8:37:2b:c9:53:77:a2:f0:de:
         99:00:68:8c:37:7c:c7:8f:a9:b4:4e:47:1d:57:08:90:89:a1:
         21:2e:95:93:17:d7:b8:fe:95:6f:e7:05:ee:59:16:27:34:11:
         e3:b2:06:b0:42:69:0a:c0:c6:0b:19:b5:a5:73:a5:16:62:e8:
         f0:64:df:49:ad:1a:d9:c7:50:93:7c:b1:83:26:a4:c1:6c:21:
         55:8d:77:16:22:97:23:ac
-----BEGIN CERTIFICATE-----
MIIFsTCCA5mgAwIBAgIBNjANBgkqhkiG9w0BAQUFADBqMQswCQYDVQQGEwJSUzEP
MA0GA1UECAwGU2VyYmlhMREwDwYDVQQHDAhCZWxncmFkZTEQMA4GA1UECgwHQ29k
ZVJlZDERMA8GA1UECwwIU2VjdXJpdHkxEjAQBgNVBAMMCUNsaWVudCBDQTAeFw0x
ODA0MDEyMTA4MzFaFw0xOTA0MDEyMTA4MzFaMDkxETAPBgNVBAoMCENvZGUgUmVk
MREwDwYDVQQLDAhTZWN1cml0eTERMA8GA1UEAwwIdXNlcm5hbWUwggIiMA0GCSqG
SIb3DQEBAQUAA4ICDwAwggIKAoICAQDO3GcG2tEr8NVi/0Bo1XbCoKnxm6KeUUUg
aZYjV3Anwvh1GplKIIOZNAMvNzosXgGDNAx2evP0FJYcOTlkNmkSf4WtMTu8/CbU
dLeLu5KODpZmpxjYJJwKkpBb4gBAksaiKElAWi9+Fcd0+6BelwwoW8AzsgHqKZiB
wAIcBnBqRnSLWWHW1CnW39RKGFEVB/jsTHvTjAsW7LjXbRtXnzENJRMKXbn33Hc0
5Tqy0Un5vNdLDZEsxNATnBN+xUoRkOW0zdD1fgyiaybal/rmvAB7hTjgCl1yPdyX
S/b2r87YKUnokILjoLkwcaHuuSUJe+c8heFqaXt2HK3pq2tIfmDG4iZjhlMSPJiF
8qpBZznNopwswunDka2NtkDNdl0uld5MIV+rNGXRIwkq8thUtTMMC6fPucMxSsrA
e6UoRcJoKWdC+7ed10mPE2FHXOj0ANgQnckr84tXaoJUG1CDETfMUMaTtcG45YAh
w/POduiDJKkHzqjea8v4iZUx4FOr3m2X59j4ZCWEP+yY3t86spTrxQlgpjffROVu
adc1sjgYnGfQ4vWZBPPxwn8/T3W0Wss4I6ifS3nE5FpZp7pkrnReVkc25ccZZxEP
Racwd6UzLyhZJOwY0nc8trl2TjnboK0D3yWJzGJk1dKEYHTHROioGq3wEdX0haDm
1xUzTXkfnwIDAQABo4GSMIGPMA4GA1UdDwEB/wQEAwIFoDAJBgNVHRMEAjAAMBMG
A1UdJQQMMAoGCCsGAQUFBwMCMB0GA1UdDgQWBBQR9p5XYnPuznsUzkiryg+H543C
izAfBgNVHSMEGDAWgBRATtt/gnp9wpfK5o4gBHm+9+vKtzAdBgNVHREEFjAUgRJw
cm92aWRlZEBlbWFpbC5jb20wDQYJKoZIhvcNAQEFBQADggIBABlZaajqTiuoVADx
cy3tKVGFJCUnBs7sEDX0sSlsWu+ssiw8HRiST3adbqrI+PqB5WXTPfnt0szQRBEE
HhsfQfo5iwOG1bHDoL/5Re1OxyN8MgrgKiHqiRSGCsLG3Nu0ibueEtBBOZjbwVPf
B8Tego7+KqlSJSuMHT3NxAqTjeRSe+T1XdlFUphBvqrxD7I4sVCWsNVlV68o/ghn
fGa08Cfyz1NbVAzex77fNqSGiBN0xkDP0AI89GkePZvE8ur4bed/C9G9WGkZ3Nhv
QjKmZ/04x1PW0pJVan8mANkBLW99QPVJ7KrMeLNhsWwu8+1GIYWPB2mXxe8aSMu4
Mjd8CXT+kEiE2Q5IBFp0H29U/IOpyvLtt80QQDS9TXYtjHl2nW7UFLjOQUVt/qi5
fezoKCdg/++QLCZ3/R37ufySDhcIrsmtsjRhKgy3iDeYMja/MHJRaHv1uF3kU5Tk
sTro+HvqoewUu221H/aC0Ee6l2oqa4wN4C2mEoDEpwKggQQ+7EJKBX3yDJh8K4FF
001MW2xu9Eg3SrMTqrkruP2Cjf8RZ65WRAdhNPg3K8lTd6Lw3pkAaIw3fMePqbRO
Rx1XCJCJoSEulZMX17j+lW/nBe5ZFic0EeOyBrBCaQrAxgsZtaVzpRZi6PBk30mt
GtnHUJN8sYMmpMFsIVWNdxYilyOs
-----END CERTIFICATE-----
