Certificate:
    Data:
        Version: 3 (0x2)
        Serial Number: 55 (0x37)
    Signature Algorithm: sha1WithRSAEncryption
        Issuer: C=RS, ST=Serbia, L=Belgrade, O=CodeRed, OU=Security, CN=Client CA
        Validity
            Not Before: Apr  1 21:08:57 2018 GMT
            Not After : Apr  1 21:08:57 2019 GMT
        Subject: O=Code Red, OU=Security, CN=username
        Subject Public Key Info:
            Public Key Algorithm: rsaEncryption
                Public-Key: (4096 bit)
                Modulus:
                    00:b6:44:35:4e:27:ad:8c:11:38:09:2e:cb:1d:d8:
                    16:1e:02:71:df:a6:8b:53:59:18:b1:d3:f3:6f:a1:
                    a8:b1:69:a2:f8:05:ea:12:d2:a4:d6:05:c6:db:d6:
                    0b:32:f8:c7:81:32:c9:d2:e5:4d:d5:72:57:3e:e5:
                    26:9e:8b:43:be:b1:6e:bb:6a:1b:e4:3f:c5:26:b7:
                    2e:b2:26:79:63:f5:69:b7:a1:c8:4c:5a:ea:b6:84:
                    82:88:bd:5b:88:2d:98:d9:69:37:96:f9:24:62:bb:
                    2e:ff:b7:99:3d:ad:14:40:03:86:f7:91:c7:b3:1f:
                    6c:fa:2e:bf:91:31:a3:9b:fd:b4:63:da:77:f3:34:
                    6b:bf:ca:d1:1a:8b:88:65:03:3e:06:fb:d1:da:91:
                    0f:0b:2c:23:aa:71:c7:2a:c7:19:2d:bb:87:ce:8a:
                    5e:80:4a:c2:f8:58:6a:97:09:26:0a:11:25:10:50:
                    b4:e6:c4:e7:50:23:27:55:3b:f9:38:28:7a:36:75:
                    dc:1a:8d:59:bc:f3:b1:b0:58:fd:6c:3c:8a:a1:fd:
                    a0:67:08:a8:b8:6c:ac:0d:60:74:74:b0:b9:5d:f9:
                    d4:2f:72:9f:4b:2a:ad:96:57:2f:93:06:96:05:4e:
                    29:34:2e:1c:d8:eb:df:82:9f:14:7f:4e:6a:7b:b5:
                    31:e6:dc:a4:18:73:70:21:18:81:5a:98:23:61:41:
                    6a:8d:88:9a:e1:30:38:48:38:57:65:94:be:3c:3a:
                    53:c3:f5:d4:9e:b8:87:7a:00:49:05:1d:11:43:54:
                    e9:4f:40:2f:c6:ca:de:8c:ad:8a:d7:33:a5:57:12:
                    98:8e:13:24:6a:f4:90:96:a2:f6:57:8c:6e:aa:63:
                    bd:69:a4:0c:a0:d0:f4:d8:00:96:50:19:d0:1b:b3:
                    1b:e3:a9:a7:e9:8e:d4:47:a5:ab:3b:95:65:07:f3:
                    7a:4a:06:b1:d8:8b:a9:36:24:51:43:b9:a9:18:38:
                    86:21:50:0a:d1:03:5c:b4:a2:01:e3:5c:94:ea:68:
                    86:d5:a8:d6:73:23:2d:35:1c:ea:f8:40:dd:85:86:
                    7b:d5:76:7c:55:87:a8:be:d1:15:5e:f8:1a:8d:b4:
                    67:ea:64:d5:67:97:81:60:ad:67:1d:e8:35:1e:e1:
                    b5:f7:db:30:bf:6a:32:85:8c:5b:e2:4e:96:c9:e6:
                    ed:f5:5c:99:79:9c:e5:bf:4e:f8:bc:ce:05:ad:c5:
                    cc:61:17:1c:78:e1:94:4c:a8:45:66:ad:e6:1d:df:
                    db:10:41:5f:1f:f3:77:ff:2c:87:3c:b3:1e:9c:50:
                    1a:87:c0:49:0c:65:ac:85:ca:f1:bb:a7:3b:ea:ca:
                    0e:78:d7
                Exponent: 65537 (0x10001)
        X509v3 extensions:
            X509v3 Key Usage: critical
                Digital Signature, Key Encipherment
            X509v3 Basic Constraints: 
                CA:FALSE
            X509v3 Extended Key Usage: 
                TLS Web Client Authentication
            X509v3 Subject Key Identifier: 
                4A:6E:FB:E6:D2:CE:49:40:D5:C4:D1:32:62:41:CD:40:E9:A9:11:AD
            X509v3 Authority Key Identifier: 
                keyid:40:4E:DB:7F:82:7A:7D:C2:97:CA:E6:8E:20:04:79:BE:F7:EB:CA:B7

            X509v3 Subject Alternative Name: 
                email:provided@email.com
    Signature Algorithm: sha1WithRSAEncryption
         9e:5c:7c:77:ab:17:6f:e7:48:97:7c:1d:41:ba:58:d3:5a:18:
         6a:8f:1b:53:0d:cc:c8:d6:3b:fd:d1:14:ba:53:27:cd:51:3a:
         e6:7c:25:91:37:ac:ae:98:3b:52:5c:ba:e6:8f:0b:70:c5:3c:
         af:d6:6f:e7:f4:29:1e:9a:12:a3:7b:f6:4e:56:66:8c:82:f5:
         04:f5:1d:e4:c0:68:e6:48:4f:3c:b4:6e:ed:cd:ff:64:8a:b9:
         50:5d:2d:b1:a0:bc:e7:81:4a:95:6b:11:b4:9a:4d:ca:7f:27:
         61:be:24:5f:95:60:29:ce:6e:36:50:4b:1a:42:11:e4:f7:c7:
         1e:af:3a:c5:57:80:c7:5c:cb:55:92:ef:d0:4e:75:d7:13:ae:
         9d:b6:57:42:76:6b:6f:05:94:8a:1e:bb:28:e2:4b:97:5c:19:
         0f:f9:1f:31:38:ed:c3:5e:6a:9e:5c:1e:18:d5:eb:b0:19:71:
         8b:42:2e:68:cd:99:a5:80:39:90:06:51:71:01:d2:3d:ac:ee:
         33:f1:a7:ad:b5:83:c4:a8:15:a1:49:41:91:0c:c6:5e:c8:e7:
         ae:71:29:4a:05:26:77:e2:56:6e:21:f0:70:2c:dd:94:d5:6e:
         7c:ae:94:c3:52:66:f5:78:56:81:a3:56:55:53:a9:f6:0a:ef:
         66:fb:c0:0d:01:73:c7:e4:d4:51:3d:5f:84:53:9f:83:1e:1f:
         f9:3a:4a:aa:c1:a1:71:0f:6e:9b:51:4b:36:6c:b9:c1:bb:79:
         e7:45:d0:80:20:e7:1f:b0:4e:e8:83:c6:ab:70:3f:f2:79:55:
         cc:26:b3:be:71:12:45:a3:e9:91:6d:14:6b:05:96:91:58:4b:
         64:ad:3a:1a:d6:97:51:be:c6:80:ce:06:0a:49:37:b0:0c:90:
         c6:77:b7:20:f5:bb:74:81:71:0e:5f:dc:5c:ab:6c:57:20:80:
         e5:5f:c7:22:65:63:2d:3a:9b:40:26:76:ed:56:bc:08:e0:14:
         a4:b9:28:17:ae:99:22:4e:cb:ba:0b:a7:6a:d5:30:48:51:84:
         23:85:b5:07:f5:40:de:25:a6:a5:2e:a1:07:fb:a3:79:ce:60:
         17:91:99:c0:9c:73:e9:0e:a2:70:da:62:03:46:b7:e3:82:dc:
         e4:9b:7a:64:af:b4:4a:f4:22:fd:a8:ac:2b:67:b8:c7:69:76:
         09:f3:77:f8:29:93:46:66:31:07:9f:53:9c:f0:54:d2:42:72:
         5a:27:a8:9e:22:ac:cc:d2:ea:a6:13:69:b7:6b:96:4d:fc:d2:
         93:b3:1d:da:d6:62:94:5d:b4:52:03:53:e5:75:40:a7:64:d5:
         ae:a1:44:41:b2:74:1d:1f
-----BEGIN CERTIFICATE-----
MIIFsTCCA5mgAwIBAgIBNzANBgkqhkiG9w0BAQUFADBqMQswCQYDVQQGEwJSUzEP
MA0GA1UECAwGU2VyYmlhMREwDwYDVQQHDAhCZWxncmFkZTEQMA4GA1UECgwHQ29k
ZVJlZDERMA8GA1UECwwIU2VjdXJpdHkxEjAQBgNVBAMMCUNsaWVudCBDQTAeFw0x
ODA0MDEyMTA4NTdaFw0xOTA0MDEyMTA4NTdaMDkxETAPBgNVBAoMCENvZGUgUmVk
MREwDwYDVQQLDAhTZWN1cml0eTERMA8GA1UEAwwIdXNlcm5hbWUwggIiMA0GCSqG
SIb3DQEBAQUAA4ICDwAwggIKAoICAQC2RDVOJ62METgJLssd2BYeAnHfpotTWRix
0/NvoaixaaL4BeoS0qTWBcbb1gsy+MeBMsnS5U3Vclc+5Saei0O+sW67ahvkP8Um
ty6yJnlj9Wm3ochMWuq2hIKIvVuILZjZaTeW+SRiuy7/t5k9rRRAA4b3kcezH2z6
Lr+RMaOb/bRj2nfzNGu/ytEai4hlAz4G+9HakQ8LLCOqcccqxxktu4fOil6ASsL4
WGqXCSYKESUQULTmxOdQIydVO/k4KHo2ddwajVm887GwWP1sPIqh/aBnCKi4bKwN
YHR0sLld+dQvcp9LKq2WVy+TBpYFTik0LhzY69+CnxR/Tmp7tTHm3KQYc3AhGIFa
mCNhQWqNiJrhMDhIOFdllL48OlPD9dSeuId6AEkFHRFDVOlPQC/Gyt6MrYrXM6VX
EpiOEyRq9JCWovZXjG6qY71ppAyg0PTYAJZQGdAbsxvjqafpjtRHpas7lWUH83pK
BrHYi6k2JFFDuakYOIYhUArRA1y0ogHjXJTqaIbVqNZzIy01HOr4QN2FhnvVdnxV
h6i+0RVe+BqNtGfqZNVnl4FgrWcd6DUe4bX32zC/ajKFjFviTpbJ5u31XJl5nOW/
Tvi8zgWtxcxhFxx44ZRMqEVmreYd39sQQV8f83f/LIc8sx6cUBqHwEkMZayFyvG7
pzvqyg541wIDAQABo4GSMIGPMA4GA1UdDwEB/wQEAwIFoDAJBgNVHRMEAjAAMBMG
A1UdJQQMMAoGCCsGAQUFBwMCMB0GA1UdDgQWBBRKbvvm0s5JQNXE0TJiQc1A6akR
rTAfBgNVHSMEGDAWgBRATtt/gnp9wpfK5o4gBHm+9+vKtzAdBgNVHREEFjAUgRJw
cm92aWRlZEBlbWFpbC5jb20wDQYJKoZIhvcNAQEFBQADggIBAJ5cfHerF2/nSJd8
HUG6WNNaGGqPG1MNzMjWO/3RFLpTJ81ROuZ8JZE3rK6YO1JcuuaPC3DFPK/Wb+f0
KR6aEqN79k5WZoyC9QT1HeTAaOZITzy0bu3N/2SKuVBdLbGgvOeBSpVrEbSaTcp/
J2G+JF+VYCnObjZQSxpCEeT3xx6vOsVXgMdcy1WS79BOddcTrp22V0J2a28FlIoe
uyjiS5dcGQ/5HzE47cNeap5cHhjV67AZcYtCLmjNmaWAOZAGUXEB0j2s7jPxp621
g8SoFaFJQZEMxl7I565xKUoFJnfiVm4h8HAs3ZTVbnyulMNSZvV4VoGjVlVTqfYK
72b7wA0Bc8fk1FE9X4RTn4MeH/k6SqrBoXEPbptRSzZsucG7eedF0IAg5x+wTuiD
xqtwP/J5Vcwms75xEkWj6ZFtFGsFlpFYS2StOhrWl1G+xoDOBgpJN7AMkMZ3tyD1
u3SBcQ5f3FyrbFcggOVfxyJlYy06m0Amdu1WvAjgFKS5KBeumSJOy7oLp2rVMEhR
hCOFtQf1QN4lpqUuoQf7o3nOYBeRmcCcc+kOonDaYgNGt+OC3OSbemSvtEr0Iv2o
rCtnuMdpdgnzd/gpk0ZmMQefU5zwVNJCclonqJ4irMzS6qYTabdrlk380pOzHdrW
YpRdtFIDU+V1QKdk1a6hREGydB0f
-----END CERTIFICATE-----
