Certificate:
    Data:
        Version: 3 (0x2)
        Serial Number: 56 (0x38)
    Signature Algorithm: sha1WithRSAEncryption
        Issuer: C=RS, ST=Serbia, L=Belgrade, O=CodeRed, OU=Security, CN=Client CA
        Validity
            Not Before: Apr  1 21:11:14 2018 GMT
            Not After : Apr  1 21:11:14 2019 GMT
        Subject: O=Code Red, OU=Security, CN=username
        Subject Public Key Info:
            Public Key Algorithm: rsaEncryption
                Public-Key: (4096 bit)
                Modulus:
                    00:a6:6b:57:17:3f:11:d8:91:86:c3:b4:35:f6:54:
                    13:04:b7:7b:c4:5a:58:8a:df:6a:f9:4b:54:f3:0b:
                    49:0b:98:6c:2d:b3:58:bd:db:32:1e:d5:c1:37:bc:
                    8d:7f:49:1a:7a:2f:7c:28:52:5a:b7:32:38:f1:54:
                    46:f8:5d:f6:ec:be:94:43:2d:5b:80:d7:94:92:79:
                    66:6b:90:ea:14:8b:71:cb:8a:7f:72:4b:3c:20:b2:
                    70:48:62:ca:19:30:1f:04:57:4e:2b:cd:b8:5d:29:
                    10:a5:38:ba:bb:a5:68:04:8f:a3:c2:12:ca:ee:5e:
                    c4:c4:8a:d3:83:7c:54:68:d8:3d:73:87:50:e5:ad:
                    19:6e:a3:5f:e8:92:c5:70:e5:dc:70:21:b3:ab:bf:
                    a4:76:af:25:a6:52:23:ce:92:17:0b:54:7a:09:d8:
                    01:39:83:81:d0:c2:a7:fc:7f:21:e5:76:72:1b:d3:
                    6b:f1:58:5c:10:95:99:dc:14:63:4a:c8:c6:18:30:
                    6b:f8:0d:4a:25:0e:20:d7:71:b9:87:1e:af:0b:41:
                    82:90:f9:8f:23:9b:32:b1:ba:84:f2:d4:bd:25:85:
                    0f:77:64:de:68:1d:70:6f:f2:a6:b1:19:39:d5:a8:
                    89:70:98:d7:37:77:ba:96:0b:87:fa:fb:fa:15:99:
                    a7:6a:69:76:5a:ef:75:c2:a4:20:2f:0c:9a:5d:77:
                    02:4d:9f:42:64:fc:20:4b:6d:11:f7:83:5e:17:39:
                    59:9d:36:5c:c8:52:bf:b5:5d:8d:c2:ff:4b:bf:86:
                    62:62:6d:3c:8e:32:a9:d2:85:47:23:1a:51:4e:96:
                    1c:c9:aa:56:9f:bd:64:f7:c3:04:78:40:8f:24:a8:
                    c1:8a:95:74:e4:70:db:61:0c:c6:fb:d2:c4:fd:d7:
                    f6:07:16:ee:aa:4c:78:5d:76:08:92:8a:ac:f4:2c:
                    db:d2:e5:b9:14:05:59:5f:64:9a:58:ec:cc:9d:22:
                    60:40:7b:13:e2:05:c3:17:7f:2d:9c:81:a9:0d:2f:
                    8d:db:aa:59:aa:05:94:ee:e7:5b:a7:75:d5:14:a5:
                    db:b5:cf:1c:81:d4:40:8f:c4:c4:21:a3:af:c1:4f:
                    61:53:cb:2d:74:b7:c8:2f:a1:cb:ab:59:16:78:70:
                    49:a6:48:7f:a5:93:4d:bb:79:1c:b2:6d:91:27:f3:
                    f8:14:04:69:75:4c:1f:f5:cf:b2:e5:96:d5:93:c1:
                    cc:9a:43:ec:8f:bd:97:f0:ce:f2:63:71:a5:fb:7d:
                    a9:48:f4:d4:90:38:39:25:11:04:eb:77:41:46:46:
                    dd:2e:e9:75:e6:5a:70:e8:9c:4e:68:ac:4e:0a:40:
                    23:b5:25
                Exponent: 65537 (0x10001)
        X509v3 extensions:
            X509v3 Key Usage: critical
                Digital Signature, Key Encipherment
            X509v3 Basic Constraints: 
                CA:FALSE
            X509v3 Extended Key Usage: 
                TLS Web Client Authentication
            X509v3 Subject Key Identifier: 
                60:9A:D1:D2:C2:38:D7:9C:DA:AE:5D:81:31:5D:D8:A0:CB:AD:D2:42
            X509v3 Authority Key Identifier: 
                keyid:40:4E:DB:7F:82:7A:7D:C2:97:CA:E6:8E:20:04:79:BE:F7:EB:CA:B7

            X509v3 Subject Alternative Name: 
                email:provided@email.com
    Signature Algorithm: sha1WithRSAEncryption
         11:dc:5f:cc:fb:93:13:8d:0b:9d:51:19:b2:1a:3e:37:7a:32:
         fa:a4:ec:5b:e2:11:d9:e1:3f:0e:93:38:0e:0a:77:1d:7c:91:
         58:72:1c:68:90:98:6d:6b:18:d5:72:09:70:2a:c6:e0:44:a3:
         1c:af:ef:50:4e:f9:ed:5c:63:dd:f5:60:85:21:66:1f:a1:47:
         a6:16:ca:ec:0e:db:32:f8:54:6c:43:27:cb:c5:5b:0a:71:59:
         ae:15:66:d4:76:b0:f6:fe:e8:0f:b0:da:08:ff:01:c7:a7:41:
         64:04:0d:2c:81:b5:b5:98:bf:6e:de:a2:0c:c2:a6:5d:a6:65:
         28:bd:4f:d3:7d:75:1b:68:a9:b8:dc:cf:15:36:7b:4c:c8:f5:
         c9:49:c1:d7:02:83:bd:92:df:66:78:ac:4d:4c:57:8c:f2:63:
         52:4a:46:67:6e:f3:c5:9f:bb:5b:d0:79:6e:cc:f0:42:94:3f:
         d2:b5:af:97:ba:49:8a:2b:ad:25:a7:f0:1b:e0:a7:e9:c1:58:
         7e:71:50:06:82:63:02:ab:cb:c2:3e:2b:5d:8b:e9:e7:db:32:
         f4:d0:0c:53:14:54:0b:4e:e2:4d:ad:6f:0a:5d:2c:a9:6d:3f:
         21:94:d3:60:56:f1:9c:8e:24:a2:11:32:1d:4d:10:7c:b3:f0:
         83:c2:cf:5c:32:f8:b0:bb:53:c2:29:4c:e8:14:3c:51:42:a4:
         78:a4:7b:39:16:14:77:80:30:46:31:55:c8:8d:16:de:03:c5:
         10:e9:f8:d5:b1:46:4b:ac:f6:ed:34:f9:07:b7:c7:2d:b2:79:
         21:ef:7d:57:c0:31:1f:77:59:6b:e0:d4:56:b7:4b:e8:31:08:
         45:c2:05:6d:e5:fb:cc:48:9e:60:39:27:84:81:7d:3d:af:ed:
         be:75:92:14:49:3e:40:7f:b1:95:2b:0e:93:82:5a:51:ef:64:
         93:4e:e9:c4:fc:7d:ff:b7:e8:9a:47:95:31:52:c2:ba:63:b0:
         ce:63:6d:ae:6f:c0:84:89:78:5c:54:bf:c4:31:0a:36:72:09:
         6c:4a:70:9c:4b:b5:99:c9:26:24:cb:63:2f:35:cc:f1:1b:84:
         ce:36:77:27:54:bf:1a:54:77:aa:ba:68:86:dc:33:89:f0:dc:
         19:e4:13:4c:5b:18:2d:9e:ab:c6:05:14:67:1b:e4:20:71:f7:
         41:93:c1:e2:05:44:96:b8:99:58:a1:a7:b6:0d:9d:cc:03:df:
         34:ab:20:0d:2e:1a:48:56:a3:91:ae:3d:c8:d9:34:5c:5d:45:
         8b:6d:83:b5:4c:da:cc:79:10:12:3b:4f:be:9b:23:35:5f:33:
         61:6d:78:7e:61:9e:84:fb
-----BEGIN CERTIFICATE-----
MIIFsTCCA5mgAwIBAgIBODANBgkqhkiG9w0BAQUFADBqMQswCQYDVQQGEwJSUzEP
MA0GA1UECAwGU2VyYmlhMREwDwYDVQQHDAhCZWxncmFkZTEQMA4GA1UECgwHQ29k
ZVJlZDERMA8GA1UECwwIU2VjdXJpdHkxEjAQBgNVBAMMCUNsaWVudCBDQTAeFw0x
ODA0MDEyMTExMTRaFw0xOTA0MDEyMTExMTRaMDkxETAPBgNVBAoMCENvZGUgUmVk
MREwDwYDVQQLDAhTZWN1cml0eTERMA8GA1UEAwwIdXNlcm5hbWUwggIiMA0GCSqG
SIb3DQEBAQUAA4ICDwAwggIKAoICAQCma1cXPxHYkYbDtDX2VBMEt3vEWliK32r5
S1TzC0kLmGwts1i92zIe1cE3vI1/SRp6L3woUlq3MjjxVEb4XfbsvpRDLVuA15SS
eWZrkOoUi3HLin9ySzwgsnBIYsoZMB8EV04rzbhdKRClOLq7pWgEj6PCEsruXsTE
itODfFRo2D1zh1DlrRluo1/oksVw5dxwIbOrv6R2ryWmUiPOkhcLVHoJ2AE5g4HQ
wqf8fyHldnIb02vxWFwQlZncFGNKyMYYMGv4DUolDiDXcbmHHq8LQYKQ+Y8jmzKx
uoTy1L0lhQ93ZN5oHXBv8qaxGTnVqIlwmNc3d7qWC4f6+/oVmadqaXZa73XCpCAv
DJpddwJNn0Jk/CBLbRH3g14XOVmdNlzIUr+1XY3C/0u/hmJibTyOMqnShUcjGlFO
lhzJqlafvWT3wwR4QI8kqMGKlXTkcNthDMb70sT91/YHFu6qTHhddgiSiqz0LNvS
5bkUBVlfZJpY7MydImBAexPiBcMXfy2cgakNL43bqlmqBZTu51unddUUpdu1zxyB
1ECPxMQho6/BT2FTyy10t8gvocurWRZ4cEmmSH+lk027eRyybZEn8/gUBGl1TB/1
z7LlltWTwcyaQ+yPvZfwzvJjcaX7falI9NSQODklEQTrd0FGRt0u6XXmWnDonE5o
rE4KQCO1JQIDAQABo4GSMIGPMA4GA1UdDwEB/wQEAwIFoDAJBgNVHRMEAjAAMBMG
A1UdJQQMMAoGCCsGAQUFBwMCMB0GA1UdDgQWBBRgmtHSwjjXnNquXYExXdigy63S
QjAfBgNVHSMEGDAWgBRATtt/gnp9wpfK5o4gBHm+9+vKtzAdBgNVHREEFjAUgRJw
cm92aWRlZEBlbWFpbC5jb20wDQYJKoZIhvcNAQEFBQADggIBABHcX8z7kxONC51R
GbIaPjd6Mvqk7FviEdnhPw6TOA4Kdx18kVhyHGiQmG1rGNVyCXAqxuBEoxyv71BO
+e1cY931YIUhZh+hR6YWyuwO2zL4VGxDJ8vFWwpxWa4VZtR2sPb+6A+w2gj/Acen
QWQEDSyBtbWYv27eogzCpl2mZSi9T9N9dRtoqbjczxU2e0zI9clJwdcCg72S32Z4
rE1MV4zyY1JKRmdu88Wfu1vQeW7M8EKUP9K1r5e6SYorrSWn8Bvgp+nBWH5xUAaC
YwKry8I+K12L6efbMvTQDFMUVAtO4k2tbwpdLKltPyGU02BW8ZyOJKIRMh1NEHyz
8IPCz1wy+LC7U8IpTOgUPFFCpHikezkWFHeAMEYxVciNFt4DxRDp+NWxRkus9u00
+Qe3xy2yeSHvfVfAMR93WWvg1Fa3S+gxCEXCBW3l+8xInmA5J4SBfT2v7b51khRJ
PkB/sZUrDpOCWlHvZJNO6cT8ff+36JpHlTFSwrpjsM5jba5vwISJeFxUv8QxCjZy
CWxKcJxLtZnJJiTLYy81zPEbhM42dydUvxpUd6q6aIbcM4nw3BnkE0xbGC2eq8YF
FGcb5CBx90GTweIFRJa4mVihp7YNncwD3zSrIA0uGkhWo5GuPcjZNFxdRYttg7VM
2sx5EBI7T76bIzVfM2FteH5hnoT7
-----END CERTIFICATE-----
