Certificate:
    Data:
        Version: 3 (0x2)
        Serial Number: 57 (0x39)
    Signature Algorithm: sha1WithRSAEncryption
        Issuer: C=RS, ST=Serbia, L=Belgrade, O=CodeRed, OU=Security, CN=Client CA
        Validity
            Not Before: Apr  1 21:12:51 2018 GMT
            Not After : Apr  1 21:12:51 2019 GMT
        Subject: O=Code Red, OU=Security, CN=username
        Subject Public Key Info:
            Public Key Algorithm: rsaEncryption
                Public-Key: (4096 bit)
                Modulus:
                    00:eb:e5:f2:b1:eb:cb:48:d7:9f:cc:c1:f2:b9:49:
                    30:8b:fc:45:9b:68:95:4d:ea:25:b6:ca:f2:0f:0d:
                    ca:4f:3d:e9:0c:72:93:79:df:0f:43:eb:3d:e3:d0:
                    53:a0:19:0f:4b:a1:6e:de:de:8f:2f:28:14:fa:f1:
                    bd:92:fb:a6:2e:91:69:89:c6:e4:96:a2:2e:19:61:
                    87:50:00:6f:f3:66:ae:77:3a:4a:5f:18:94:fe:89:
                    6f:cb:c9:65:23:2c:f6:bf:02:f0:01:07:6a:49:1e:
                    d7:2a:a3:c8:c3:d5:3e:6c:8b:e3:bc:55:7b:3b:4b:
                    01:a8:d9:91:5f:a2:99:cc:0f:33:58:db:48:06:6b:
                    7f:00:d3:e5:09:3f:dc:a9:17:f5:0e:f6:ad:73:99:
                    a2:0c:ba:9b:cd:49:13:09:71:c4:ed:c9:20:a0:ae:
                    19:f4:b2:fc:5c:87:d1:fc:9f:b9:ac:79:f6:fc:6d:
                    81:3c:71:32:36:c8:7b:ab:e9:a8:a1:e4:c5:29:b0:
                    f1:82:5a:b3:60:0e:3f:5d:09:78:7f:e3:9f:01:5b:
                    83:a7:35:95:ff:47:8c:87:e9:cf:28:8b:08:5c:23:
                    a0:52:9b:2c:4c:af:70:95:60:63:f1:97:d2:eb:94:
                    8a:67:4e:1c:21:63:d0:cb:c2:91:05:d2:85:1f:7c:
                    34:c2:71:b9:37:33:34:74:d4:e3:d8:f4:66:79:f9:
                    05:a4:f5:0b:c8:f1:b0:fb:d5:87:3e:66:db:a8:92:
                    82:71:18:74:7a:fa:00:6b:b5:f0:a3:b3:fb:ca:40:
                    be:df:3a:8c:05:1d:b8:59:38:cd:c1:b9:1f:80:4b:
                    b3:63:e4:57:60:d6:ae:b2:5e:20:26:36:51:68:06:
                    4c:86:86:39:6f:ce:4f:e0:17:56:f5:2d:be:50:9c:
                    a7:88:93:c0:45:32:0d:2f:56:90:4b:22:ff:35:56:
                    87:41:4b:f8:26:2f:f7:2f:49:b9:0e:53:e7:27:53:
                    f4:89:37:3a:9d:6d:d9:24:b0:73:60:15:ae:0c:b8:
                    74:ec:61:0b:f4:1b:d0:f1:df:21:ab:9a:66:61:3c:
                    ef:a3:0c:57:a8:2b:aa:03:39:40:5d:09:3e:0a:9b:
                    52:2f:2b:c7:93:0f:7f:7d:57:2c:c6:e3:1f:86:6c:
                    ca:30:c4:c7:cb:5e:bc:6d:02:38:2c:ec:c5:90:7f:
                    c2:eb:7c:ef:7f:be:57:4d:39:52:8e:62:48:26:45:
                    ac:88:38:11:fe:68:24:13:4b:2b:cd:6c:ff:95:f2:
                    c2:34:c7:d3:7a:4e:c8:a7:f0:d3:50:47:59:dc:f5:
                    60:d3:5d:07:3d:bb:f6:59:21:19:21:7f:5f:29:cc:
                    9a:f1:03
                Exponent: 65537 (0x10001)
        X509v3 extensions:
            X509v3 Key Usage: critical
                Digital Signature, Key Encipherment
            X509v3 Basic Constraints: 
                CA:FALSE
            X509v3 Extended Key Usage: 
                TLS Web Client Authentication
            X509v3 Subject Key Identifier: 
                1F:C8:E6:49:33:B8:CB:43:55:D1:B0:CB:DC:5A:5C:96:65:9E:3D:C6
            X509v3 Authority Key Identifier: 
                keyid:40:4E:DB:7F:82:7A:7D:C2:97:CA:E6:8E:20:04:79:BE:F7:EB:CA:B7

            X509v3 Subject Alternative Name: 
                email:provided@email.com
    Signature Algorithm: sha1WithRSAEncryption
         49:9c:9c:da:e2:95:a7:bd:8d:e4:bd:39:fb:12:d1:ac:6a:3c:
         db:0e:54:0b:96:82:cf:c7:87:2a:ce:88:41:b1:21:2b:ad:e9:
         cb:b9:84:6d:46:1a:b8:04:fa:96:21:f1:32:57:8c:32:cc:b4:
         a4:17:66:22:9f:17:46:6c:ea:84:bd:3d:e3:71:e6:f1:d4:c8:
         df:66:c0:c4:9e:b3:b8:d4:55:75:39:eb:9c:9e:03:c0:e8:fd:
         cb:39:7d:cb:6f:04:46:97:11:7b:36:e7:09:26:3c:02:08:b3:
         87:c8:98:e3:ba:df:70:52:48:ea:0c:9c:2e:5d:42:92:eb:58:
         b9:30:02:b1:60:6d:08:42:e9:e9:fa:ea:2f:59:cd:d6:55:81:
         5f:5e:73:37:79:8a:48:71:7b:28:42:eb:7c:a7:0e:16:5c:fc:
         ec:31:c1:75:4a:28:3b:7b:09:b6:78:9b:c5:84:56:43:1c:53:
         ca:ba:e8:76:7b:16:5b:ac:3c:84:54:6b:13:bb:68:d7:69:46:
         79:c5:04:5a:54:39:d5:62:e8:a2:dc:a2:63:07:3d:1f:07:66:
         d5:ab:9b:aa:5c:f9:56:65:34:9a:10:32:24:b4:53:a4:dc:6e:
         2a:c1:f2:76:b9:76:26:68:f5:a7:ea:72:72:52:07:d9:3d:d0:
         52:12:20:aa:ef:ab:d6:2c:62:84:e9:a3:cc:a1:c7:3b:63:6d:
         95:6e:1d:b4:73:6d:48:9b:bb:11:2d:4c:9f:ea:1b:2f:7e:63:
         62:f4:5a:57:2c:a8:d2:a3:3d:c5:fa:8f:7f:3e:34:e2:63:94:
         4c:55:68:b6:86:3c:75:66:12:a8:1b:46:3c:36:c8:39:ca:4a:
         09:19:2d:73:6a:14:51:8e:49:e7:54:63:b3:7a:69:ce:60:68:
         89:76:66:e4:ae:b9:c6:b1:c4:fa:bb:29:f8:57:19:fb:59:a6:
         f8:ff:0c:f0:84:16:7b:8c:e8:44:9d:68:a4:b8:09:97:e8:2d:
         3b:cc:c7:e5:85:30:a3:f9:5a:9f:82:57:ff:db:ba:59:cb:36:
         b8:8d:26:14:92:c5:ba:8d:32:aa:3e:aa:5c:0e:16:9e:c3:53:
         1c:91:1d:63:ec:4e:88:0e:57:c8:35:fe:3a:74:34:f6:51:f0:
         f8:70:b8:68:59:4c:c0:ee:d5:97:d3:df:b9:15:6a:75:f8:4c:
         94:d3:b3:95:34:e0:63:eb:7e:9e:ea:c6:8a:c6:60:55:26:b6:
         e3:5a:d4:2b:b3:d9:ea:9c:c3:97:cc:99:21:3b:5f:43:c9:67:
         2e:c8:8f:43:72:06:83:83:ba:30:12:1d:46:6c:67:93:a2:5b:
         49:85:e2:f4:ed:bb:01:ff
-----BEGIN CERTIFICATE-----
MIIFsTCCA5mgAwIBAgIBOTANBgkqhkiG9w0BAQUFADBqMQswCQYDVQQGEwJSUzEP
MA0GA1UECAwGU2VyYmlhMREwDwYDVQQHDAhCZWxncmFkZTEQMA4GA1UECgwHQ29k
ZVJlZDERMA8GA1UECwwIU2VjdXJpdHkxEjAQBgNVBAMMCUNsaWVudCBDQTAeFw0x
ODA0MDEyMTEyNTFaFw0xOTA0MDEyMTEyNTFaMDkxETAPBgNVBAoMCENvZGUgUmVk
MREwDwYDVQQLDAhTZWN1cml0eTERMA8GA1UEAwwIdXNlcm5hbWUwggIiMA0GCSqG
SIb3DQEBAQUAA4ICDwAwggIKAoICAQDr5fKx68tI15/MwfK5STCL/EWbaJVN6iW2
yvIPDcpPPekMcpN53w9D6z3j0FOgGQ9LoW7e3o8vKBT68b2S+6YukWmJxuSWoi4Z
YYdQAG/zZq53OkpfGJT+iW/LyWUjLPa/AvABB2pJHtcqo8jD1T5si+O8VXs7SwGo
2ZFfopnMDzNY20gGa38A0+UJP9ypF/UO9q1zmaIMupvNSRMJccTtySCgrhn0svxc
h9H8n7msefb8bYE8cTI2yHur6aih5MUpsPGCWrNgDj9dCXh/458BW4OnNZX/R4yH
6c8oiwhcI6BSmyxMr3CVYGPxl9LrlIpnThwhY9DLwpEF0oUffDTCcbk3MzR01OPY
9GZ5+QWk9QvI8bD71Yc+ZtuokoJxGHR6+gBrtfCjs/vKQL7fOowFHbhZOM3BuR+A
S7Nj5Fdg1q6yXiAmNlFoBkyGhjlvzk/gF1b1Lb5QnKeIk8BFMg0vVpBLIv81VodB
S/gmL/cvSbkOU+cnU/SJNzqdbdkksHNgFa4MuHTsYQv0G9Dx3yGrmmZhPO+jDFeo
K6oDOUBdCT4Km1IvK8eTD399VyzG4x+GbMowxMfLXrxtAjgs7MWQf8LrfO9/vldN
OVKOYkgmRayIOBH+aCQTSyvNbP+V8sI0x9N6Tsin8NNQR1nc9WDTXQc9u/ZZIRkh
f18pzJrxAwIDAQABo4GSMIGPMA4GA1UdDwEB/wQEAwIFoDAJBgNVHRMEAjAAMBMG
A1UdJQQMMAoGCCsGAQUFBwMCMB0GA1UdDgQWBBQfyOZJM7jLQ1XRsMvcWlyWZZ49
xjAfBgNVHSMEGDAWgBRATtt/gnp9wpfK5o4gBHm+9+vKtzAdBgNVHREEFjAUgRJw
cm92aWRlZEBlbWFpbC5jb20wDQYJKoZIhvcNAQEFBQADggIBAEmcnNrilae9jeS9
OfsS0axqPNsOVAuWgs/HhyrOiEGxISut6cu5hG1GGrgE+pYh8TJXjDLMtKQXZiKf
F0Zs6oS9PeNx5vHUyN9mwMSes7jUVXU565yeA8Do/cs5fctvBEaXEXs25wkmPAII
s4fImOO633BSSOoMnC5dQpLrWLkwArFgbQhC6en66i9ZzdZVgV9eczd5ikhxeyhC
63ynDhZc/OwxwXVKKDt7CbZ4m8WEVkMcU8q66HZ7FlusPIRUaxO7aNdpRnnFBFpU
OdVi6KLcomMHPR8HZtWrm6pc+VZlNJoQMiS0U6TcbirB8na5diZo9afqcnJSB9k9
0FISIKrvq9YsYoTpo8yhxztjbZVuHbRzbUibuxEtTJ/qGy9+Y2L0WlcsqNKjPcX6
j38+NOJjlExVaLaGPHVmEqgbRjw2yDnKSgkZLXNqFFGOSedUY7N6ac5gaIl2ZuSu
ucaxxPq7KfhXGftZpvj/DPCEFnuM6ESdaKS4CZfoLTvMx+WFMKP5Wp+CV//bulnL
NriNJhSSxbqNMqo+qlwOFp7DUxyRHWPsTogOV8g1/jp0NPZR8PhwuGhZTMDu1ZfT
37kVanX4TJTTs5U04GPrfp7qxorGYFUmtuNa1Cuz2eqcw5fMmSE7X0PJZy7Ij0Ny
BoODujASHUZsZ5OiW0mF4vTtuwH/
-----END CERTIFICATE-----
