Certificate:
    Data:
        Version: 3 (0x2)
        Serial Number: 58 (0x3a)
    Signature Algorithm: sha1WithRSAEncryption
        Issuer: C=RS, ST=Serbia, L=Belgrade, O=CodeRed, OU=Security, CN=Client CA
        Validity
            Not Before: Apr  1 21:23:20 2018 GMT
            Not After : Apr  1 21:23:20 2019 GMT
        Subject: O=Code Red, OU=Security, CN=username
        Subject Public Key Info:
            Public Key Algorithm: rsaEncryption
                Public-Key: (4096 bit)
                Modulus:
                    00:b6:41:f3:23:37:82:da:58:f5:b0:8a:31:94:e9:
                    ce:cd:81:d8:a2:bd:56:12:06:c9:f7:52:65:72:9a:
                    81:6c:9d:dd:1d:db:93:2f:e6:b1:16:d5:bc:71:5d:
                    bb:46:0a:39:1b:e1:d3:3e:8c:31:2c:d7:79:f3:b1:
                    19:63:e5:07:3e:ac:8b:e8:f5:db:38:4a:82:a1:8f:
                    e4:b0:a0:0c:a4:14:d8:8c:03:c8:61:a5:fc:d7:4f:
                    f9:ce:7b:ab:49:cf:c3:31:c4:a3:01:4d:ef:70:00:
                    df:d3:f3:2b:1d:63:e5:2e:22:65:2d:07:63:65:b2:
                    f1:c5:2e:73:5a:4f:38:59:d6:83:12:fc:1e:ff:b3:
                    7d:e1:6e:a4:53:43:f8:12:ba:f5:d2:99:6c:f0:0f:
                    97:08:f1:47:b5:73:be:94:f2:82:d1:fb:f3:ce:b5:
                    47:c7:1a:b1:89:f0:d0:a3:05:94:88:ab:1e:22:f5:
                    55:43:68:c2:51:ec:94:81:6f:5f:37:ce:0b:75:e2:
                    b9:d6:08:46:26:b1:8b:43:79:07:b7:27:4f:5f:61:
                    b5:cc:66:ff:b4:65:ae:56:a2:cd:7c:73:75:e4:96:
                    16:21:7b:29:2e:91:0c:20:ed:df:8d:6a:e0:71:72:
                    0b:db:94:85:74:6a:c6:4a:0e:87:fd:d8:62:fb:0c:
                    64:a8:30:a4:d4:d4:a7:9c:d9:92:8b:0e:ff:f7:aa:
                    1b:8a:8e:c3:11:0d:24:40:06:d5:f6:f4:a5:c0:f1:
                    06:39:ac:42:20:c3:22:3b:a6:48:b5:b9:34:6a:68:
                    04:69:eb:e0:3c:55:f4:1a:08:d3:cf:59:4e:db:af:
                    39:85:0e:d6:0c:2b:62:e2:1c:4b:a8:df:bc:6c:6b:
                    6f:98:98:58:f0:e5:6a:8c:47:a7:6e:ca:74:d6:67:
                    2b:ef:b4:e7:f6:4a:25:01:0e:72:34:7a:a1:47:75:
                    25:53:e2:11:59:68:d3:d6:e2:82:f8:43:6e:7c:60:
                    76:99:44:86:7c:7f:e3:03:cb:3b:1c:cf:f5:c0:1c:
                    79:60:84:b5:64:7f:2b:a0:61:75:a1:90:2b:7a:3d:
                    96:d1:d4:0f:d3:4a:a9:cb:03:22:06:5a:69:41:42:
                    6d:a8:a9:f8:04:f0:5b:45:9f:ae:ec:ce:73:1a:96:
                    7f:b9:a4:69:d1:0c:7c:27:52:2d:d7:cd:15:d0:6f:
                    4f:ed:53:71:9f:d8:7a:74:b4:32:09:20:ae:a5:bf:
                    72:fb:83:c5:8b:66:de:23:69:f5:c0:5d:28:f2:52:
                    b1:a6:d3:fd:3d:8d:ac:1c:57:06:59:0b:1c:bf:71:
                    13:f4:e6:b1:fd:73:ef:e9:8c:80:96:ae:02:90:cd:
                    2b:48:17
                Exponent: 65537 (0x10001)
        X509v3 extensions:
            X509v3 Key Usage: critical
                Digital Signature, Key Encipherment
            X509v3 Basic Constraints: 
                CA:FALSE
            X509v3 Extended Key Usage: 
                TLS Web Client Authentication
            X509v3 Subject Key Identifier: 
                69:7A:E0:B2:CD:2D:52:49:FE:F2:AE:2D:2D:E2:02:9A:A0:F6:1E:8E
            X509v3 Authority Key Identifier: 
                keyid:40:4E:DB:7F:82:7A:7D:C2:97:CA:E6:8E:20:04:79:BE:F7:EB:CA:B7

            X509v3 Subject Alternative Name: 
                email:provided@email.com
    Signature Algorithm: sha1WithRSAEncryption
         9d:80:25:02:82:4c:d4:b5:84:cc:07:3b:a9:5b:8d:3f:4a:34:
         0d:6d:d4:19:ab:13:b7:78:88:fd:30:f5:ea:e4:01:62:19:c2:
         83:f2:76:91:ca:23:24:a0:0b:0d:79:e1:94:83:61:ac:0a:f9:
         6e:af:75:85:2f:30:21:56:37:99:33:0b:77:f0:87:ce:c6:4f:
         d8:b3:03:8f:45:8a:21:48:d7:f7:a7:0a:8f:ee:3c:63:ab:e4:
         1d:4f:2b:96:db:85:ca:5a:77:2e:ed:44:4a:02:2a:9d:ff:1d:
         8d:be:f4:d8:1d:0d:66:0a:1b:b1:22:bd:b2:97:50:0c:b8:ea:
         70:02:20:72:5c:d6:ca:d9:36:3b:9f:44:d0:c8:2a:93:9d:ac:
         e5:16:a1:fb:17:c1:e9:68:56:02:65:c3:11:84:79:08:f4:2a:
         73:00:9d:e0:14:9d:7e:a6:36:c4:40:e0:e6:bf:8b:0b:0d:19:
         ca:99:a8:42:92:85:fc:28:7e:a2:ff:16:bd:da:4b:45:0a:f9:
         7f:7d:94:91:ee:12:6a:5f:7a:23:bd:77:c7:84:5c:2a:70:0a:
         82:79:62:b3:b5:ca:36:b8:4b:cb:10:df:ff:20:fd:ef:a1:29:
         26:70:5e:45:31:f3:22:10:62:60:35:70:c1:4f:46:15:c0:4e:
         4b:e6:a0:c6:89:1a:6e:e6:73:24:23:26:56:57:35:d9:33:d3:
         9e:a8:c0:36:4e:47:61:53:d3:ac:fc:b9:61:a9:e1:01:87:f0:
         91:ed:d1:5f:91:f1:04:22:df:ae:4a:4d:ce:6c:2f:16:e2:2d:
         5d:7f:d7:e5:b5:b6:ac:8b:19:78:94:46:16:44:0c:ec:62:94:
         9a:f3:d3:5a:32:9d:1d:3a:38:e1:71:65:68:49:52:d3:ab:c3:
         29:01:81:5e:d2:25:22:99:3b:8c:fa:57:ca:9b:2e:6a:de:8a:
         4e:24:46:61:4b:a1:0f:4c:27:fe:aa:a2:f8:42:98:95:27:92:
         21:96:49:f4:e3:52:80:3d:28:40:26:b1:3c:9a:41:a7:21:d1:
         23:82:0e:45:f7:f7:a7:13:ad:ea:af:7e:bc:7c:85:9f:34:17:
         8a:76:29:a2:a7:2f:b3:f9:07:e6:d5:95:08:9e:b6:23:16:21:
         87:ec:19:3f:0c:4a:d5:33:04:b2:d4:0d:65:0e:63:df:40:93:
         4d:94:86:60:44:5d:27:0f:76:bf:40:ed:0c:d5:91:70:9f:cf:
         39:05:c6:62:dc:2f:66:7b:f8:06:2e:af:10:ea:5b:32:88:b8:
         62:e5:ce:9c:99:99:a4:c2:a7:36:42:ef:03:b9:00:66:f4:0d:
         59:73:82:86:5f:f5:7d:20
-----BEGIN CERTIFICATE-----
MIIFsTCCA5mgAwIBAgIBOjANBgkqhkiG9w0BAQUFADBqMQswCQYDVQQGEwJSUzEP
MA0GA1UECAwGU2VyYmlhMREwDwYDVQQHDAhCZWxncmFkZTEQMA4GA1UECgwHQ29k
ZVJlZDERMA8GA1UECwwIU2VjdXJpdHkxEjAQBgNVBAMMCUNsaWVudCBDQTAeFw0x
ODA0MDEyMTIzMjBaFw0xOTA0MDEyMTIzMjBaMDkxETAPBgNVBAoMCENvZGUgUmVk
MREwDwYDVQQLDAhTZWN1cml0eTERMA8GA1UEAwwIdXNlcm5hbWUwggIiMA0GCSqG
SIb3DQEBAQUAA4ICDwAwggIKAoICAQC2QfMjN4LaWPWwijGU6c7NgdiivVYSBsn3
UmVymoFsnd0d25Mv5rEW1bxxXbtGCjkb4dM+jDEs13nzsRlj5Qc+rIvo9ds4SoKh
j+SwoAykFNiMA8hhpfzXT/nOe6tJz8MxxKMBTe9wAN/T8ysdY+UuImUtB2NlsvHF
LnNaTzhZ1oMS/B7/s33hbqRTQ/gSuvXSmWzwD5cI8Ue1c76U8oLR+/POtUfHGrGJ
8NCjBZSIqx4i9VVDaMJR7JSBb183zgt14rnWCEYmsYtDeQe3J09fYbXMZv+0Za5W
os18c3XklhYheykukQwg7d+NauBxcgvblIV0asZKDof92GL7DGSoMKTU1Kec2ZKL
Dv/3qhuKjsMRDSRABtX29KXA8QY5rEIgwyI7pki1uTRqaARp6+A8VfQaCNPPWU7b
rzmFDtYMK2LiHEuo37xsa2+YmFjw5WqMR6duynTWZyvvtOf2SiUBDnI0eqFHdSVT
4hFZaNPW4oL4Q258YHaZRIZ8f+MDyzscz/XAHHlghLVkfyugYXWhkCt6PZbR1A/T
SqnLAyIGWmlBQm2oqfgE8FtFn67sznMaln+5pGnRDHwnUi3XzRXQb0/tU3Gf2Hp0
tDIJIK6lv3L7g8WLZt4jafXAXSjyUrGm0/09jawcVwZZCxy/cRP05rH9c+/pjICW
rgKQzStIFwIDAQABo4GSMIGPMA4GA1UdDwEB/wQEAwIFoDAJBgNVHRMEAjAAMBMG
A1UdJQQMMAoGCCsGAQUFBwMCMB0GA1UdDgQWBBRpeuCyzS1SSf7yri0t4gKaoPYe
jjAfBgNVHSMEGDAWgBRATtt/gnp9wpfK5o4gBHm+9+vKtzAdBgNVHREEFjAUgRJw
cm92aWRlZEBlbWFpbC5jb20wDQYJKoZIhvcNAQEFBQADggIBAJ2AJQKCTNS1hMwH
O6lbjT9KNA1t1BmrE7d4iP0w9erkAWIZwoPydpHKIySgCw154ZSDYawK+W6vdYUv
MCFWN5kzC3fwh87GT9izA49FiiFI1/enCo/uPGOr5B1PK5bbhcpady7tREoCKp3/
HY2+9NgdDWYKG7EivbKXUAy46nACIHJc1srZNjufRNDIKpOdrOUWofsXweloVgJl
wxGEeQj0KnMAneAUnX6mNsRA4Oa/iwsNGcqZqEKShfwofqL/Fr3aS0UK+X99lJHu
EmpfeiO9d8eEXCpwCoJ5YrO1yja4S8sQ3/8g/e+hKSZwXkUx8yIQYmA1cMFPRhXA
TkvmoMaJGm7mcyQjJlZXNdkz056owDZOR2FT06z8uWGp4QGH8JHt0V+R8QQi365K
Tc5sLxbiLV1/1+W1tqyLGXiURhZEDOxilJrz01oynR06OOFxZWhJUtOrwykBgV7S
JSKZO4z6V8qbLmreik4kRmFLoQ9MJ/6qovhCmJUnkiGWSfTjUoA9KEAmsTyaQach
0SOCDkX396cTreqvfrx8hZ80F4p2KaKnL7P5B+bVlQietiMWIYfsGT8MStUzBLLU
DWUOY99Ak02UhmBEXScPdr9A7QzVkXCfzzkFxmLcL2Z7+AYurxDqWzKIuGLlzpyZ
maTCpzZC7wO5AGb0DVlzgoZf9X0g
-----END CERTIFICATE-----
