Certificate:
    Data:
        Version: 3 (0x2)
        Serial Number: 59 (0x3b)
    Signature Algorithm: sha1WithRSAEncryption
        Issuer: C=RS, ST=Serbia, L=Belgrade, O=CodeRed, OU=Security, CN=Client CA
        Validity
            Not Before: Apr  1 21:24:59 2018 GMT
            Not After : Apr  1 21:24:59 2019 GMT
        Subject: O=Code Red, OU=Security, CN=username
        Subject Public Key Info:
            Public Key Algorithm: rsaEncryption
                Public-Key: (4096 bit)
                Modulus:
                    00:ea:05:4a:e2:51:a5:f4:cb:c8:5b:0d:a2:5a:6b:
                    b6:eb:4e:52:dd:99:43:ea:f3:2d:4b:c5:db:e2:a8:
                    7c:2f:c5:1d:da:cf:a4:b7:ee:55:64:e5:c5:ef:18:
                    d5:73:fc:9f:dc:7e:3e:b6:9f:94:c3:fb:e8:55:fb:
                    b5:97:17:a6:4a:70:16:ec:7f:1b:3e:f3:4a:ba:61:
                    c0:1b:f1:f5:3b:28:8e:2e:5e:a3:e2:ea:21:48:d4:
                    6d:b0:02:a7:aa:e3:ad:02:03:fd:f4:e3:b4:47:42:
                    7f:04:22:54:e6:33:ac:33:03:0e:8c:da:4d:85:86:
                    b3:4c:1e:d0:c8:b0:a7:44:cd:2f:2a:55:8d:fa:ce:
                    39:20:30:28:dd:d5:8d:20:4f:e1:96:b4:a4:7d:bc:
                    fd:aa:d3:79:fc:4a:f0:27:6b:94:34:e5:04:bf:52:
                    db:42:fd:9b:99:ce:6d:25:49:b7:fc:06:6e:c2:5b:
                    29:84:ab:c5:d7:ee:d7:2d:87:78:ca:da:1d:6e:57:
                    1c:e5:46:10:e8:e2:f7:c7:e0:4f:bf:71:c9:e0:18:
                    71:02:98:f5:26:e6:8d:14:62:fc:eb:49:28:19:e5:
                    e4:cb:12:6c:16:d2:88:b3:51:0b:3e:c2:cf:68:46:
                    20:e1:60:14:47:13:f1:fc:28:8d:88:70:be:94:fa:
                    84:ee:b8:46:1b:ed:d5:8e:de:bf:1a:78:4b:b2:69:
                    b9:47:ee:a6:8c:fb:26:31:6b:e8:e5:e5:a4:d1:43:
                    f0:8d:5b:59:7f:4a:ec:7b:76:75:4c:f8:66:ed:0a:
                    11:ff:e4:9a:71:56:2d:eb:11:88:63:b4:7d:4b:ed:
                    b6:12:cd:11:41:44:e0:97:33:e8:95:ef:9e:69:f1:
                    a6:70:96:13:84:79:f3:e0:5a:41:1c:d7:fd:35:1d:
                    23:47:8b:30:ab:62:48:98:7a:7a:26:25:76:65:49:
                    26:07:f2:7b:55:6c:19:aa:2b:a3:76:e8:b0:bd:17:
                    14:5e:a8:e1:fc:2f:46:5a:54:b9:4e:42:e0:2b:94:
                    d6:1b:8b:b4:c8:2b:b0:37:b1:f7:11:d3:79:49:c6:
                    6b:7d:6f:f4:ee:c2:b9:d4:18:ab:57:88:a1:c3:c9:
                    ab:14:69:47:12:7e:7b:f3:55:08:77:64:7b:71:03:
                    df:bf:4c:a3:09:32:5d:93:64:85:7a:91:f0:a1:80:
                    e8:25:a3:04:49:37:04:10:91:ba:b3:9e:8d:3c:b3:
                    dd:a7:b0:fb:6a:ef:9b:ac:b9:ba:76:23:bf:1f:b7:
                    f0:1b:b9:29:f9:1c:e5:8e:63:f8:80:b4:b1:93:f1:
                    f5:9f:c1:2c:eb:a6:b0:75:b5:53:51:72:60:7d:a3:
                    27:8b:55
                Exponent: 65537 (0x10001)
        X509v3 extensions:
            X509v3 Key Usage: critical
                Digital Signature, Key Encipherment
            X509v3 Basic Constraints: 
                CA:FALSE
            X509v3 Extended Key Usage: 
                TLS Web Client Authentication
            X509v3 Subject Key Identifier: 
                AF:21:66:B8:46:48:B6:B7:1B:04:9F:69:BD:20:49:9B:17:17:3E:39
            X509v3 Authority Key Identifier: 
                keyid:40:4E:DB:7F:82:7A:7D:C2:97:CA:E6:8E:20:04:79:BE:F7:EB:CA:B7

            X509v3 Subject Alternative Name: 
                email:provided@email.com
    Signature Algorithm: sha1WithRSAEncryption
         15:67:a5:08:dc:11:91:5c:42:80:93:ef:b6:e8:4d:96:4f:29:
         e9:39:04:93:50:22:d9:99:18:53:a8:de:f3:62:7b:51:8d:1a:
         80:63:cf:5b:80:bd:ae:ac:02:ac:be:8b:96:96:45:8e:e9:ad:
         41:87:77:7b:e2:a7:f2:08:3e:25:14:2a:61:0c:2e:00:0c:01:
         dc:dc:50:61:c2:91:75:7e:50:5a:c9:a2:e4:f8:5f:24:34:8e:
         ab:f5:68:ff:18:87:32:44:13:02:2d:86:9c:ea:43:02:cd:50:
         c8:9f:54:86:5f:b2:32:4d:eb:5d:f2:16:21:40:67:5c:e4:39:
         e3:11:c5:6d:79:6b:0b:f9:38:e2:14:c8:2b:d2:8b:36:e4:ec:
         5c:02:f1:4b:f1:59:59:04:ae:52:4f:50:29:d3:ee:ff:02:83:
         99:16:cd:e4:b3:0c:dc:06:82:24:4a:13:82:14:54:a4:bc:49:
         62:6c:96:d5:60:39:d0:a5:09:2d:8e:9b:d8:2e:28:9f:39:53:
         76:97:15:cf:6d:ec:a1:24:f3:03:f8:bb:88:11:d9:0b:78:68:
         fd:e2:b2:85:0c:5b:89:eb:d9:2f:08:5a:c4:36:f2:74:66:07:
         87:16:05:30:37:ca:6e:6c:2a:c5:8c:02:c4:97:cd:a0:ba:da:
         19:18:4c:e5:a6:72:d7:bc:0c:62:2e:33:67:8f:51:28:13:52:
         5d:18:fa:71:9c:d9:65:fd:82:61:4b:21:0c:7c:0b:b0:20:1d:
         02:8d:8c:87:15:90:52:ac:9f:3e:c0:22:a9:5a:75:3d:f6:04:
         ca:b0:72:ab:de:7f:d5:b2:7f:4f:50:a3:43:d6:64:c4:1b:11:
         4d:ff:1c:63:5f:60:a8:a8:8c:af:36:2f:f7:50:19:0f:63:77:
         38:cb:a3:1d:f9:63:b6:5d:2e:d4:a7:35:ae:89:43:9c:bf:85:
         d3:8b:04:d5:9a:60:35:d7:1c:a3:12:2c:05:95:86:5b:42:56:
         9e:fb:30:45:76:db:e7:56:e7:e8:04:2c:5a:41:81:0e:94:dc:
         95:de:9e:8a:9d:b8:64:cb:9c:0f:21:d6:ec:13:f2:6e:9a:42:
         2d:aa:ca:ed:63:a4:e0:f1:9f:dd:5e:d4:a4:0c:b4:5b:e6:b0:
         52:94:b5:b5:70:3a:5c:a1:4f:ab:20:51:63:ee:28:b2:55:01:
         7b:46:b9:95:fe:81:ef:4f:d8:64:5a:98:35:4b:4e:97:e4:68:
         98:23:a3:06:59:aa:55:38:5a:0e:0f:5e:9d:c1:1f:9d:dc:81:
         e6:af:56:2d:fe:9d:1f:03:57:3b:62:64:25:c3:ca:77:75:6a:
         ca:43:c0:77:d1:4e:33:b2
-----BEGIN CERTIFICATE-----
MIIFsTCCA5mgAwIBAgIBOzANBgkqhkiG9w0BAQUFADBqMQswCQYDVQQGEwJSUzEP
MA0GA1UECAwGU2VyYmlhMREwDwYDVQQHDAhCZWxncmFkZTEQMA4GA1UECgwHQ29k
ZVJlZDERMA8GA1UECwwIU2VjdXJpdHkxEjAQBgNVBAMMCUNsaWVudCBDQTAeFw0x
ODA0MDEyMTI0NTlaFw0xOTA0MDEyMTI0NTlaMDkxETAPBgNVBAoMCENvZGUgUmVk
MREwDwYDVQQLDAhTZWN1cml0eTERMA8GA1UEAwwIdXNlcm5hbWUwggIiMA0GCSqG
SIb3DQEBAQUAA4ICDwAwggIKAoICAQDqBUriUaX0y8hbDaJaa7brTlLdmUPq8y1L
xdviqHwvxR3az6S37lVk5cXvGNVz/J/cfj62n5TD++hV+7WXF6ZKcBbsfxs+80q6
YcAb8fU7KI4uXqPi6iFI1G2wAqeq460CA/3047RHQn8EIlTmM6wzAw6M2k2FhrNM
HtDIsKdEzS8qVY36zjkgMCjd1Y0gT+GWtKR9vP2q03n8SvAna5Q05QS/UttC/ZuZ
zm0lSbf8Bm7CWymEq8XX7tcth3jK2h1uVxzlRhDo4vfH4E+/ccngGHECmPUm5o0U
YvzrSSgZ5eTLEmwW0oizUQs+ws9oRiDhYBRHE/H8KI2IcL6U+oTuuEYb7dWO3r8a
eEuyablH7qaM+yYxa+jl5aTRQ/CNW1l/Sux7dnVM+GbtChH/5JpxVi3rEYhjtH1L
7bYSzRFBROCXM+iV755p8aZwlhOEefPgWkEc1/01HSNHizCrYkiYenomJXZlSSYH
8ntVbBmqK6N26LC9FxReqOH8L0ZaVLlOQuArlNYbi7TIK7A3sfcR03lJxmt9b/Tu
wrnUGKtXiKHDyasUaUcSfnvzVQh3ZHtxA9+/TKMJMl2TZIV6kfChgOglowRJNwQQ
kbqzno08s92nsPtq75usubp2I78ft/AbuSn5HOWOY/iAtLGT8fWfwSzrprB1tVNR
cmB9oyeLVQIDAQABo4GSMIGPMA4GA1UdDwEB/wQEAwIFoDAJBgNVHRMEAjAAMBMG
A1UdJQQMMAoGCCsGAQUFBwMCMB0GA1UdDgQWBBSvIWa4Rki2txsEn2m9IEmbFxc+
OTAfBgNVHSMEGDAWgBRATtt/gnp9wpfK5o4gBHm+9+vKtzAdBgNVHREEFjAUgRJw
cm92aWRlZEBlbWFpbC5jb20wDQYJKoZIhvcNAQEFBQADggIBABVnpQjcEZFcQoCT
77boTZZPKek5BJNQItmZGFOo3vNie1GNGoBjz1uAva6sAqy+i5aWRY7prUGHd3vi
p/IIPiUUKmEMLgAMAdzcUGHCkXV+UFrJouT4XyQ0jqv1aP8YhzJEEwIthpzqQwLN
UMifVIZfsjJN613yFiFAZ1zkOeMRxW15awv5OOIUyCvSizbk7FwC8UvxWVkErlJP
UCnT7v8Cg5kWzeSzDNwGgiRKE4IUVKS8SWJsltVgOdClCS2Om9guKJ85U3aXFc9t
7KEk8wP4u4gR2Qt4aP3isoUMW4nr2S8IWsQ28nRmB4cWBTA3ym5sKsWMAsSXzaC6
2hkYTOWmcte8DGIuM2ePUSgTUl0Y+nGc2WX9gmFLIQx8C7AgHQKNjIcVkFKsnz7A
IqladT32BMqwcqvef9Wyf09Qo0PWZMQbEU3/HGNfYKiojK82L/dQGQ9jdzjLox35
Y7ZdLtSnNa6JQ5y/hdOLBNWaYDXXHKMSLAWVhltCVp77MEV22+dW5+gELFpBgQ6U
3JXenoqduGTLnA8h1uwT8m6aQi2qyu1jpODxn91e1KQMtFvmsFKUtbVwOlyhT6sg
UWPuKLJVAXtGuZX+ge9P2GRamDVLTpfkaJgjowZZqlU4Wg4PXp3BH53cgeavVi3+
nR8DVztiZCXDynd1aspDwHfRTjOy
-----END CERTIFICATE-----
