Certificate:
    Data:
        Version: 3 (0x2)
        Serial Number: 60 (0x3c)
    Signature Algorithm: sha1WithRSAEncryption
        Issuer: C=RS, ST=Serbia, L=Belgrade, O=CodeRed, OU=Security, CN=Client CA
        Validity
            Not Before: Apr  1 21:35:29 2018 GMT
            Not After : Apr  1 21:35:29 2019 GMT
        Subject: O=Code Red, OU=Security, CN=username
        Subject Public Key Info:
            Public Key Algorithm: rsaEncryption
                Public-Key: (4096 bit)
                Modulus:
                    00:d6:93:c8:50:2c:76:4e:85:16:8f:8d:8d:04:ce:
                    5f:b2:f9:eb:4b:5f:a5:b4:8b:1c:ba:2c:ce:55:21:
                    b5:92:aa:2b:41:49:f5:86:91:61:ce:66:39:70:39:
                    aa:38:2b:2a:a6:ba:64:82:93:ad:de:d4:2f:b9:cc:
                    5c:e3:d3:45:91:77:53:dd:47:91:f9:26:45:40:a6:
                    1e:c2:67:ae:aa:fe:8c:ed:fe:94:ff:5f:51:95:d9:
                    50:8c:51:3c:d8:24:ee:51:e5:b8:ce:58:0d:51:86:
                    6e:63:13:68:76:78:82:86:86:88:a5:e0:84:28:5c:
                    59:1d:82:93:40:ac:5a:50:59:54:ba:0f:82:4c:19:
                    c8:96:21:88:f8:48:8e:82:d7:2d:a0:69:ab:0d:8f:
                    bf:81:df:58:f8:f2:39:14:db:6e:c9:84:08:30:1e:
                    26:b5:62:3a:5b:4d:92:66:aa:af:42:f4:e8:ae:e3:
                    a7:38:13:4f:29:ca:76:f4:18:6a:bb:8d:65:5d:e4:
                    6f:41:b1:39:ab:ac:fd:06:6e:d5:8d:da:ab:9e:b6:
                    4f:6f:df:de:49:72:77:80:6e:fe:e8:c5:54:2b:ea:
                    52:21:87:99:18:5f:e4:f4:c1:f2:f3:6d:d1:68:a3:
                    95:5a:5a:b7:a3:6c:58:9a:2d:14:f8:ec:17:1d:06:
                    d8:d3:81:6b:0d:18:d9:50:c4:71:2e:8d:5e:25:4e:
                    93:aa:fc:1c:a4:49:90:56:09:2d:b1:0a:4f:a0:e7:
                    68:f9:6c:10:e9:b3:6e:ea:09:d5:43:98:a5:c5:fe:
                    a9:f1:1b:e0:4f:9d:26:e3:d5:f4:f3:5f:a7:96:7e:
                    a6:e1:a0:01:93:32:45:45:a6:06:dc:23:76:1b:31:
                    97:9d:73:ce:13:a1:30:85:25:7c:b2:74:cc:99:0b:
                    4e:fc:56:23:74:3f:d0:b1:a5:3e:76:1c:0d:fb:5e:
                    eb:21:1b:b2:41:6a:75:3f:9f:14:66:8b:1a:2b:09:
                    68:6b:9d:63:61:66:ce:8a:c7:27:61:6a:48:8d:a6:
                    b4:7a:be:37:36:b1:47:05:5f:eb:45:1d:c3:c9:07:
                    98:92:02:da:aa:bc:fc:64:b9:54:e3:a6:e4:a8:07:
                    ce:42:a3:94:54:f0:82:99:7a:fe:8a:ec:74:22:39:
                    6c:3f:63:3b:98:63:e7:93:6c:2f:6b:bc:0e:7c:6f:
                    a0:fc:28:be:55:6f:c2:dd:96:b5:ed:ad:2e:25:ea:
                    ae:aa:73:b1:e2:f2:c0:79:92:02:88:f1:e3:c5:01:
                    f7:af:67:be:b6:a2:0c:8c:80:85:97:e5:f8:8e:00:
                    27:51:f0:ea:0e:b5:46:74:c9:51:c3:e5:f4:6e:32:
                    f2:7e:1f
                Exponent: 65537 (0x10001)
        X509v3 extensions:
            X509v3 Key Usage: critical
                Digital Signature, Key Encipherment
            X509v3 Basic Constraints: 
                CA:FALSE
            X509v3 Extended Key Usage: 
                TLS Web Client Authentication
            X509v3 Subject Key Identifier: 
                B9:1E:FD:4F:0C:C8:A8:21:19:B8:0F:28:3B:96:C1:50:5E:F4:AE:CA
            X509v3 Authority Key Identifier: 
                keyid:40:4E:DB:7F:82:7A:7D:C2:97:CA:E6:8E:20:04:79:BE:F7:EB:CA:B7

            X509v3 Subject Alternative Name: 
                email:provided@email.com
    Signature Algorithm: sha1WithRSAEncryption
         aa:bf:99:62:8d:f8:f9:7e:56:be:c7:c7:5f:f2:2d:84:29:4c:
         9a:38:4b:91:06:8e:9e:6f:5f:69:8a:80:4d:cc:a5:c5:25:c0:
         b3:d3:1d:13:79:8f:63:f7:f0:31:1e:7f:db:85:16:38:7f:a8:
         82:e3:07:58:b7:6a:ce:1a:1b:60:b0:b1:35:a0:5e:89:6a:13:
         56:5c:c7:b5:64:5b:d6:57:35:ea:32:31:94:b5:00:99:14:9e:
         f6:d5:89:1e:60:6b:12:7f:a2:1d:65:40:4b:37:c4:36:0b:f9:
         d2:01:3f:48:e0:fe:e1:74:85:21:bc:ad:c2:41:8e:8d:c8:c0:
         e7:70:bf:c8:e9:5a:91:2d:f3:b7:5b:f5:2e:24:eb:f5:b3:05:
         1f:b3:ca:77:8a:76:cc:76:71:1f:c6:47:bd:91:fd:db:93:45:
         a6:b6:f9:c8:17:97:10:56:76:94:89:38:6b:1e:f0:65:0a:d5:
         b7:ec:13:1f:08:a2:9f:9d:06:e6:b1:41:50:00:08:2f:87:b1:
         53:c6:72:83:26:86:00:df:dd:51:99:4a:60:13:53:bc:4f:07:
         2c:33:cd:8f:f0:54:35:df:2e:78:0e:9b:7b:22:6a:ee:8d:75:
         f4:52:6c:ca:66:60:9d:63:92:f5:23:be:62:4c:99:50:73:c4:
         82:9f:69:47:84:8e:9e:03:ae:9e:08:f4:80:82:3b:df:5c:45:
         db:0f:7a:4e:1a:6b:7a:06:38:74:20:ff:be:5d:9d:4c:f7:9a:
         99:57:de:b8:ab:60:43:d7:7b:90:da:12:b2:8b:c2:65:62:ec:
         67:0a:b2:9e:9f:8b:a6:6c:18:6c:f0:2c:9a:56:13:b9:d4:37:
         5c:5a:4f:f7:01:43:21:e1:16:06:fe:e8:09:68:db:f5:16:6f:
         3a:45:84:cc:f7:40:03:03:7d:02:8f:91:fe:a4:f9:90:ee:f1:
         9a:7a:dc:2c:64:96:d0:2b:96:6d:71:2f:2e:1b:64:30:85:80:
         67:ed:5b:01:bd:63:9e:1e:d7:6f:0d:b9:0a:b7:ba:26:1d:7c:
         31:09:7b:e7:b2:e0:7a:e2:00:49:14:79:92:95:68:28:56:71:
         05:86:4f:87:08:02:90:82:f2:9e:ea:82:47:f8:0f:f8:d6:d5:
         11:9d:53:d1:84:f5:b5:fb:3a:eb:e4:b2:78:db:0d:bf:c5:33:
         90:24:8a:3a:e6:7f:8c:ff:b1:24:05:b9:72:b2:6d:6d:ac:74:
         b4:84:26:b7:e5:61:29:0d:ea:bd:17:bf:26:a6:c3:7d:49:80:
         2e:e4:dc:ca:5e:3c:54:f1:7e:19:f1:72:db:63:9a:b9:af:16:
         07:48:7f:84:2f:51:95:43
-----BEGIN CERTIFICATE-----
MIIFsTCCA5mgAwIBAgIBPDANBgkqhkiG9w0BAQUFADBqMQswCQYDVQQGEwJSUzEP
MA0GA1UECAwGU2VyYmlhMREwDwYDVQQHDAhCZWxncmFkZTEQMA4GA1UECgwHQ29k
ZVJlZDERMA8GA1UECwwIU2VjdXJpdHkxEjAQBgNVBAMMCUNsaWVudCBDQTAeFw0x
ODA0MDEyMTM1MjlaFw0xOTA0MDEyMTM1MjlaMDkxETAPBgNVBAoMCENvZGUgUmVk
MREwDwYDVQQLDAhTZWN1cml0eTERMA8GA1UEAwwIdXNlcm5hbWUwggIiMA0GCSqG
SIb3DQEBAQUAA4ICDwAwggIKAoICAQDWk8hQLHZOhRaPjY0Ezl+y+etLX6W0ixy6
LM5VIbWSqitBSfWGkWHOZjlwOao4KyqmumSCk63e1C+5zFzj00WRd1PdR5H5JkVA
ph7CZ66q/ozt/pT/X1GV2VCMUTzYJO5R5bjOWA1Rhm5jE2h2eIKGhoil4IQoXFkd
gpNArFpQWVS6D4JMGciWIYj4SI6C1y2gaasNj7+B31j48jkU227JhAgwHia1Yjpb
TZJmqq9C9Oiu46c4E08pynb0GGq7jWVd5G9BsTmrrP0GbtWN2quetk9v395JcneA
bv7oxVQr6lIhh5kYX+T0wfLzbdFoo5VaWrejbFiaLRT47BcdBtjTgWsNGNlQxHEu
jV4lTpOq/BykSZBWCS2xCk+g52j5bBDps27qCdVDmKXF/qnxG+BPnSbj1fTzX6eW
fqbhoAGTMkVFpgbcI3YbMZedc84ToTCFJXyydMyZC078ViN0P9CxpT52HA37Xush
G7JBanU/nxRmixorCWhrnWNhZs6KxydhakiNprR6vjc2sUcFX+tFHcPJB5iSAtqq
vPxkuVTjpuSoB85Co5RU8IKZev6K7HQiOWw/YzuYY+eTbC9rvA58b6D8KL5Vb8Ld
lrXtrS4l6q6qc7Hi8sB5kgKI8ePFAfevZ762ogyMgIWX5fiOACdR8OoOtUZ0yVHD
5fRuMvJ+HwIDAQABo4GSMIGPMA4GA1UdDwEB/wQEAwIFoDAJBgNVHRMEAjAAMBMG
A1UdJQQMMAoGCCsGAQUFBwMCMB0GA1UdDgQWBBS5Hv1PDMioIRm4Dyg7lsFQXvSu
yjAfBgNVHSMEGDAWgBRATtt/gnp9wpfK5o4gBHm+9+vKtzAdBgNVHREEFjAUgRJw
cm92aWRlZEBlbWFpbC5jb20wDQYJKoZIhvcNAQEFBQADggIBAKq/mWKN+Pl+Vr7H
x1/yLYQpTJo4S5EGjp5vX2mKgE3MpcUlwLPTHRN5j2P38DEef9uFFjh/qILjB1i3
as4aG2CwsTWgXolqE1Zcx7VkW9ZXNeoyMZS1AJkUnvbViR5gaxJ/oh1lQEs3xDYL
+dIBP0jg/uF0hSG8rcJBjo3IwOdwv8jpWpEt87db9S4k6/WzBR+zyneKdsx2cR/G
R72R/duTRaa2+cgXlxBWdpSJOGse8GUK1bfsEx8Iop+dBuaxQVAACC+HsVPGcoMm
hgDf3VGZSmATU7xPBywzzY/wVDXfLngOm3siau6NdfRSbMpmYJ1jkvUjvmJMmVBz
xIKfaUeEjp4Drp4I9ICCO99cRdsPek4aa3oGOHQg/75dnUz3mplX3rirYEPXe5Da
ErKLwmVi7GcKsp6fi6ZsGGzwLJpWE7nUN1xaT/cBQyHhFgb+6Alo2/UWbzpFhMz3
QAMDfQKPkf6k+ZDu8Zp63CxkltArlm1xLy4bZDCFgGftWwG9Y54e128NuQq3uiYd
fDEJe+ey4HriAEkUeZKVaChWcQWGT4cIApCC8p7qgkf4D/jW1RGdU9GE9bX7Ouvk
snjbDb/FM5Akijrmf4z/sSQFuXKybW2sdLSEJrflYSkN6r0Xvyamw31JgC7k3Mpe
PFTxfhnxcttjmrmvFgdIf4QvUZVD
-----END CERTIFICATE-----
