Certificate:
    Data:
        Version: 3 (0x2)
        Serial Number: 61 (0x3d)
    Signature Algorithm: sha1WithRSAEncryption
        Issuer: C=RS, ST=Serbia, L=Belgrade, O=CodeRed, OU=Security, CN=Client CA
        Validity
            Not Before: Apr  1 21:42:04 2018 GMT
            Not After : Apr  1 21:42:04 2019 GMT
        Subject: O=Code Red, OU=Security, CN=username
        Subject Public Key Info:
            Public Key Algorithm: rsaEncryption
                Public-Key: (4096 bit)
                Modulus:
                    00:a4:9d:91:05:e4:3f:e9:98:16:8a:94:64:43:b1:
                    2b:d3:50:47:86:fe:37:57:52:ce:0d:e6:2f:26:ab:
                    00:59:57:0e:37:5f:f1:f0:9a:f0:4a:a9:34:3a:e3:
                    9b:af:9b:70:75:31:a3:f6:c3:1b:88:ce:17:8b:3e:
                    21:05:12:c0:c7:71:36:75:92:a4:5c:4f:e9:9d:7a:
                    4a:45:78:02:b8:8e:4d:1c:49:a1:6a:1e:d6:fe:70:
                    d0:6a:28:ee:5c:a8:a0:a1:56:9d:37:3c:dc:db:74:
                    6b:75:a7:e7:64:29:87:59:84:ae:79:d3:88:f0:1f:
                    e6:1e:33:e7:4a:81:6b:b7:0d:70:bf:90:df:92:2f:
                    0a:d0:aa:fc:2e:1a:06:a1:d5:11:74:75:8b:15:49:
                    1d:47:9b:eb:f6:6f:e7:70:0c:d2:20:0e:5b:7f:a0:
                    8c:d7:b6:94:0d:d6:b8:6d:0b:b3:62:fe:b6:4e:0e:
                    aa:80:b9:46:d2:7d:76:33:49:f5:82:76:b6:79:a5:
                    ee:13:1d:9c:36:1b:62:d0:6f:6a:41:ca:83:52:d6:
                    04:1e:b0:5b:53:b4:17:c1:91:ea:04:39:7e:cb:11:
                    e7:93:ad:40:50:c8:9d:bf:d5:55:a8:81:6c:96:d3:
                    7b:38:a4:df:2e:03:f9:b9:2f:c8:f6:3f:24:69:91:
                    e9:8a:0f:84:1d:1d:e9:e8:52:16:bb:f4:e3:14:7d:
                    7e:d1:16:3b:6d:a6:ab:21:fe:2a:a6:66:b7:92:03:
                    c8:38:70:a3:af:cc:f6:29:c7:2d:65:bb:e7:83:55:
                    a6:21:0c:6c:70:43:8a:7d:13:b8:08:86:a1:03:c7:
                    5f:85:54:57:5f:9c:fa:a1:4c:db:87:50:2d:91:2a:
                    58:c1:b7:43:c3:7a:d8:46:91:ba:ff:0a:a3:6c:04:
                    6f:b0:9a:f3:8d:95:c7:8d:e1:37:9f:f7:0e:6a:94:
                    14:fb:39:80:1b:c3:58:f4:c3:40:17:4e:e4:2d:72:
                    d1:4e:8a:5a:4d:74:80:91:dd:27:41:cc:95:a0:6e:
                    dd:20:d5:54:67:73:27:2c:71:09:31:8a:1d:c8:9c:
                    8d:0b:b4:34:c0:35:41:c6:5f:26:39:a5:78:bd:0b:
                    a7:04:4a:47:92:7b:5b:94:d2:ea:fd:ab:dd:c1:33:
                    b0:45:0c:ad:51:75:f5:6d:ff:13:00:9f:b1:c9:45:
                    18:e7:41:40:20:d0:be:85:8e:cb:ed:26:ef:a0:a2:
                    2a:e5:8e:78:64:f1:ef:77:c2:24:9d:e8:c2:9b:08:
                    e4:77:af:f1:ef:70:49:82:ef:7b:47:f5:3c:3a:3f:
                    30:13:86:e3:06:a8:ad:4a:24:83:b2:fd:f1:37:e8:
                    3a:81:a9
                Exponent: 65537 (0x10001)
        X509v3 extensions:
            X509v3 Key Usage: critical
                Digital Signature, Key Encipherment
            X509v3 Basic Constraints: 
                CA:FALSE
            X509v3 Extended Key Usage: 
                TLS Web Client Authentication
            X509v3 Subject Key Identifier: 
                E0:18:69:21:D6:80:A2:A6:B6:0F:CB:FE:2A:9C:F5:E2:81:93:43:CA
            X509v3 Authority Key Identifier: 
                keyid:40:4E:DB:7F:82:7A:7D:C2:97:CA:E6:8E:20:04:79:BE:F7:EB:CA:B7

            X509v3 Subject Alternative Name: 
                email:provided@email.com
    Signature Algorithm: sha1WithRSAEncryption
         78:d0:40:6c:5a:00:27:8f:24:9b:70:1f:00:2f:a5:88:01:61:
         cb:aa:8e:2e:53:eb:43:00:e5:ee:a6:e5:30:55:9b:10:dd:0f:
         0e:d0:d8:58:15:06:00:d3:65:4d:d0:2c:d7:91:44:61:f0:7f:
         89:97:5f:39:b0:7a:af:aa:45:7f:3b:b9:67:2f:52:80:ce:10:
         be:eb:09:41:b0:ca:ef:a1:0c:23:44:bf:3a:00:6e:93:b9:39:
         6f:bc:90:b0:a2:71:10:9f:56:34:46:9d:b2:6c:38:35:28:89:
         3b:76:2e:53:e4:ea:cf:8b:d2:0d:cc:b4:fe:8e:92:95:ea:e2:
         21:c1:60:1a:3c:7a:68:48:78:ce:d9:f2:35:ca:37:02:aa:2b:
         7d:58:5b:40:63:d5:f8:a7:ae:b0:31:19:31:49:90:91:0b:c7:
         2d:15:d8:a2:fb:b8:54:0a:16:da:6e:56:07:c3:80:e8:90:dd:
         9a:86:74:d6:f5:ff:1e:b6:0f:4d:8e:94:db:68:d7:fe:22:96:
         95:e6:f7:9c:ae:34:10:7c:38:66:15:df:06:5c:37:aa:65:a3:
         0f:41:11:4d:df:27:65:78:66:0b:07:8e:4d:a8:5a:b5:85:fb:
         2f:62:28:b2:bb:bb:a5:99:d5:e5:2a:9b:81:70:83:89:a7:aa:
         01:d8:94:c3:40:bd:16:21:f3:85:cb:a7:66:ec:38:1d:51:40:
         78:63:e4:ad:73:59:2f:be:33:92:62:02:5c:87:1b:e1:91:a8:
         b3:f2:44:3d:b4:15:60:1f:5c:fb:5d:b4:44:3a:92:0a:16:a1:
         89:60:bc:b2:13:ea:a4:26:f6:a2:07:b5:96:96:14:1a:39:af:
         7d:51:c8:ea:77:97:3f:97:0d:13:fc:2f:39:de:e6:21:ba:be:
         af:0a:e5:1f:be:4e:46:1b:81:e3:87:3c:d2:ba:84:4e:78:55:
         64:bc:8c:fd:a0:10:3c:d3:5c:9d:8b:f8:ec:7c:2c:35:66:24:
         10:03:ae:b2:a9:09:fa:4d:ae:33:c9:47:0f:1b:b6:16:18:b5:
         8c:b4:f0:b3:c8:8f:da:2d:73:eb:0f:55:6d:48:03:41:2a:10:
         db:79:73:b8:bf:89:1e:29:a5:86:76:60:a8:78:15:58:10:25:
         79:a7:17:c9:06:dd:bc:5e:ea:0b:a1:cc:58:87:71:0e:b9:f0:
         ac:c2:40:69:08:0b:15:d1:97:e1:b3:5e:41:d9:70:9e:a2:52:
         8e:11:0a:df:ef:65:ce:de:ab:3c:cb:d0:48:48:68:98:83:23:
         c7:01:99:1a:a9:1b:9e:05:f8:9d:2a:36:3f:be:40:59:5c:44:
         bd:2f:8e:65:6a:15:4a:f6
-----BEGIN CERTIFICATE-----
MIIFsTCCA5mgAwIBAgIBPTANBgkqhkiG9w0BAQUFADBqMQswCQYDVQQGEwJSUzEP
MA0GA1UECAwGU2VyYmlhMREwDwYDVQQHDAhCZWxncmFkZTEQMA4GA1UECgwHQ29k
ZVJlZDERMA8GA1UECwwIU2VjdXJpdHkxEjAQBgNVBAMMCUNsaWVudCBDQTAeFw0x
ODA0MDEyMTQyMDRaFw0xOTA0MDEyMTQyMDRaMDkxETAPBgNVBAoMCENvZGUgUmVk
MREwDwYDVQQLDAhTZWN1cml0eTERMA8GA1UEAwwIdXNlcm5hbWUwggIiMA0GCSqG
SIb3DQEBAQUAA4ICDwAwggIKAoICAQCknZEF5D/pmBaKlGRDsSvTUEeG/jdXUs4N
5i8mqwBZVw43X/HwmvBKqTQ645uvm3B1MaP2wxuIzheLPiEFEsDHcTZ1kqRcT+md
ekpFeAK4jk0cSaFqHtb+cNBqKO5cqKChVp03PNzbdGt1p+dkKYdZhK5504jwH+Ye
M+dKgWu3DXC/kN+SLwrQqvwuGgah1RF0dYsVSR1Hm+v2b+dwDNIgDlt/oIzXtpQN
1rhtC7Ni/rZODqqAuUbSfXYzSfWCdrZ5pe4THZw2G2LQb2pByoNS1gQesFtTtBfB
keoEOX7LEeeTrUBQyJ2/1VWogWyW03s4pN8uA/m5L8j2PyRpkemKD4QdHenoUha7
9OMUfX7RFjttpqsh/iqmZreSA8g4cKOvzPYpxy1lu+eDVaYhDGxwQ4p9E7gIhqED
x1+FVFdfnPqhTNuHUC2RKljBt0PDethGkbr/CqNsBG+wmvONlceN4Tef9w5qlBT7
OYAbw1j0w0AXTuQtctFOilpNdICR3SdBzJWgbt0g1VRncycscQkxih3InI0LtDTA
NUHGXyY5pXi9C6cESkeSe1uU0ur9q93BM7BFDK1RdfVt/xMAn7HJRRjnQUAg0L6F
jsvtJu+goirljnhk8e93wiSd6MKbCOR3r/HvcEmC73tH9Tw6PzAThuMGqK1KJIOy
/fE36DqBqQIDAQABo4GSMIGPMA4GA1UdDwEB/wQEAwIFoDAJBgNVHRMEAjAAMBMG
A1UdJQQMMAoGCCsGAQUFBwMCMB0GA1UdDgQWBBTgGGkh1oCiprYPy/4qnPXigZND
yjAfBgNVHSMEGDAWgBRATtt/gnp9wpfK5o4gBHm+9+vKtzAdBgNVHREEFjAUgRJw
cm92aWRlZEBlbWFpbC5jb20wDQYJKoZIhvcNAQEFBQADggIBAHjQQGxaACePJJtw
HwAvpYgBYcuqji5T60MA5e6m5TBVmxDdDw7Q2FgVBgDTZU3QLNeRRGHwf4mXXzmw
eq+qRX87uWcvUoDOEL7rCUGwyu+hDCNEvzoAbpO5OW+8kLCicRCfVjRGnbJsODUo
iTt2LlPk6s+L0g3MtP6OkpXq4iHBYBo8emhIeM7Z8jXKNwKqK31YW0Bj1finrrAx
GTFJkJELxy0V2KL7uFQKFtpuVgfDgOiQ3ZqGdNb1/x62D02OlNto1/4ilpXm95yu
NBB8OGYV3wZcN6plow9BEU3fJ2V4ZgsHjk2oWrWF+y9iKLK7u6WZ1eUqm4Fwg4mn
qgHYlMNAvRYh84XLp2bsOB1RQHhj5K1zWS++M5JiAlyHG+GRqLPyRD20FWAfXPtd
tEQ6kgoWoYlgvLIT6qQm9qIHtZaWFBo5r31RyOp3lz+XDRP8Lzne5iG6vq8K5R++
TkYbgeOHPNK6hE54VWS8jP2gEDzTXJ2L+Ox8LDVmJBADrrKpCfpNrjPJRw8bthYY
tYy08LPIj9otc+sPVW1IA0EqENt5c7i/iR4ppYZ2YKh4FVgQJXmnF8kG3bxe6guh
zFiHcQ658KzCQGkICxXRl+GzXkHZcJ6iUo4RCt/vZc7eqzzL0EhIaJiDI8cBmRqp
G54F+J0qNj++QFlcRL0vjmVqFUr2
-----END CERTIFICATE-----
