Certificate:
    Data:
        Version: 3 (0x2)
        Serial Number: 62 (0x3e)
    Signature Algorithm: sha1WithRSAEncryption
        Issuer: C=RS, ST=Serbia, L=Belgrade, O=CodeRed, OU=Security, CN=Client CA
        Validity
            Not Before: Apr  1 21:43:38 2018 GMT
            Not After : Apr  1 21:43:38 2019 GMT
        Subject: O=Code Red, OU=Security, CN=username
        Subject Public Key Info:
            Public Key Algorithm: rsaEncryption
                Public-Key: (4096 bit)
                Modulus:
                    00:da:25:2a:ea:5a:d3:ae:0f:81:73:36:35:09:3a:
                    47:81:f5:fb:f8:a0:30:50:f1:85:32:d5:49:1c:5e:
                    fc:ab:59:a1:b1:47:59:24:b1:c3:7e:7f:1c:6c:fd:
                    86:18:b2:8e:bf:dc:b4:ff:eb:a9:1f:e1:13:99:64:
                    24:fd:17:56:4b:ed:14:42:47:27:ea:e5:b7:01:21:
                    9b:d5:98:31:6d:12:2c:42:f0:04:aa:0b:f6:5b:b4:
                    23:b7:8f:9f:95:21:21:44:8e:28:7d:a6:7c:5a:4a:
                    36:6b:09:34:27:49:ab:da:36:c5:7b:08:85:97:19:
                    0d:d3:37:94:9c:50:85:d2:00:aa:5b:62:2e:cb:82:
                    8a:ee:64:8a:84:8d:15:5c:4c:52:16:42:37:8e:ad:
                    56:0e:15:30:51:5b:f6:16:76:02:19:19:d5:0a:93:
                    3d:85:cf:7b:47:da:a5:14:18:87:3f:ea:07:45:a4:
                    29:84:1c:e2:67:c6:a5:68:67:db:df:4e:cd:a2:5f:
                    c4:54:bd:30:11:82:72:c5:16:64:ec:23:35:69:ac:
                    30:ba:90:65:da:32:22:90:d4:26:88:0b:80:94:56:
                    38:08:ce:41:b8:a2:91:8c:8c:9a:41:67:b2:1f:12:
                    de:21:6f:2f:f6:f5:46:45:3f:d7:b6:94:cf:86:d4:
                    6e:e5:57:35:5c:0a:a9:0a:6b:d5:5e:20:b7:5e:1e:
                    c8:c5:9a:23:09:a0:a5:4c:6f:85:76:67:2c:d3:e3:
                    4d:5a:35:3f:d9:45:5f:17:87:4d:bf:71:81:08:1b:
                    5e:44:2e:e3:64:10:b1:f2:a9:30:7a:21:9b:b4:0a:
                    54:ca:a0:7d:2d:9e:5c:fa:7e:37:8e:83:40:b5:c0:
                    8f:84:00:55:a8:95:a3:c8:df:b9:6f:c4:6a:bb:e3:
                    b8:db:7d:2c:6c:5e:b8:11:6c:50:47:f1:1c:88:6b:
                    95:39:8d:43:f1:bf:ac:4a:b1:d7:b5:6a:31:e5:b7:
                    4d:c4:6f:1c:8f:a1:ca:f5:1c:3e:f4:38:d3:e4:fb:
                    7e:df:9a:03:41:aa:70:72:10:cf:c5:f0:e5:05:de:
                    1c:fb:d6:f5:71:74:c3:f8:d7:6c:fc:a2:e0:9d:7d:
                    48:5a:86:c2:99:d4:04:28:89:82:bd:34:36:b9:c0:
                    67:8c:3d:45:54:68:b6:7f:a0:c8:40:9a:e9:a1:7d:
                    2d:86:c2:31:d9:47:c8:fa:58:db:77:4e:e6:53:17:
                    77:30:af:43:0e:3c:1f:68:c4:62:54:7b:1a:49:d7:
                    76:39:ac:30:06:c1:18:b9:37:6a:08:32:78:a6:73:
                    ad:47:5d:45:b4:51:be:33:9e:44:0b:0c:ba:17:59:
                    5f:f6:67
                Exponent: 65537 (0x10001)
        X509v3 extensions:
            X509v3 Key Usage: critical
                Digital Signature, Key Encipherment
            X509v3 Basic Constraints: 
                CA:FALSE
            X509v3 Extended Key Usage: 
                TLS Web Client Authentication
            X509v3 Subject Key Identifier: 
                1F:1E:C0:A1:DD:DD:2B:AF:58:35:AA:30:4E:B4:D5:95:98:AC:41:C5
            X509v3 Authority Key Identifier: 
                keyid:40:4E:DB:7F:82:7A:7D:C2:97:CA:E6:8E:20:04:79:BE:F7:EB:CA:B7

            X509v3 Subject Alternative Name: 
                email:provided@email.com
    Signature Algorithm: sha1WithRSAEncryption
         6a:65:89:3b:85:95:6d:60:49:d9:67:14:65:5b:50:6c:fd:51:
         6a:7d:f5:22:9d:9b:6c:60:98:6d:88:49:b1:7c:7a:2f:42:6e:
         4a:5b:7e:ac:55:3b:0c:10:8e:a3:6f:3b:7b:fb:d8:c7:a5:8f:
         3d:3b:88:a3:64:03:c2:0c:8f:a9:78:28:05:b9:8b:c4:8b:ad:
         a3:2f:e5:80:f9:e7:fa:55:e1:7f:48:a8:ea:a2:3a:b6:98:9d:
         40:c0:81:2e:53:a3:6e:31:8d:5b:c8:83:5c:5a:43:48:04:32:
         1d:8b:4e:16:fa:91:95:12:eb:15:82:1c:be:f1:ee:e6:b0:0d:
         16:a7:45:c8:76:9c:70:6c:1d:cd:31:ef:9d:f2:d7:0b:fe:1d:
         92:b7:15:53:d3:1c:90:28:4c:45:9f:0d:bd:81:2d:7a:e2:aa:
         25:3a:9c:7e:0c:54:58:e7:69:70:2e:4a:fe:65:26:e5:81:6e:
         66:e3:1a:a4:82:13:83:1d:4a:b8:39:2a:3a:a3:fc:3c:9c:06:
         aa:e4:ae:7d:27:b2:a7:55:50:de:67:a8:3b:c9:b0:46:57:c7:
         0a:c1:7b:c3:a8:8f:74:24:eb:41:84:c5:80:5b:58:d1:71:5c:
         fb:78:7f:83:22:bf:30:0c:aa:d0:c6:15:c5:9f:17:9e:d4:fd:
         12:53:3a:24:48:c5:86:5f:5e:10:7c:9e:92:d2:d5:df:51:d5:
         a7:9e:f6:f0:92:cd:0d:61:ec:f9:f4:21:16:1a:ab:57:da:cb:
         a2:b7:a5:6e:a1:b6:49:3c:99:97:46:9b:46:59:57:5a:e9:a9:
         d7:1a:09:5c:73:54:5b:5c:82:fc:cc:0e:d9:d0:83:59:8e:61:
         5c:d2:2c:46:dc:5b:0a:bc:6c:27:06:00:60:09:27:47:17:bf:
         fd:73:96:50:e1:1d:10:61:7f:db:7b:f1:a2:98:38:54:45:56:
         46:c2:fd:1e:c3:9f:6e:78:3c:da:a9:dc:bf:a1:9a:24:71:5f:
         f9:07:9c:17:bb:4d:fd:ae:e5:1b:31:28:3d:77:79:8d:db:65:
         9c:46:22:39:ec:c5:ec:d0:fb:19:80:1a:a2:a8:11:3e:38:b3:
         16:a5:74:b1:6d:d4:53:a8:5c:5d:07:1b:8b:fc:e4:8e:bf:43:
         8c:0b:89:10:f8:c5:11:8a:c7:49:d4:4a:46:71:c2:92:4e:f8:
         80:a1:39:1a:fd:80:3e:18:9e:d2:d4:25:dd:cb:f2:f2:cd:99:
         d3:09:75:22:39:1d:49:8a:83:f1:00:5f:70:be:11:d3:57:62:
         23:f5:b3:20:c2:dc:ac:26:e4:06:2a:cf:ab:3d:c7:59:56:10:
         bc:bf:25:46:7a:50:a8:6d
-----BEGIN CERTIFICATE-----
MIIFsTCCA5mgAwIBAgIBPjANBgkqhkiG9w0BAQUFADBqMQswCQYDVQQGEwJSUzEP
MA0GA1UECAwGU2VyYmlhMREwDwYDVQQHDAhCZWxncmFkZTEQMA4GA1UECgwHQ29k
ZVJlZDERMA8GA1UECwwIU2VjdXJpdHkxEjAQBgNVBAMMCUNsaWVudCBDQTAeFw0x
ODA0MDEyMTQzMzhaFw0xOTA0MDEyMTQzMzhaMDkxETAPBgNVBAoMCENvZGUgUmVk
MREwDwYDVQQLDAhTZWN1cml0eTERMA8GA1UEAwwIdXNlcm5hbWUwggIiMA0GCSqG
SIb3DQEBAQUAA4ICDwAwggIKAoICAQDaJSrqWtOuD4FzNjUJOkeB9fv4oDBQ8YUy
1UkcXvyrWaGxR1kkscN+fxxs/YYYso6/3LT/66kf4ROZZCT9F1ZL7RRCRyfq5bcB
IZvVmDFtEixC8ASqC/ZbtCO3j5+VISFEjih9pnxaSjZrCTQnSavaNsV7CIWXGQ3T
N5ScUIXSAKpbYi7LgoruZIqEjRVcTFIWQjeOrVYOFTBRW/YWdgIZGdUKkz2Fz3tH
2qUUGIc/6gdFpCmEHOJnxqVoZ9vfTs2iX8RUvTARgnLFFmTsIzVprDC6kGXaMiKQ
1CaIC4CUVjgIzkG4opGMjJpBZ7IfEt4hby/29UZFP9e2lM+G1G7lVzVcCqkKa9Ve
ILdeHsjFmiMJoKVMb4V2ZyzT401aNT/ZRV8Xh02/cYEIG15ELuNkELHyqTB6IZu0
ClTKoH0tnlz6fjeOg0C1wI+EAFWolaPI37lvxGq747jbfSxsXrgRbFBH8RyIa5U5
jUPxv6xKsde1ajHlt03EbxyPocr1HD70ONPk+37fmgNBqnByEM/F8OUF3hz71vVx
dMP412z8ouCdfUhahsKZ1AQoiYK9NDa5wGeMPUVUaLZ/oMhAmumhfS2GwjHZR8j6
WNt3TuZTF3cwr0MOPB9oxGJUexpJ13Y5rDAGwRi5N2oIMnimc61HXUW0Ub4znkQL
DLoXWV/2ZwIDAQABo4GSMIGPMA4GA1UdDwEB/wQEAwIFoDAJBgNVHRMEAjAAMBMG
A1UdJQQMMAoGCCsGAQUFBwMCMB0GA1UdDgQWBBQfHsCh3d0rr1g1qjBOtNWVmKxB
xTAfBgNVHSMEGDAWgBRATtt/gnp9wpfK5o4gBHm+9+vKtzAdBgNVHREEFjAUgRJw
cm92aWRlZEBlbWFpbC5jb20wDQYJKoZIhvcNAQEFBQADggIBAGpliTuFlW1gSdln
FGVbUGz9UWp99SKdm2xgmG2ISbF8ei9CbkpbfqxVOwwQjqNvO3v72Meljz07iKNk
A8IMj6l4KAW5i8SLraMv5YD55/pV4X9IqOqiOraYnUDAgS5To24xjVvIg1xaQ0gE
Mh2LThb6kZUS6xWCHL7x7uawDRanRch2nHBsHc0x753y1wv+HZK3FVPTHJAoTEWf
Db2BLXriqiU6nH4MVFjnaXAuSv5lJuWBbmbjGqSCE4MdSrg5Kjqj/DycBqrkrn0n
sqdVUN5nqDvJsEZXxwrBe8Ooj3Qk60GExYBbWNFxXPt4f4MivzAMqtDGFcWfF57U
/RJTOiRIxYZfXhB8npLS1d9R1aee9vCSzQ1h7Pn0IRYaq1fay6K3pW6htkk8mZdG
m0ZZV1rpqdcaCVxzVFtcgvzMDtnQg1mOYVzSLEbcWwq8bCcGAGAJJ0cXv/1zllDh
HRBhf9t78aKYOFRFVkbC/R7Dn254PNqp3L+hmiRxX/kHnBe7Tf2u5RsxKD13eY3b
ZZxGIjnsxezQ+xmAGqKoET44sxaldLFt1FOoXF0HG4v85I6/Q4wLiRD4xRGKx0nU
SkZxwpJO+IChORr9gD4YntLUJd3L8vLNmdMJdSI5HUmKg/EAX3C+EdNXYiP1syDC
3Kwm5AYqz6s9x1lWELy/JUZ6UKht
-----END CERTIFICATE-----
