Certificate:
    Data:
        Version: 3 (0x2)
        Serial Number: 63 (0x3f)
    Signature Algorithm: sha1WithRSAEncryption
        Issuer: C=RS, ST=Serbia, L=Belgrade, O=CodeRed, OU=Security, CN=Client CA
        Validity
            Not Before: Apr  2 16:46:25 2018 GMT
            Not After : Apr  2 16:46:25 2019 GMT
        Subject: O=Code Red, OU=Security, CN=username
        Subject Public Key Info:
            Public Key Algorithm: rsaEncryption
                Public-Key: (4096 bit)
                Modulus:
                    00:cc:49:47:96:d8:8d:c7:38:e8:51:77:00:b1:c4:
                    51:1a:cd:92:95:0d:83:65:86:73:3e:f7:f5:d2:68:
                    4f:e3:de:b4:97:f0:6b:82:9f:7c:3a:c3:7a:80:91:
                    39:27:7d:1b:76:14:7c:6f:8b:f2:5c:45:d2:b1:15:
                    39:1e:04:08:a7:64:a9:f5:22:2b:63:6a:49:a0:f2:
                    87:8c:09:cb:1f:b7:62:0d:5b:f6:0c:79:ae:9d:c1:
                    1b:46:78:58:b4:b9:df:a3:77:62:e1:72:12:9e:77:
                    23:c5:3c:db:a5:6b:c1:7a:99:2f:bc:de:04:7e:b3:
                    79:1e:11:bb:0f:78:19:23:85:34:9b:53:9c:7b:2f:
                    2f:36:72:7e:3e:06:04:dc:8b:68:5b:d2:06:3e:b1:
                    21:b6:92:5c:01:a1:bd:45:61:e0:7b:bc:98:28:d6:
                    d7:d8:13:ef:91:ab:51:81:b5:ea:cf:cf:05:fb:69:
                    03:0a:a5:7f:e1:50:b1:49:5a:52:04:9f:45:1e:6e:
                    7a:07:c8:0f:ef:50:43:db:27:e0:cf:fc:f2:23:ac:
                    75:fb:98:0e:1d:fc:b7:fb:18:79:fd:74:e9:e7:f5:
                    39:b3:2b:fa:2d:0b:56:2f:aa:79:ee:4e:0a:81:b2:
                    36:f3:48:18:74:4f:8c:36:a1:a8:01:1b:ff:5e:39:
                    85:1d:d4:82:72:74:c0:06:30:3e:85:45:1c:a2:7f:
                    e9:4c:40:17:99:30:57:78:b9:51:fb:8e:0b:7b:0f:
                    c1:32:a0:4d:c4:e4:79:2f:7d:dc:b8:d9:c2:4b:53:
                    fc:64:36:9d:aa:c1:55:bd:49:e2:14:cf:13:18:cd:
                    2e:9d:6a:00:35:d3:84:77:df:66:d6:5d:e8:05:d9:
                    22:e1:18:34:ee:32:62:44:3f:c4:c7:34:61:a7:f8:
                    53:96:4b:70:3a:7f:9f:70:38:a1:dc:cc:57:74:63:
                    a2:91:57:4e:7a:2f:2b:1c:fe:59:e5:17:25:00:5c:
                    3c:19:19:7d:f1:65:c4:a7:86:11:65:de:9f:4f:dd:
                    dc:a1:8b:f8:57:62:ea:03:bf:18:2f:9a:d0:96:a9:
                    65:b7:f3:0f:45:e8:78:19:69:1e:c4:13:c0:43:d8:
                    1a:28:fe:f2:02:88:73:68:d7:70:52:39:7a:82:10:
                    23:ee:84:e5:6f:30:a5:1c:66:b7:91:8d:43:89:cf:
                    25:ed:a8:59:7a:b0:fd:08:c6:33:f0:54:f8:06:8b:
                    86:91:7e:e9:ac:c8:1b:33:e1:a4:71:fe:7a:c9:7a:
                    68:b5:0d:17:f3:19:bb:f5:f1:f7:24:4b:fe:32:bb:
                    33:30:6d:09:ee:a1:5b:e2:cc:4a:ab:19:22:b2:12:
                    cd:55:bd
                Exponent: 65537 (0x10001)
        X509v3 extensions:
            X509v3 Key Usage: critical
                Digital Signature, Key Encipherment
            X509v3 Basic Constraints: 
                CA:FALSE
            X509v3 Extended Key Usage: 
                TLS Web Client Authentication
            X509v3 Subject Key Identifier: 
                EF:8A:3D:C5:0B:AB:91:59:48:C2:FC:EC:A2:DE:FE:CC:74:0A:DE:63
            X509v3 Authority Key Identifier: 
                keyid:40:4E:DB:7F:82:7A:7D:C2:97:CA:E6:8E:20:04:79:BE:F7:EB:CA:B7

            X509v3 Subject Alternative Name: 
                email:provided@email.com
    Signature Algorithm: sha1WithRSAEncryption
         98:2f:05:8e:9e:3f:ec:2f:78:0b:f3:c4:05:6d:a4:05:01:ec:
         25:1f:52:b1:c6:7f:f9:76:ce:4c:3d:a8:f7:e9:bb:56:07:9c:
         cf:5a:51:06:dd:63:53:c0:28:ce:e9:21:9e:e2:a1:b7:11:01:
         59:0f:14:17:1d:cd:6f:67:f7:e0:22:9f:9a:ab:00:36:03:1d:
         04:6f:de:19:a8:35:73:5d:90:ff:a1:a2:b2:4f:32:0f:a5:4b:
         4f:f2:2b:c8:af:eb:9e:56:13:16:1d:da:a5:7d:3b:3e:7e:0b:
         6e:e4:25:e9:e2:8b:bc:52:bc:3c:4b:3f:9b:72:d9:3e:86:14:
         d9:f3:77:d4:26:0f:79:9b:7e:c5:f3:8a:78:82:62:15:f3:0c:
         da:d3:cf:50:e5:c0:a3:ee:9e:07:5c:00:8b:dc:b8:0e:8d:4d:
         5d:96:0e:62:d3:1b:df:29:8e:c3:52:00:b7:59:66:b4:9b:3c:
         a0:0e:1f:b1:a4:c1:37:08:e1:6c:8d:6b:08:c2:c4:b8:9b:11:
         cf:b0:fc:b7:70:4a:45:bf:7b:26:cb:a0:05:78:59:71:2a:37:
         d7:84:85:d8:82:63:3f:58:51:8f:6d:a0:3f:7a:92:67:b8:80:
         15:f5:9c:8d:1e:03:75:3d:80:80:2a:db:99:86:4f:89:60:eb:
         13:ce:2f:6f:02:61:eb:92:c7:b5:20:57:80:25:c8:65:e9:f0:
         d7:71:82:8c:10:c6:bf:6a:bc:c0:da:aa:e3:ac:84:0d:5b:c8:
         c2:3a:ec:e7:7a:13:e7:ba:02:5a:ec:72:1f:8e:8b:64:c0:80:
         d8:4c:30:9c:fc:bb:78:9a:84:6e:e8:d7:14:c0:5f:c6:43:ad:
         9f:cb:68:bc:51:62:00:05:c4:f7:0f:9b:59:55:b5:8b:a8:a0:
         13:ae:fb:eb:5a:5d:f1:c5:9e:90:99:b4:da:72:9d:1e:4b:67:
         76:ee:51:7b:ed:bb:17:07:ca:c8:c2:b9:10:1b:f1:9e:0d:d4:
         87:64:8a:95:f4:44:aa:78:43:78:3c:6b:18:29:e9:8b:2b:22:
         5a:00:26:2c:65:b2:1a:1e:b0:91:51:f3:82:2a:16:cf:a6:72:
         ab:8e:15:0a:61:f9:ed:f4:b6:01:17:c3:fc:da:20:10:ff:ff:
         08:9f:7a:4c:c3:ac:c9:78:d8:14:a8:4c:bf:1d:31:c6:2b:25:
         28:0f:0b:e7:74:a4:07:04:4f:8f:02:81:23:4a:f7:01:5b:11:
         58:90:42:e3:9f:68:61:f0:1c:53:5f:f7:34:dd:e1:6b:eb:e3:
         4c:96:9a:42:73:8f:e4:ae:e3:40:9a:a2:86:47:2d:00:06:88:
         73:28:6b:77:78:58:ef:7c
-----BEGIN CERTIFICATE-----
MIIFsTCCA5mgAwIBAgIBPzANBgkqhkiG9w0BAQUFADBqMQswCQYDVQQGEwJSUzEP
MA0GA1UECAwGU2VyYmlhMREwDwYDVQQHDAhCZWxncmFkZTEQMA4GA1UECgwHQ29k
ZVJlZDERMA8GA1UECwwIU2VjdXJpdHkxEjAQBgNVBAMMCUNsaWVudCBDQTAeFw0x
ODA0MDIxNjQ2MjVaFw0xOTA0MDIxNjQ2MjVaMDkxETAPBgNVBAoMCENvZGUgUmVk
MREwDwYDVQQLDAhTZWN1cml0eTERMA8GA1UEAwwIdXNlcm5hbWUwggIiMA0GCSqG
SIb3DQEBAQUAA4ICDwAwggIKAoICAQDMSUeW2I3HOOhRdwCxxFEazZKVDYNlhnM+
9/XSaE/j3rSX8GuCn3w6w3qAkTknfRt2FHxvi/JcRdKxFTkeBAinZKn1Iitjakmg
8oeMCcsft2INW/YMea6dwRtGeFi0ud+jd2LhchKedyPFPNula8F6mS+83gR+s3ke
EbsPeBkjhTSbU5x7Ly82cn4+BgTci2hb0gY+sSG2klwBob1FYeB7vJgo1tfYE++R
q1GBterPzwX7aQMKpX/hULFJWlIEn0UebnoHyA/vUEPbJ+DP/PIjrHX7mA4d/Lf7
GHn9dOnn9TmzK/otC1YvqnnuTgqBsjbzSBh0T4w2oagBG/9eOYUd1IJydMAGMD6F
RRyif+lMQBeZMFd4uVH7jgt7D8EyoE3E5Hkvfdy42cJLU/xkNp2qwVW9SeIUzxMY
zS6dagA104R332bWXegF2SLhGDTuMmJEP8THNGGn+FOWS3A6f59wOKHczFd0Y6KR
V056Lysc/lnlFyUAXDwZGX3xZcSnhhFl3p9P3dyhi/hXYuoDvxgvmtCWqWW38w9F
6HgZaR7EE8BD2Boo/vICiHNo13BSOXqCECPuhOVvMKUcZreRjUOJzyXtqFl6sP0I
xjPwVPgGi4aRfumsyBsz4aRx/nrJemi1DRfzGbv18fckS/4yuzMwbQnuoVvizEqr
GSKyEs1VvQIDAQABo4GSMIGPMA4GA1UdDwEB/wQEAwIFoDAJBgNVHRMEAjAAMBMG
A1UdJQQMMAoGCCsGAQUFBwMCMB0GA1UdDgQWBBTvij3FC6uRWUjC/Oyi3v7MdAre
YzAfBgNVHSMEGDAWgBRATtt/gnp9wpfK5o4gBHm+9+vKtzAdBgNVHREEFjAUgRJw
cm92aWRlZEBlbWFpbC5jb20wDQYJKoZIhvcNAQEFBQADggIBAJgvBY6eP+wveAvz
xAVtpAUB7CUfUrHGf/l2zkw9qPfpu1YHnM9aUQbdY1PAKM7pIZ7iobcRAVkPFBcd
zW9n9+Ain5qrADYDHQRv3hmoNXNdkP+horJPMg+lS0/yK8iv655WExYd2qV9Oz5+
C27kJenii7xSvDxLP5ty2T6GFNnzd9QmD3mbfsXziniCYhXzDNrTz1DlwKPungdc
AIvcuA6NTV2WDmLTG98pjsNSALdZZrSbPKAOH7GkwTcI4WyNawjCxLibEc+w/Ldw
SkW/eybLoAV4WXEqN9eEhdiCYz9YUY9toD96kme4gBX1nI0eA3U9gIAq25mGT4lg
6xPOL28CYeuSx7UgV4AlyGXp8NdxgowQxr9qvMDaquOshA1byMI67Od6E+e6Alrs
ch+Oi2TAgNhMMJz8u3iahG7o1xTAX8ZDrZ/LaLxRYgAFxPcPm1lVtYuooBOu++ta
XfHFnpCZtNpynR5LZ3buUXvtuxcHysjCuRAb8Z4N1IdkipX0RKp4Q3g8axgp6Ysr
IloAJixlshoesJFR84IqFs+mcquOFQph+e30tgEXw/zaIBD//wifekzDrMl42BSo
TL8dMcYrJSgPC+d0pAcET48CgSNK9wFbEViQQuOfaGHwHFNf9zTd4Wvr40yWmkJz
j+Su40CaooZHLQAGiHMoa3d4WO98
-----END CERTIFICATE-----
