Certificate:
    Data:
        Version: 3 (0x2)
        Serial Number: 64 (0x40)
    Signature Algorithm: sha1WithRSAEncryption
        Issuer: C=RS, ST=Serbia, L=Belgrade, O=CodeRed, OU=Security, CN=Client CA
        Validity
            Not Before: Apr  2 16:46:56 2018 GMT
            Not After : Apr  2 16:46:56 2019 GMT
        Subject: O=Code Red, OU=Security, CN=username
        Subject Public Key Info:
            Public Key Algorithm: rsaEncryption
                Public-Key: (4096 bit)
                Modulus:
                    00:cf:93:c0:5e:db:2e:c9:4d:6f:14:b8:a2:3d:f0:
                    b8:f9:ae:3f:f4:2d:73:3b:5c:89:4f:c1:04:5c:77:
                    f8:31:34:22:09:f3:34:94:7d:de:ab:2b:4a:57:5a:
                    52:9f:ea:bc:c2:2e:c2:82:e2:c1:7d:b8:58:13:b5:
                    c4:d6:a2:af:5a:a1:60:01:be:e5:8b:94:e7:e3:1d:
                    42:67:40:fd:f8:29:ea:0a:86:5b:15:ca:85:f7:de:
                    f0:a0:f5:50:60:0d:29:63:14:f1:85:97:72:c7:a4:
                    1d:07:7b:84:e0:60:7a:a4:86:1d:9e:63:fc:93:ee:
                    6d:c6:4c:cf:1a:e5:54:75:4d:0a:11:cb:c0:bf:ef:
                    90:49:b4:63:a9:eb:f7:97:c9:87:7e:45:dd:ee:9e:
                    a4:b7:89:f0:23:bc:a4:4c:dc:48:53:e8:aa:5d:8b:
                    25:c9:c5:84:50:ed:19:77:5b:83:72:91:e7:6a:29:
                    62:e2:84:5f:63:81:d5:bd:a3:3f:14:18:0d:3f:db:
                    ef:41:b5:c8:9e:db:56:73:5c:e2:ac:3e:54:e0:33:
                    d7:ae:e0:61:fa:fe:b3:ec:65:a4:87:09:60:1a:e5:
                    30:ac:8a:83:11:31:c6:21:1d:80:69:62:d8:45:17:
                    f2:b5:76:b5:73:80:d3:03:04:95:b1:f9:c6:c0:cd:
                    cb:d1:74:71:5f:27:56:bc:18:09:98:25:e7:a9:3f:
                    ee:7b:ed:92:b9:45:00:09:f1:ff:a2:d8:4b:20:70:
                    d0:58:03:f6:5b:35:a2:15:70:2c:fd:46:4d:de:5b:
                    04:7d:72:19:e9:a5:1c:ac:de:c7:10:e3:13:9c:31:
                    9e:fd:52:08:73:c9:e8:80:c8:0c:d9:3e:c4:69:3a:
                    0b:51:89:c9:63:24:97:70:f4:ce:a5:2d:72:20:db:
                    90:b9:10:72:75:0c:19:ab:2b:8c:66:f8:79:fc:3d:
                    84:b2:13:d5:3e:b1:7b:26:ec:5a:0e:75:2e:00:84:
                    52:b3:e9:99:f2:70:3c:93:73:0d:5f:6e:2a:eb:a9:
                    92:d5:75:e6:ea:14:91:07:0e:3a:50:04:35:55:d1:
                    bb:7e:8b:f3:ad:c0:89:82:53:f7:b5:6d:41:ac:f6:
                    18:5a:07:97:9a:cd:6f:12:fd:71:33:7f:cc:9e:79:
                    36:0c:86:81:79:8d:da:4d:9b:27:72:7d:06:16:b3:
                    d1:c3:d3:a2:28:2f:36:05:98:0d:cc:f0:40:4d:57:
                    bd:ec:7b:30:a9:d4:f8:85:af:55:b6:48:28:a3:56:
                    bd:09:bd:6b:1a:37:00:68:f9:3e:da:da:8b:94:bb:
                    92:64:7c:00:20:50:c3:8f:a5:91:04:a4:ec:a0:74:
                    9c:91:1f
                Exponent: 65537 (0x10001)
        X509v3 extensions:
            X509v3 Key Usage: critical
                Digital Signature, Key Encipherment
            X509v3 Basic Constraints: 
                CA:FALSE
            X509v3 Extended Key Usage: 
                TLS Web Client Authentication
            X509v3 Subject Key Identifier: 
                57:23:A3:BC:F3:FB:62:34:8A:69:50:86:3B:A1:29:88:7C:5B:5A:EF
            X509v3 Authority Key Identifier: 
                keyid:40:4E:DB:7F:82:7A:7D:C2:97:CA:E6:8E:20:04:79:BE:F7:EB:CA:B7

            X509v3 Subject Alternative Name: 
                email:provided@email.com
    Signature Algorithm: sha1WithRSAEncryption
         70:63:77:e7:eb:c4:25:c7:16:a5:a0:c1:6a:75:ff:34:40:7b:
         19:73:bc:69:e9:15:17:be:92:e3:c2:d8:f7:b6:27:da:88:66:
         e3:1f:da:02:6c:2a:4d:ed:42:6f:d9:9c:fb:c8:f4:24:17:27:
         3d:36:59:0d:9d:11:5e:a5:04:df:d8:fa:a6:4e:1d:bb:46:bb:
         f6:95:29:81:5b:16:2e:52:d4:76:1b:7d:a8:1c:46:71:ff:f3:
         31:58:80:3e:f8:44:f0:1c:11:5e:58:37:95:13:4b:52:f8:41:
         f5:7d:dc:c9:70:c0:48:ac:62:ba:ce:93:08:f7:e1:96:65:72:
         91:73:b3:c0:7c:2e:6d:b8:16:09:97:f5:f0:38:59:06:b1:94:
         1a:73:36:7f:1b:1e:96:c7:e4:99:fc:ee:4c:13:22:ee:b4:1c:
         1e:f7:29:62:47:42:4c:60:75:72:79:59:0e:9d:96:4b:68:4c:
         cd:90:f3:c1:3c:38:2d:71:ac:7f:32:9d:b1:36:2b:27:54:c3:
         31:46:70:14:89:d0:4a:72:1e:4c:2e:f7:6b:c3:dd:25:78:17:
         fc:4e:2d:f0:80:ef:a7:fd:1b:66:25:66:54:ce:86:36:55:ff:
         62:ae:82:fd:f2:b0:10:ba:22:85:5e:9c:d2:18:cb:82:d0:20:
         87:16:64:32:84:9a:f6:0d:fc:a2:36:49:d2:2d:14:8f:c4:3e:
         53:b4:e6:ba:ef:4c:32:7d:90:04:64:bc:14:1a:41:bd:70:5c:
         4c:00:aa:f6:09:af:c4:91:be:b7:a7:5d:a2:c3:a7:8f:aa:13:
         4f:d3:a5:28:42:08:e1:87:0d:0a:7b:8c:fd:93:ad:bc:5b:c4:
         f1:aa:57:77:ec:cc:68:62:56:30:f1:45:10:5c:11:a5:6e:ef:
         41:3e:fa:7a:21:02:ac:f8:4d:ab:7f:89:a2:6d:34:41:1a:32:
         99:8e:d2:17:d9:4b:65:24:31:7e:1a:83:f2:4c:bf:4c:73:9c:
         67:8a:ab:59:16:36:41:9d:1f:89:5f:fa:22:04:82:1a:62:f3:
         ca:66:d9:0e:8b:fc:b0:2d:51:5c:ef:d5:1c:d1:c6:55:68:d5:
         96:3e:e0:1e:1b:96:e6:fc:0b:a9:de:af:22:48:a2:28:66:9f:
         09:84:a9:6f:dd:f8:1b:61:6e:63:65:87:a9:5f:d8:0c:42:48:
         8b:e9:cc:44:18:3d:f0:72:48:af:39:a2:93:9e:cf:e5:fb:18:
         97:5d:77:6b:97:90:65:5d:77:71:89:ac:09:29:20:a2:29:dd:
         ca:ee:e4:1e:25:34:d8:25:f4:34:2a:d0:03:65:13:3a:d6:78:
         87:1e:9d:55:eb:3c:61:97
-----BEGIN CERTIFICATE-----
MIIFsTCCA5mgAwIBAgIBQDANBgkqhkiG9w0BAQUFADBqMQswCQYDVQQGEwJSUzEP
MA0GA1UECAwGU2VyYmlhMREwDwYDVQQHDAhCZWxncmFkZTEQMA4GA1UECgwHQ29k
ZVJlZDERMA8GA1UECwwIU2VjdXJpdHkxEjAQBgNVBAMMCUNsaWVudCBDQTAeFw0x
ODA0MDIxNjQ2NTZaFw0xOTA0MDIxNjQ2NTZaMDkxETAPBgNVBAoMCENvZGUgUmVk
MREwDwYDVQQLDAhTZWN1cml0eTERMA8GA1UEAwwIdXNlcm5hbWUwggIiMA0GCSqG
SIb3DQEBAQUAA4ICDwAwggIKAoICAQDPk8Be2y7JTW8UuKI98Lj5rj/0LXM7XIlP
wQRcd/gxNCIJ8zSUfd6rK0pXWlKf6rzCLsKC4sF9uFgTtcTWoq9aoWABvuWLlOfj
HUJnQP34KeoKhlsVyoX33vCg9VBgDSljFPGFl3LHpB0He4TgYHqkhh2eY/yT7m3G
TM8a5VR1TQoRy8C/75BJtGOp6/eXyYd+Rd3unqS3ifAjvKRM3EhT6KpdiyXJxYRQ
7Rl3W4NykedqKWLihF9jgdW9oz8UGA0/2+9Btcie21ZzXOKsPlTgM9eu4GH6/rPs
ZaSHCWAa5TCsioMRMcYhHYBpYthFF/K1drVzgNMDBJWx+cbAzcvRdHFfJ1a8GAmY
JeepP+577ZK5RQAJ8f+i2EsgcNBYA/ZbNaIVcCz9Rk3eWwR9chnppRys3scQ4xOc
MZ79UghzyeiAyAzZPsRpOgtRicljJJdw9M6lLXIg25C5EHJ1DBmrK4xm+Hn8PYSy
E9U+sXsm7FoOdS4AhFKz6ZnycDyTcw1fbirrqZLVdebqFJEHDjpQBDVV0bt+i/Ot
wImCU/e1bUGs9hhaB5eazW8S/XEzf8yeeTYMhoF5jdpNmydyfQYWs9HD06IoLzYF
mA3M8EBNV73sezCp1PiFr1W2SCijVr0JvWsaNwBo+T7a2ouUu5JkfAAgUMOPpZEE
pOygdJyRHwIDAQABo4GSMIGPMA4GA1UdDwEB/wQEAwIFoDAJBgNVHRMEAjAAMBMG
A1UdJQQMMAoGCCsGAQUFBwMCMB0GA1UdDgQWBBRXI6O88/tiNIppUIY7oSmIfFta
7zAfBgNVHSMEGDAWgBRATtt/gnp9wpfK5o4gBHm+9+vKtzAdBgNVHREEFjAUgRJw
cm92aWRlZEBlbWFpbC5jb20wDQYJKoZIhvcNAQEFBQADggIBAHBjd+frxCXHFqWg
wWp1/zRAexlzvGnpFRe+kuPC2Pe2J9qIZuMf2gJsKk3tQm/ZnPvI9CQXJz02WQ2d
EV6lBN/Y+qZOHbtGu/aVKYFbFi5S1HYbfagcRnH/8zFYgD74RPAcEV5YN5UTS1L4
QfV93MlwwEisYrrOkwj34ZZlcpFzs8B8Lm24FgmX9fA4WQaxlBpzNn8bHpbH5Jn8
7kwTIu60HB73KWJHQkxgdXJ5WQ6dlktoTM2Q88E8OC1xrH8ynbE2KydUwzFGcBSJ
0EpyHkwu92vD3SV4F/xOLfCA76f9G2YlZlTOhjZV/2Kugv3ysBC6IoVenNIYy4LQ
IIcWZDKEmvYN/KI2SdItFI/EPlO05rrvTDJ9kARkvBQaQb1wXEwAqvYJr8SRvren
XaLDp4+qE0/TpShCCOGHDQp7jP2TrbxbxPGqV3fszGhiVjDxRRBcEaVu70E++noh
Aqz4Tat/iaJtNEEaMpmO0hfZS2UkMX4ag/JMv0xznGeKq1kWNkGdH4lf+iIEghpi
88pm2Q6L/LAtUVzv1RzRxlVo1ZY+4B4blub8C6neryJIoihmnwmEqW/d+BthbmNl
h6lf2AxCSIvpzEQYPfBySK85opOez+X7GJddd2uXkGVdd3GJrAkpIKIp3cru5B4l
NNgl9DQq0ANlEzrWeIcenVXrPGGX
-----END CERTIFICATE-----
