Certificate:
    Data:
        Version: 3 (0x2)
        Serial Number: 65 (0x41)
    Signature Algorithm: sha1WithRSAEncryption
        Issuer: C=RS, ST=Serbia, L=Belgrade, O=CodeRed, OU=Security, CN=Client CA
        Validity
            Not Before: Apr  2 16:49:08 2018 GMT
            Not After : Apr  2 16:49:08 2019 GMT
        Subject: O=Code Red, OU=Security, CN=username
        Subject Public Key Info:
            Public Key Algorithm: rsaEncryption
                Public-Key: (4096 bit)
                Modulus:
                    00:bc:4c:ff:f1:8c:36:e2:ab:2c:9a:43:a0:7e:5b:
                    97:7d:a9:a1:ad:88:fb:f5:b8:0d:8e:c4:6d:1b:d7:
                    d7:b3:66:24:8d:d3:f9:28:d8:ba:17:5c:59:fc:64:
                    e2:f8:77:0d:6f:a0:54:3b:84:67:e7:66:cb:e0:b6:
                    c9:a1:d8:0c:9f:89:8a:84:62:35:fc:58:c2:2f:dd:
                    29:42:cc:18:ad:29:04:7a:a1:9c:f0:fd:e3:5a:ae:
                    da:7e:46:29:97:f7:7b:22:cf:be:72:57:33:a0:09:
                    cb:78:09:67:da:b0:98:b0:29:02:a2:66:71:01:66:
                    5e:8e:9d:15:ef:2d:41:c6:aa:e4:f7:e3:2f:04:95:
                    04:1a:d9:b2:da:40:17:75:15:9b:8b:c1:cf:7d:fa:
                    88:99:67:4c:e5:ad:74:56:bb:a1:dd:70:f6:31:26:
                    54:5e:f9:e5:6c:78:1c:28:bf:f3:60:4d:c2:ec:b1:
                    d3:6c:b5:2b:1c:0a:dc:b6:8b:26:41:23:56:9d:36:
                    47:66:f3:4b:ee:06:72:bf:3d:6d:44:67:ab:02:9b:
                    3f:a3:40:60:88:05:e9:4e:08:ea:c5:aa:54:90:bb:
                    be:42:11:29:b2:54:e9:54:a5:95:73:8a:f4:58:0d:
                    89:c5:28:b7:c7:f6:7a:c8:d9:30:7d:8d:b0:11:34:
                    80:09:cd:73:f3:a9:eb:7e:b1:4b:db:8a:45:52:f4:
                    87:cc:28:fc:90:45:63:b1:ba:3e:99:5a:d3:5f:60:
                    c3:3a:77:d3:a6:cc:a4:7c:9b:2e:27:2e:c8:62:35:
                    06:a8:b8:7b:cd:a2:f0:88:55:2f:00:04:d4:5a:a0:
                    25:d5:0e:f4:5c:98:55:ba:06:6a:6b:67:cc:92:81:
                    4a:65:eb:c8:45:54:9f:63:f0:76:93:14:15:c3:14:
                    4f:f9:ea:12:77:04:34:91:25:74:b0:13:34:25:c9:
                    c0:30:98:50:fe:df:de:4f:9e:e3:ed:ef:11:aa:54:
                    84:11:3d:21:b2:c3:49:74:3f:81:39:b3:c7:6b:e8:
                    02:a5:c2:10:47:a7:a5:50:01:77:c9:56:05:ec:56:
                    d3:a2:cc:e1:bb:6a:b4:74:89:39:c5:4e:a8:e3:11:
                    5c:4b:3a:3f:25:a9:ab:4e:cf:95:0b:9a:2d:73:5b:
                    24:ab:ca:42:2f:f2:da:e6:f1:8b:de:50:7a:e4:cc:
                    d1:e7:ac:94:24:bb:5b:1b:d5:f0:a3:e5:42:07:23:
                    bc:86:2b:76:b5:6e:92:92:f2:79:43:70:cd:6a:bd:
                    3c:6e:57:dc:56:de:da:d1:da:a8:3c:06:af:76:bd:
                    37:1e:a9:41:2a:d3:45:d0:15:42:17:73:29:1c:76:
                    65:c0:a7
                Exponent: 65537 (0x10001)
        X509v3 extensions:
            X509v3 Key Usage: critical
                Digital Signature, Key Encipherment
            X509v3 Basic Constraints: 
                CA:FALSE
            X509v3 Extended Key Usage: 
                TLS Web Client Authentication
            X509v3 Subject Key Identifier: 
                79:BF:BF:D8:AB:AB:CF:F3:75:62:AD:AA:3E:7E:AD:42:24:BB:75:2F
            X509v3 Authority Key Identifier: 
                keyid:40:4E:DB:7F:82:7A:7D:C2:97:CA:E6:8E:20:04:79:BE:F7:EB:CA:B7

            X509v3 Subject Alternative Name: 
                email:provided@email.com
    Signature Algorithm: sha1WithRSAEncryption
         71:0b:2b:bb:77:48:ba:42:4c:56:13:73:c7:5d:15:39:0f:c3:
         60:9a:07:f0:7a:5d:d7:48:99:14:ec:61:25:3a:d7:97:b7:5a:
         98:9a:e0:da:c4:ea:6f:1d:39:2e:5a:dc:c1:13:11:54:60:24:
         f4:b7:7b:9c:32:8e:24:fa:90:b2:0e:49:0a:21:e5:f6:cc:ea:
         f4:c8:55:7c:4f:b9:6b:af:58:4e:a6:f0:a8:75:d0:aa:2e:3c:
         32:39:a7:25:78:82:e5:11:a8:f2:15:10:d6:ae:02:ea:60:ef:
         fa:8b:18:d8:cf:dc:77:90:85:f2:3f:1e:82:e2:cb:77:08:ed:
         17:ec:9f:68:5f:ba:c5:86:3d:1a:cf:4a:1f:10:b3:a5:9b:89:
         27:c8:db:7d:16:51:09:2c:1a:b9:11:76:18:71:ef:21:97:21:
         d0:14:e7:83:47:40:3a:0c:9f:0a:cf:ae:8b:ff:be:99:fb:b6:
         2b:55:c7:db:35:64:97:2f:ca:8c:19:27:13:ad:ff:4d:14:0e:
         07:a5:a7:88:7c:74:51:7e:d5:c0:02:4c:65:cd:6e:f0:2f:e8:
         f4:1d:c7:1c:d8:5e:76:34:56:e9:b3:2f:d8:5d:be:ed:fe:36:
         ed:12:90:85:80:be:4b:01:37:47:52:49:c8:ac:bc:d6:3c:2a:
         83:6b:fe:8b:fc:15:a5:76:f8:e0:9c:f9:c0:5e:a1:6c:36:97:
         9c:b8:d4:dd:00:d3:8d:dd:ea:3f:d9:1f:6b:db:a7:f2:11:4e:
         cb:35:22:46:02:e7:56:0d:5b:d0:61:a0:4a:e6:23:58:c5:0e:
         9f:2f:fe:39:c0:57:35:9c:ba:98:a9:bd:3e:d9:79:a5:47:94:
         c3:82:a5:b1:cc:ea:00:08:b1:27:07:7c:2a:17:a0:f6:21:ab:
         c9:28:d4:67:67:8a:67:c2:8a:5a:00:de:1d:e1:49:49:93:ca:
         0e:fc:f4:cf:29:a5:d3:ba:c4:b7:18:77:7c:47:23:b3:5f:a7:
         d3:a1:bf:71:f1:a9:82:1f:78:e3:00:e7:35:49:00:4d:6b:19:
         fe:01:67:7c:10:6f:a9:80:e4:2b:45:6b:fb:6a:80:86:07:e7:
         6e:e1:43:45:a3:fc:8e:7b:64:df:75:78:77:67:2a:d5:c6:62:
         33:92:5f:d7:6d:a1:41:68:3e:a8:4f:bf:ac:81:9d:86:6e:be:
         01:9f:58:a6:87:fa:df:65:c6:f3:07:dc:39:5d:05:9c:4a:bc:
         1e:50:8d:29:d1:fc:cb:58:db:44:6e:1d:d6:21:4e:bb:21:4d:
         72:87:a1:92:f2:65:08:ae:49:00:60:8f:c6:d4:75:a9:3a:18:
         69:9f:5c:62:3f:70:63:dd
-----BEGIN CERTIFICATE-----
MIIFsTCCA5mgAwIBAgIBQTANBgkqhkiG9w0BAQUFADBqMQswCQYDVQQGEwJSUzEP
MA0GA1UECAwGU2VyYmlhMREwDwYDVQQHDAhCZWxncmFkZTEQMA4GA1UECgwHQ29k
ZVJlZDERMA8GA1UECwwIU2VjdXJpdHkxEjAQBgNVBAMMCUNsaWVudCBDQTAeFw0x
ODA0MDIxNjQ5MDhaFw0xOTA0MDIxNjQ5MDhaMDkxETAPBgNVBAoMCENvZGUgUmVk
MREwDwYDVQQLDAhTZWN1cml0eTERMA8GA1UEAwwIdXNlcm5hbWUwggIiMA0GCSqG
SIb3DQEBAQUAA4ICDwAwggIKAoICAQC8TP/xjDbiqyyaQ6B+W5d9qaGtiPv1uA2O
xG0b19ezZiSN0/ko2LoXXFn8ZOL4dw1voFQ7hGfnZsvgtsmh2AyfiYqEYjX8WMIv
3SlCzBitKQR6oZzw/eNartp+RimX93siz75yVzOgCct4CWfasJiwKQKiZnEBZl6O
nRXvLUHGquT34y8ElQQa2bLaQBd1FZuLwc99+oiZZ0zlrXRWu6HdcPYxJlRe+eVs
eBwov/NgTcLssdNstSscCty2iyZBI1adNkdm80vuBnK/PW1EZ6sCmz+jQGCIBelO
COrFqlSQu75CESmyVOlUpZVzivRYDYnFKLfH9nrI2TB9jbARNIAJzXPzqet+sUvb
ikVS9IfMKPyQRWOxuj6ZWtNfYMM6d9OmzKR8my4nLshiNQaouHvNovCIVS8ABNRa
oCXVDvRcmFW6BmprZ8ySgUpl68hFVJ9j8HaTFBXDFE/56hJ3BDSRJXSwEzQlycAw
mFD+395PnuPt7xGqVIQRPSGyw0l0P4E5s8dr6AKlwhBHp6VQAXfJVgXsVtOizOG7
arR0iTnFTqjjEVxLOj8lqatOz5ULmi1zWySrykIv8trm8YveUHrkzNHnrJQku1sb
1fCj5UIHI7yGK3a1bpKS8nlDcM1qvTxuV9xW3trR2qg8Bq92vTceqUEq00XQFUIX
cykcdmXApwIDAQABo4GSMIGPMA4GA1UdDwEB/wQEAwIFoDAJBgNVHRMEAjAAMBMG
A1UdJQQMMAoGCCsGAQUFBwMCMB0GA1UdDgQWBBR5v7/Yq6vP83Virao+fq1CJLt1
LzAfBgNVHSMEGDAWgBRATtt/gnp9wpfK5o4gBHm+9+vKtzAdBgNVHREEFjAUgRJw
cm92aWRlZEBlbWFpbC5jb20wDQYJKoZIhvcNAQEFBQADggIBAHELK7t3SLpCTFYT
c8ddFTkPw2CaB/B6XddImRTsYSU615e3Wpia4NrE6m8dOS5a3METEVRgJPS3e5wy
jiT6kLIOSQoh5fbM6vTIVXxPuWuvWE6m8Kh10KouPDI5pyV4guURqPIVENauAupg
7/qLGNjP3HeQhfI/HoLiy3cI7Rfsn2hfusWGPRrPSh8Qs6WbiSfI230WUQksGrkR
dhhx7yGXIdAU54NHQDoMnwrProv/vpn7titVx9s1ZJcvyowZJxOt/00UDgelp4h8
dFF+1cACTGXNbvAv6PQdxxzYXnY0VumzL9hdvu3+Nu0SkIWAvksBN0dSScisvNY8
KoNr/ov8FaV2+OCc+cBeoWw2l5y41N0A043d6j/ZH2vbp/IRTss1IkYC51YNW9Bh
oErmI1jFDp8v/jnAVzWcupipvT7ZeaVHlMOCpbHM6gAIsScHfCoXoPYhq8ko1Gdn
imfCiloA3h3hSUmTyg789M8ppdO6xLcYd3xHI7Nfp9Ohv3HxqYIfeOMA5zVJAE1r
Gf4BZ3wQb6mA5CtFa/tqgIYH527hQ0Wj/I57ZN91eHdnKtXGYjOSX9dtoUFoPqhP
v6yBnYZuvgGfWKaH+t9lxvMH3DldBZxKvB5QjSnR/MtY20RuHdYhTrshTXKHoZLy
ZQiuSQBgj8bUdak6GGmfXGI/cGPd
-----END CERTIFICATE-----
