Certificate:
    Data:
        Version: 3 (0x2)
        Serial Number: 67 (0x43)
    Signature Algorithm: sha1WithRSAEncryption
        Issuer: C=RS, ST=Serbia, L=Belgrade, O=CodeRed, OU=Security, CN=Client CA
        Validity
            Not Before: Apr  5 12:36:25 2018 GMT
            Not After : Apr  5 12:36:25 2019 GMT
        Subject: O=Code Red, OU=Security, CN=username
        Subject Public Key Info:
            Public Key Algorithm: rsaEncryption
                Public-Key: (4096 bit)
                Modulus:
                    00:c4:18:1d:e4:eb:ca:5c:ab:ff:a5:af:10:a7:ae:
                    d4:86:98:0a:bc:4b:4a:60:d0:7f:e2:5e:d2:e1:ac:
                    f7:33:b8:a6:49:ac:40:6e:69:33:bf:66:c0:af:53:
                    df:83:28:db:f0:d6:2d:12:18:b0:fb:ce:16:f3:53:
                    c0:61:56:82:3b:16:c9:aa:ea:f2:dc:f3:7d:07:85:
                    b2:71:c9:39:20:67:3d:49:19:eb:5c:67:f6:24:f7:
                    16:e8:9c:67:df:3b:bc:02:9c:c5:58:15:eb:cb:36:
                    89:5c:8b:c6:6f:e7:c0:ae:7b:9c:da:5d:73:4f:ab:
                    b4:ff:84:1c:1b:73:73:70:ca:7c:1a:d9:b7:fa:a9:
                    21:0e:8f:d5:7a:9b:7c:7e:f7:42:fd:c9:66:46:81:
                    86:13:33:fc:9e:7d:2c:01:73:c9:54:ec:e3:e6:8f:
                    a4:9a:4e:ac:f4:a7:42:59:24:97:e7:c2:5b:53:4d:
                    57:33:30:8e:1a:6c:59:95:72:7f:72:77:30:ec:03:
                    b7:6c:55:94:63:ed:e9:fa:0d:b1:05:61:d1:2b:1a:
                    eb:f7:70:f9:a1:76:c9:3d:70:74:87:b1:a6:35:31:
                    b7:29:fc:b5:df:41:61:b7:ab:80:a2:9d:9b:7e:a9:
                    aa:44:95:3c:26:ed:0a:fd:fc:bd:fa:b2:73:9e:fd:
                    8a:e3:17:49:78:d2:ef:44:bd:74:0b:90:79:81:6f:
                    7d:da:8f:97:ca:c8:ba:f7:07:75:b1:b9:cb:00:64:
                    f0:09:8e:6c:0e:8a:19:a9:b7:4c:1f:8e:e7:44:0e:
                    95:40:3e:fb:b5:51:6f:2e:20:70:48:e5:cf:eb:5c:
                    d0:a6:06:ad:d3:16:97:99:91:48:23:1e:93:34:6b:
                    d5:99:23:9a:b9:4e:5d:aa:4d:2b:da:28:75:b8:96:
                    c0:b2:c6:97:7c:59:23:93:09:b3:99:40:1a:ae:b8:
                    0a:d6:8d:a3:46:67:09:d4:52:cb:bd:13:9a:39:7b:
                    29:66:fe:e5:f0:1b:d9:05:72:9a:eb:b2:02:d0:c4:
                    eb:86:53:66:b6:58:a9:b5:18:59:bb:f0:48:92:5e:
                    69:48:7d:b8:00:0d:36:fb:17:f1:68:a1:84:e7:07:
                    74:48:18:c9:1f:8e:29:7e:d9:4d:ff:e7:94:f5:c0:
                    9c:78:d0:f5:a4:92:5e:26:a6:33:cc:49:f8:87:0d:
                    a8:50:01:0f:40:da:4d:f7:e6:d3:81:19:d2:8c:de:
                    5f:f3:27:f1:6d:00:fa:0b:3d:de:54:d8:57:6f:46:
                    8c:3e:61:5d:08:eb:3f:9c:48:02:44:30:a1:dd:79:
                    8a:d8:ce:f7:d9:85:75:c6:a3:a0:0a:78:9a:3c:4e:
                    a9:ce:d7
                Exponent: 65537 (0x10001)
        X509v3 extensions:
            X509v3 Key Usage: critical
                Digital Signature, Key Encipherment
            X509v3 Basic Constraints: 
                CA:FALSE
            X509v3 Extended Key Usage: 
                TLS Web Client Authentication
            X509v3 Subject Key Identifier: 
                C5:61:AB:38:AF:F1:CD:7C:EE:B9:4B:AD:69:C5:A3:CA:E6:C9:4C:D0
            X509v3 Authority Key Identifier: 
                keyid:40:4E:DB:7F:82:7A:7D:C2:97:CA:E6:8E:20:04:79:BE:F7:EB:CA:B7

            X509v3 Subject Alternative Name: 
                email:provided@email.com
    Signature Algorithm: sha1WithRSAEncryption
         03:53:c5:ac:8d:8d:62:de:55:04:4e:dc:24:2e:65:0b:cb:2d:
         dc:62:30:95:b2:9d:ad:f1:ea:86:59:6b:62:e4:5f:30:78:c5:
         3e:cb:ad:e0:69:3e:16:06:da:0a:fc:97:c9:e4:44:73:97:c2:
         3f:26:dc:d3:81:c9:a2:8e:e5:7e:81:df:f6:18:25:24:fe:cb:
         b1:11:6a:ce:23:f6:5a:d6:11:bd:19:89:ef:ff:7d:5c:61:70:
         af:d2:dc:74:f9:d6:1c:5e:cc:4b:0a:49:94:aa:ab:71:17:74:
         80:92:2f:63:4c:80:9c:89:95:44:84:9c:39:a6:f0:69:01:a8:
         25:81:ca:19:bb:87:c3:26:d4:9f:a2:9e:e8:b7:e3:51:cb:5d:
         d5:0c:04:7c:2a:b7:dd:76:2b:ee:7d:8f:20:1d:49:17:ec:0e:
         ad:7f:78:46:67:8d:1d:ea:4b:f1:59:78:05:7c:b8:42:68:df:
         96:17:5a:a8:fd:d2:7b:0c:75:f1:ad:de:50:39:7d:77:d4:cb:
         5e:04:1f:99:d5:78:81:e6:d8:a2:c6:d7:2e:b4:94:cb:eb:c7:
         cc:d0:a8:a3:57:7d:b5:2f:94:08:92:8d:24:d8:53:59:7d:bf:
         87:9a:6e:b0:62:09:b0:07:25:70:a6:81:bd:6c:3d:e3:4e:20:
         f0:56:a5:9a:9c:cd:94:09:53:9c:6c:f8:e2:0c:91:ef:e4:33:
         55:52:b0:4b:b7:ac:50:e2:f1:49:f8:56:81:f8:16:3f:bd:51:
         cb:8b:76:38:41:00:21:e9:8a:7a:7b:cd:eb:ae:6e:6d:1e:9f:
         0e:78:5d:d2:86:90:9c:b3:34:a6:9d:b6:71:40:49:47:f0:3b:
         52:d5:82:13:0c:33:60:bd:06:84:0c:0b:c9:fd:e0:82:ee:10:
         01:6d:20:cc:d7:0c:a0:99:e6:4d:7e:74:42:c5:be:03:9a:f4:
         75:f8:5e:ea:98:3c:e5:8d:b8:95:91:f3:2e:5f:d6:ae:88:33:
         7d:ec:84:6c:be:56:33:76:94:a9:c6:e6:21:28:8e:4a:b9:4e:
         19:5b:10:38:ea:8c:9f:6e:6f:dd:a9:c3:a7:8c:f5:37:4d:ea:
         d1:96:c4:cd:32:cf:51:ec:ba:dd:a6:26:d2:91:64:60:4d:25:
         b0:2f:32:00:f3:dc:73:59:76:fe:fe:8c:c1:86:9b:c3:81:e2:
         ba:56:87:19:7a:d0:13:a4:76:f2:dd:6d:39:e9:92:24:6d:7d:
         3e:13:e2:d0:6c:90:c8:f0:ce:46:0b:c4:9d:24:59:d6:c6:46:
         b0:4a:b0:e1:a7:4e:ba:9b:1c:22:27:f5:72:5d:8d:35:b5:f7:
         08:f8:24:15:72:a9:fe:cc
-----BEGIN CERTIFICATE-----
MIIFsTCCA5mgAwIBAgIBQzANBgkqhkiG9w0BAQUFADBqMQswCQYDVQQGEwJSUzEP
MA0GA1UECAwGU2VyYmlhMREwDwYDVQQHDAhCZWxncmFkZTEQMA4GA1UECgwHQ29k
ZVJlZDERMA8GA1UECwwIU2VjdXJpdHkxEjAQBgNVBAMMCUNsaWVudCBDQTAeFw0x
ODA0MDUxMjM2MjVaFw0xOTA0MDUxMjM2MjVaMDkxETAPBgNVBAoMCENvZGUgUmVk
MREwDwYDVQQLDAhTZWN1cml0eTERMA8GA1UEAwwIdXNlcm5hbWUwggIiMA0GCSqG
SIb3DQEBAQUAA4ICDwAwggIKAoICAQDEGB3k68pcq/+lrxCnrtSGmAq8S0pg0H/i
XtLhrPczuKZJrEBuaTO/ZsCvU9+DKNvw1i0SGLD7zhbzU8BhVoI7Fsmq6vLc830H
hbJxyTkgZz1JGetcZ/Yk9xbonGffO7wCnMVYFevLNolci8Zv58Cue5zaXXNPq7T/
hBwbc3Nwynwa2bf6qSEOj9V6m3x+90L9yWZGgYYTM/yefSwBc8lU7OPmj6SaTqz0
p0JZJJfnwltTTVczMI4abFmVcn9ydzDsA7dsVZRj7en6DbEFYdErGuv3cPmhdsk9
cHSHsaY1Mbcp/LXfQWG3q4CinZt+qapElTwm7Qr9/L36snOe/YrjF0l40u9EvXQL
kHmBb33aj5fKyLr3B3WxucsAZPAJjmwOihmpt0wfjudEDpVAPvu1UW8uIHBI5c/r
XNCmBq3TFpeZkUgjHpM0a9WZI5q5Tl2qTSvaKHW4lsCyxpd8WSOTCbOZQBquuArW
jaNGZwnUUsu9E5o5eylm/uXwG9kFcprrsgLQxOuGU2a2WKm1GFm78EiSXmlIfbgA
DTb7F/FooYTnB3RIGMkfjil+2U3/55T1wJx40PWkkl4mpjPMSfiHDahQAQ9A2k33
5tOBGdKM3l/zJ/FtAPoLPd5U2FdvRow+YV0I6z+cSAJEMKHdeYrYzvfZhXXGo6AK
eJo8TqnO1wIDAQABo4GSMIGPMA4GA1UdDwEB/wQEAwIFoDAJBgNVHRMEAjAAMBMG
A1UdJQQMMAoGCCsGAQUFBwMCMB0GA1UdDgQWBBTFYas4r/HNfO65S61pxaPK5slM
0DAfBgNVHSMEGDAWgBRATtt/gnp9wpfK5o4gBHm+9+vKtzAdBgNVHREEFjAUgRJw
cm92aWRlZEBlbWFpbC5jb20wDQYJKoZIhvcNAQEFBQADggIBAANTxayNjWLeVQRO
3CQuZQvLLdxiMJWyna3x6oZZa2LkXzB4xT7LreBpPhYG2gr8l8nkRHOXwj8m3NOB
yaKO5X6B3/YYJST+y7ERas4j9lrWEb0Zie//fVxhcK/S3HT51hxezEsKSZSqq3EX
dICSL2NMgJyJlUSEnDmm8GkBqCWByhm7h8Mm1J+inui341HLXdUMBHwqt912K+59
jyAdSRfsDq1/eEZnjR3qS/FZeAV8uEJo35YXWqj90nsMdfGt3lA5fXfUy14EH5nV
eIHm2KLG1y60lMvrx8zQqKNXfbUvlAiSjSTYU1l9v4eabrBiCbAHJXCmgb1sPeNO
IPBWpZqczZQJU5xs+OIMke/kM1VSsEu3rFDi8Un4VoH4Fj+9UcuLdjhBACHpinp7
zeuubm0enw54XdKGkJyzNKadtnFASUfwO1LVghMMM2C9BoQMC8n94ILuEAFtIMzX
DKCZ5k1+dELFvgOa9HX4XuqYPOWNuJWR8y5f1q6IM33shGy+VjN2lKnG5iEojkq5
ThlbEDjqjJ9ub92pw6eM9TdN6tGWxM0yz1Hsut2mJtKRZGBNJbAvMgDz3HNZdv7+
jMGGm8OB4rpWhxl60BOkdvLdbTnpkiRtfT4T4tBskMjwzkYLxJ0kWdbGRrBKsOGn
TrqbHCIn9XJdjTW19wj4JBVyqf7M
-----END CERTIFICATE-----
