Certificate:
    Data:
        Version: 3 (0x2)
        Serial Number: 68 (0x44)
    Signature Algorithm: sha1WithRSAEncryption
        Issuer: C=RS, ST=Serbia, L=Belgrade, O=CodeRed, OU=Security, CN=Client CA
        Validity
            Not Before: Apr  5 12:43:09 2018 GMT
            Not After : Apr  5 12:43:09 2019 GMT
        Subject: O=Code Red, OU=Security, CN=username
        Subject Public Key Info:
            Public Key Algorithm: rsaEncryption
                Public-Key: (4096 bit)
                Modulus:
                    00:c1:13:3f:0e:6b:2d:4e:25:9b:8d:a4:55:c5:4e:
                    96:ad:9c:17:37:5d:ee:87:aa:42:c5:df:e7:19:59:
                    03:99:c7:1c:f4:df:60:67:56:da:46:27:d7:1a:d7:
                    03:18:84:8b:47:0d:eb:f7:66:4a:48:93:b2:2e:de:
                    19:5b:8a:bf:d9:3a:34:ac:7b:81:6b:d0:2a:d0:e5:
                    3b:0e:19:3e:2d:42:1f:02:93:77:cb:ab:bf:01:5d:
                    a4:56:2c:1d:a3:2b:e1:2b:bb:ef:38:be:5f:ab:79:
                    97:50:cd:98:88:f8:50:d7:f7:90:33:71:7a:42:24:
                    35:e8:38:e1:43:2c:62:bc:66:c0:3a:94:6c:45:cc:
                    04:e6:9d:be:51:a5:df:ce:9f:ff:42:20:83:5f:84:
                    df:3d:a2:37:cb:e1:ec:a5:10:46:fa:81:91:f0:30:
                    74:0c:e8:d3:13:9e:a4:2a:8b:82:ab:2c:83:0e:b5:
                    66:47:6c:05:3a:22:2d:16:20:9f:fa:bd:7c:72:f2:
                    2d:cd:3b:d7:48:6e:ee:f8:4c:54:e6:10:08:89:f6:
                    e0:ca:19:8e:02:64:fd:78:03:47:fd:81:9f:52:2b:
                    51:56:da:30:02:a8:5f:ea:13:8a:a3:e0:ed:ee:4b:
                    0a:9e:37:18:78:6e:cc:b8:52:d8:dc:17:7f:72:6b:
                    cd:a3:d0:9e:29:e2:24:fd:77:cc:1f:f1:c5:8d:f3:
                    05:ee:ed:18:6c:68:6a:f4:b6:ad:eb:84:50:2a:c9:
                    7f:d0:1b:02:37:cc:40:ca:61:ef:6a:ff:8f:ec:ac:
                    68:df:2a:3d:8c:c1:f9:18:84:92:ea:b7:19:27:0c:
                    f0:93:ad:41:f0:52:cb:0b:93:db:c6:ab:0c:64:56:
                    8c:68:07:12:96:41:23:8a:50:ed:02:03:82:76:0d:
                    e7:47:2c:3d:cb:01:fb:7f:b8:18:89:a3:fd:82:96:
                    a3:2c:1c:ea:0f:d0:c8:f3:de:32:39:a5:cd:f8:b7:
                    d6:2d:65:96:7a:42:4e:c8:76:41:f1:d9:c1:08:cc:
                    86:c6:23:bb:91:38:4e:79:84:f1:df:6d:9a:18:d3:
                    37:43:c0:c7:34:40:b3:ee:ea:ef:dc:b3:0b:43:57:
                    f6:ab:a7:fc:87:fd:7b:c5:6d:64:1c:55:6e:ad:e7:
                    30:93:3a:88:6b:ae:47:d7:f5:59:7d:80:c6:7f:4f:
                    bf:c8:42:6c:5b:bc:34:2e:62:ce:27:ca:cd:a2:f4:
                    32:44:61:e1:d2:8b:9c:96:8f:4b:9f:e5:af:6d:a0:
                    1f:b9:e1:d7:43:27:65:b2:76:57:ef:8d:88:06:5f:
                    51:e3:0b:83:7b:10:f6:b5:49:89:bd:e5:d4:08:26:
                    ef:8f:37
                Exponent: 65537 (0x10001)
        X509v3 extensions:
            X509v3 Key Usage: critical
                Digital Signature, Key Encipherment
            X509v3 Basic Constraints: 
                CA:FALSE
            X509v3 Extended Key Usage: 
                TLS Web Client Authentication
            X509v3 Subject Key Identifier: 
                C5:3D:9F:0F:EF:54:D9:A2:FC:F3:8E:58:90:52:CD:EA:AA:DB:80:6E
            X509v3 Authority Key Identifier: 
                keyid:40:4E:DB:7F:82:7A:7D:C2:97:CA:E6:8E:20:04:79:BE:F7:EB:CA:B7

            X509v3 Subject Alternative Name: 
                email:provided@email.com
    Signature Algorithm: sha1WithRSAEncryption
         93:4a:ca:61:e4:5e:d9:a1:9c:a7:92:0f:af:c7:ed:35:52:a9:
         af:17:4a:52:fc:cf:52:6a:2e:e5:c7:ff:82:03:9e:de:9b:c5:
         bb:9e:24:55:39:bd:27:16:88:b1:92:63:8b:36:f1:fe:b2:34:
         02:c0:55:9b:ab:b2:b1:91:ae:21:c4:24:8e:f6:d8:b6:2e:c8:
         04:38:7e:27:51:5c:b4:d7:43:37:6d:52:15:30:36:85:3b:37:
         f7:e5:e4:be:16:35:a1:43:e6:f8:a9:2f:70:80:68:44:a9:42:
         94:09:d8:80:0b:69:64:cf:36:03:61:9e:a5:58:71:d2:f2:41:
         9b:c7:c8:c5:19:89:d6:09:f2:b2:a3:2d:e2:67:88:eb:93:f7:
         4d:17:d1:61:3b:67:2e:27:ab:19:a0:76:56:ed:ce:df:2e:d3:
         73:48:13:38:b1:5e:77:6b:ed:7f:8b:0b:b9:d8:81:e7:87:29:
         d0:a7:7c:28:99:7d:cf:c9:97:8b:d7:75:4c:d8:33:84:f7:2a:
         78:6c:a1:97:f4:86:56:81:9c:11:37:33:ce:e2:f3:42:03:40:
         a3:41:7b:1a:2f:ba:25:42:91:b5:37:9b:d9:77:46:14:08:d7:
         ce:69:11:3c:55:0a:62:cb:c0:56:69:21:89:bf:ff:64:11:5d:
         48:e6:96:b6:d7:b8:a5:ca:de:b0:1c:c0:66:cd:40:77:26:04:
         10:e1:18:2f:8f:ec:e3:ea:3d:56:43:88:ff:44:fa:5d:16:86:
         dc:d5:4c:4d:ed:b7:3f:83:5c:b1:f6:b3:33:db:07:5d:15:df:
         9b:58:d6:e0:f7:e4:bc:d0:98:0c:a7:58:e4:35:3f:e1:72:f8:
         d9:e4:f5:e1:20:cd:e7:b5:de:42:c4:31:4a:bb:3e:75:3e:c5:
         23:ed:d4:3a:cd:d9:2b:f8:cd:f4:81:01:f8:c5:bf:22:45:f7:
         15:df:84:e8:d1:a7:c2:d5:92:64:12:bc:25:ea:a0:9f:31:a1:
         2b:c0:30:1e:b4:0b:52:c3:15:15:4f:04:5c:f4:94:bd:14:58:
         8d:3b:3e:5a:04:27:3a:2a:4e:dc:05:1b:66:c8:4e:f1:50:a3:
         98:11:bc:bb:a5:03:bc:14:c3:c2:27:19:8d:d8:5c:ea:d0:a8:
         f3:09:c6:2d:ee:f1:69:90:f8:ea:b4:6b:06:30:b3:d9:8c:a9:
         d0:4c:76:d1:8f:69:4d:f1:d7:06:b0:19:e7:51:c4:72:9e:f6:
         37:6f:f3:3d:d4:9f:00:f7:de:bc:b7:7d:d1:b2:c7:a5:4c:4e:
         59:e0:89:48:cc:82:64:c1:bc:1a:6f:d0:3f:5b:9c:af:07:da:
         76:d9:95:66:e9:77:be:74
-----BEGIN CERTIFICATE-----
MIIFsTCCA5mgAwIBAgIBRDANBgkqhkiG9w0BAQUFADBqMQswCQYDVQQGEwJSUzEP
MA0GA1UECAwGU2VyYmlhMREwDwYDVQQHDAhCZWxncmFkZTEQMA4GA1UECgwHQ29k
ZVJlZDERMA8GA1UECwwIU2VjdXJpdHkxEjAQBgNVBAMMCUNsaWVudCBDQTAeFw0x
ODA0MDUxMjQzMDlaFw0xOTA0MDUxMjQzMDlaMDkxETAPBgNVBAoMCENvZGUgUmVk
MREwDwYDVQQLDAhTZWN1cml0eTERMA8GA1UEAwwIdXNlcm5hbWUwggIiMA0GCSqG
SIb3DQEBAQUAA4ICDwAwggIKAoICAQDBEz8Oay1OJZuNpFXFTpatnBc3Xe6HqkLF
3+cZWQOZxxz032BnVtpGJ9ca1wMYhItHDev3ZkpIk7Iu3hlbir/ZOjSse4Fr0CrQ
5TsOGT4tQh8Ck3fLq78BXaRWLB2jK+Eru+84vl+reZdQzZiI+FDX95AzcXpCJDXo
OOFDLGK8ZsA6lGxFzATmnb5Rpd/On/9CIINfhN89ojfL4eylEEb6gZHwMHQM6NMT
nqQqi4KrLIMOtWZHbAU6Ii0WIJ/6vXxy8i3NO9dIbu74TFTmEAiJ9uDKGY4CZP14
A0f9gZ9SK1FW2jACqF/qE4qj4O3uSwqeNxh4bsy4UtjcF39ya82j0J4p4iT9d8wf
8cWN8wXu7RhsaGr0tq3rhFAqyX/QGwI3zEDKYe9q/4/srGjfKj2MwfkYhJLqtxkn
DPCTrUHwUssLk9vGqwxkVoxoBxKWQSOKUO0CA4J2DedHLD3LAft/uBiJo/2ClqMs
HOoP0Mjz3jI5pc34t9YtZZZ6Qk7IdkHx2cEIzIbGI7uROE55hPHfbZoY0zdDwMc0
QLPu6u/cswtDV/arp/yH/XvFbWQcVW6t5zCTOohrrkfX9Vl9gMZ/T7/IQmxbvDQu
Ys4nys2i9DJEYeHSi5yWj0uf5a9toB+54ddDJ2WydlfvjYgGX1HjC4N7EPa1SYm9
5dQIJu+PNwIDAQABo4GSMIGPMA4GA1UdDwEB/wQEAwIFoDAJBgNVHRMEAjAAMBMG
A1UdJQQMMAoGCCsGAQUFBwMCMB0GA1UdDgQWBBTFPZ8P71TZovzzjliQUs3qqtuA
bjAfBgNVHSMEGDAWgBRATtt/gnp9wpfK5o4gBHm+9+vKtzAdBgNVHREEFjAUgRJw
cm92aWRlZEBlbWFpbC5jb20wDQYJKoZIhvcNAQEFBQADggIBAJNKymHkXtmhnKeS
D6/H7TVSqa8XSlL8z1JqLuXH/4IDnt6bxbueJFU5vScWiLGSY4s28f6yNALAVZur
srGRriHEJI722LYuyAQ4fidRXLTXQzdtUhUwNoU7N/fl5L4WNaFD5vipL3CAaESp
QpQJ2IALaWTPNgNhnqVYcdLyQZvHyMUZidYJ8rKjLeJniOuT900X0WE7Zy4nqxmg
dlbtzt8u03NIEzixXndr7X+LC7nYgeeHKdCnfCiZfc/Jl4vXdUzYM4T3KnhsoZf0
hlaBnBE3M87i80IDQKNBexovuiVCkbU3m9l3RhQI185pETxVCmLLwFZpIYm//2QR
XUjmlrbXuKXK3rAcwGbNQHcmBBDhGC+P7OPqPVZDiP9E+l0WhtzVTE3ttz+DXLH2
szPbB10V35tY1uD35LzQmAynWOQ1P+Fy+Nnk9eEgzee13kLEMUq7PnU+xSPt1DrN
2Sv4zfSBAfjFvyJF9xXfhOjRp8LVkmQSvCXqoJ8xoSvAMB60C1LDFRVPBFz0lL0U
WI07PloEJzoqTtwFG2bITvFQo5gRvLulA7wUw8InGY3YXOrQqPMJxi3u8WmQ+Oq0
awYws9mMqdBMdtGPaU3x1wawGedRxHKe9jdv8z3UnwD33ry3fdGyx6VMTlngiUjM
gmTBvBpv0D9bnK8H2nbZlWbpd750
-----END CERTIFICATE-----
