Certificate:
    Data:
        Version: 3 (0x2)
        Serial Number: 69 (0x45)
    Signature Algorithm: sha1WithRSAEncryption
        Issuer: C=RS, ST=Serbia, L=Belgrade, O=CodeRed, OU=Security, CN=Client CA
        Validity
            Not Before: Apr  5 12:47:49 2018 GMT
            Not After : Apr  5 12:47:49 2019 GMT
        Subject: O=Code Red, OU=Security, CN=username
        Subject Public Key Info:
            Public Key Algorithm: rsaEncryption
                Public-Key: (4096 bit)
                Modulus:
                    00:bb:a2:4a:db:47:3e:4e:d1:76:a6:72:ac:b4:d8:
                    ee:ed:ca:77:29:6d:2f:c4:72:a3:0b:06:43:89:0d:
                    5d:fb:f6:dc:1d:a0:62:d8:9a:4b:db:60:7c:8c:f2:
                    78:64:68:07:43:ad:13:62:ea:dc:29:ad:71:f5:e2:
                    c8:1a:61:b3:19:04:ec:88:9c:ca:60:2b:0b:da:51:
                    bf:0a:ac:29:d4:06:e9:61:df:e1:90:02:ce:44:d1:
                    d5:18:d2:da:5d:a2:45:99:03:0f:71:79:8c:97:ac:
                    2d:f7:0c:bd:e3:6c:b9:3e:80:ac:a0:6f:76:89:75:
                    4c:d4:6d:1b:43:36:08:43:c3:fe:96:91:72:89:48:
                    61:be:9c:55:45:1d:ac:9a:1a:b1:3d:d2:08:c3:89:
                    32:0a:c1:a9:a5:7e:d3:36:b5:68:1e:f3:2a:b3:55:
                    80:27:7b:42:8e:55:00:a2:f1:50:63:b3:c7:12:27:
                    6f:ae:48:f5:a9:95:f0:56:95:f0:32:20:2e:a1:8c:
                    e7:df:d1:9b:19:2b:08:3d:1f:3f:b3:6d:bf:81:70:
                    25:3f:69:5b:53:ee:41:10:26:7b:a3:3a:11:19:fc:
                    d4:7c:d3:cb:52:71:82:42:89:77:53:01:2d:f0:28:
                    22:bb:fa:ff:9e:8a:0a:e8:65:b7:11:43:b6:4d:11:
                    93:da:5d:4a:b5:a2:67:87:fd:fd:e3:17:7b:ab:63:
                    70:33:11:26:6b:d8:9a:38:a8:4d:83:96:f6:81:9b:
                    25:f9:d3:c0:ac:56:8b:51:77:af:d1:89:8a:be:c6:
                    71:2f:32:d9:31:12:2c:d3:be:ca:50:f3:96:5a:a8:
                    55:7a:d2:90:33:70:03:1c:4e:4b:73:c4:4d:43:70:
                    d3:2b:5f:f8:48:bb:33:90:77:69:a5:2d:3b:c0:62:
                    2a:89:06:87:de:cf:1f:a5:c4:f9:66:ca:24:17:9d:
                    00:4a:e8:be:a7:3a:2d:66:8d:57:90:55:29:4f:c5:
                    1b:0a:8c:23:47:ba:e9:b3:69:5a:98:4b:64:df:20:
                    71:cd:38:a9:13:84:1c:ac:ee:85:c0:3d:af:55:3a:
                    d8:fa:91:93:9c:18:73:fa:a3:0b:ff:b9:e0:e9:d6:
                    fc:d0:ee:5e:d4:22:33:e2:15:ae:7a:8d:a1:0f:2a:
                    9b:46:46:a5:f4:86:96:a8:ff:f7:d4:cd:e7:fd:16:
                    e2:59:51:56:0a:6e:62:34:d9:2a:f0:b4:3f:7c:d6:
                    46:54:00:79:99:bc:a9:52:db:6c:db:b0:3e:3e:9c:
                    c1:9b:c2:6e:89:48:2b:9e:64:b0:6e:8a:48:7f:90:
                    ff:48:72:84:c8:d7:65:9f:57:4d:f7:b1:58:11:83:
                    b6:74:7b
                Exponent: 65537 (0x10001)
        X509v3 extensions:
            X509v3 Key Usage: critical
                Digital Signature, Key Encipherment
            X509v3 Basic Constraints: 
                CA:FALSE
            X509v3 Extended Key Usage: 
                TLS Web Client Authentication
            X509v3 Subject Key Identifier: 
                60:7E:64:D0:E2:E1:03:D0:60:E5:5A:B4:83:46:64:3B:2B:70:E6:34
            X509v3 Authority Key Identifier: 
                keyid:40:4E:DB:7F:82:7A:7D:C2:97:CA:E6:8E:20:04:79:BE:F7:EB:CA:B7

            X509v3 Subject Alternative Name: 
                email:provided@email.com
    Signature Algorithm: sha1WithRSAEncryption
         1a:cd:21:7f:67:05:70:19:0e:8b:dd:36:46:1f:c7:88:51:1a:
         2a:72:6e:81:9b:7b:17:b5:97:da:88:fe:92:2c:60:30:15:63:
         ff:70:b6:a9:a0:e2:55:e2:a9:90:be:76:7f:e5:ed:bd:95:0c:
         95:62:c2:79:22:9c:c3:04:66:26:ab:ee:01:1e:e7:c7:b6:65:
         e8:f8:72:cf:ac:30:bb:19:f0:9e:ec:63:d0:73:f9:10:ba:49:
         81:4f:6d:9d:fa:b6:55:0a:71:a8:78:48:54:60:60:10:51:3d:
         ff:19:ad:26:cc:ec:55:c8:f0:b9:c0:62:9a:a0:d5:c5:af:5f:
         a1:b0:76:fd:8b:f0:f0:1d:d2:d1:d8:35:11:eb:f9:d3:0f:d4:
         0d:a6:03:99:44:ee:c5:44:49:e6:d7:05:cf:f1:67:4d:02:08:
         36:1e:19:56:b9:1e:94:bd:38:5a:0e:92:bd:27:d4:ae:06:ba:
         49:52:99:38:6a:3f:f2:fc:29:28:28:b1:fd:53:25:50:bb:c0:
         2b:ab:9c:f3:dc:e1:30:30:9c:f3:f3:93:fe:ee:12:1a:19:3a:
         92:b6:b6:2f:cb:dc:70:96:a1:e9:03:57:ab:a2:1d:3e:51:1c:
         17:d1:17:f4:17:a7:55:b0:6e:26:ec:ac:86:32:10:f4:b8:23:
         d7:5f:55:ae:ab:95:1b:f2:f7:44:63:ae:f7:7e:6d:69:2e:97:
         52:1b:e8:04:37:cb:1f:c3:f6:53:af:57:6a:df:4e:b9:a9:78:
         76:54:27:6f:82:3b:b6:5b:8f:8e:fb:b3:d4:9f:3d:93:a7:05:
         38:82:70:2d:b9:32:72:14:9c:bd:c0:78:aa:96:ae:2b:0f:b7:
         0d:16:53:bf:a1:a1:40:af:dd:44:a5:cd:7e:0f:83:87:db:5d:
         37:8c:76:c1:f9:fb:60:51:e3:fd:f2:46:33:55:26:af:72:3d:
         5a:98:2f:a0:79:2b:9c:b4:b7:d7:73:93:9f:7e:29:e6:5e:b8:
         7a:da:01:57:05:e1:78:f0:42:d4:28:7c:ba:79:fd:f0:42:c6:
         8e:7c:ae:4b:eb:d7:4f:53:80:1e:1f:ed:8a:65:fd:78:81:22:
         d3:7d:b9:23:9f:5c:25:e2:07:f5:9e:b6:b9:2c:8d:49:5b:8d:
         6a:eb:d0:60:f3:50:44:1a:47:01:9d:8b:00:d6:8b:58:70:a9:
         47:72:5f:c5:2f:07:b1:05:fe:4f:6e:48:50:07:6b:df:6c:fc:
         48:a1:31:90:0b:04:1c:c9:4e:93:0b:8e:58:a9:f0:5b:03:03:
         13:70:96:d5:d9:b6:30:c2:31:54:b4:29:80:13:22:1f:bd:4c:
         58:83:50:6a:fc:85:18:75
-----BEGIN CERTIFICATE-----
MIIFsTCCA5mgAwIBAgIBRTANBgkqhkiG9w0BAQUFADBqMQswCQYDVQQGEwJSUzEP
MA0GA1UECAwGU2VyYmlhMREwDwYDVQQHDAhCZWxncmFkZTEQMA4GA1UECgwHQ29k
ZVJlZDERMA8GA1UECwwIU2VjdXJpdHkxEjAQBgNVBAMMCUNsaWVudCBDQTAeFw0x
ODA0MDUxMjQ3NDlaFw0xOTA0MDUxMjQ3NDlaMDkxETAPBgNVBAoMCENvZGUgUmVk
MREwDwYDVQQLDAhTZWN1cml0eTERMA8GA1UEAwwIdXNlcm5hbWUwggIiMA0GCSqG
SIb3DQEBAQUAA4ICDwAwggIKAoICAQC7okrbRz5O0Xamcqy02O7tyncpbS/EcqML
BkOJDV379twdoGLYmkvbYHyM8nhkaAdDrRNi6twprXH14sgaYbMZBOyInMpgKwva
Ub8KrCnUBulh3+GQAs5E0dUY0tpdokWZAw9xeYyXrC33DL3jbLk+gKygb3aJdUzU
bRtDNghDw/6WkXKJSGG+nFVFHayaGrE90gjDiTIKwamlftM2tWge8yqzVYAne0KO
VQCi8VBjs8cSJ2+uSPWplfBWlfAyIC6hjOff0ZsZKwg9Hz+zbb+BcCU/aVtT7kEQ
JnujOhEZ/NR808tScYJCiXdTAS3wKCK7+v+eigroZbcRQ7ZNEZPaXUq1omeH/f3j
F3urY3AzESZr2Jo4qE2DlvaBmyX508CsVotRd6/RiYq+xnEvMtkxEizTvspQ85Za
qFV60pAzcAMcTktzxE1DcNMrX/hIuzOQd2mlLTvAYiqJBofezx+lxPlmyiQXnQBK
6L6nOi1mjVeQVSlPxRsKjCNHuumzaVqYS2TfIHHNOKkThBys7oXAPa9VOtj6kZOc
GHP6owv/ueDp1vzQ7l7UIjPiFa56jaEPKptGRqX0hpao//fUzef9FuJZUVYKbmI0
2SrwtD981kZUAHmZvKlS22zbsD4+nMGbwm6JSCueZLBuikh/kP9IcoTI12WfV033
sVgRg7Z0ewIDAQABo4GSMIGPMA4GA1UdDwEB/wQEAwIFoDAJBgNVHRMEAjAAMBMG
A1UdJQQMMAoGCCsGAQUFBwMCMB0GA1UdDgQWBBRgfmTQ4uED0GDlWrSDRmQ7K3Dm
NDAfBgNVHSMEGDAWgBRATtt/gnp9wpfK5o4gBHm+9+vKtzAdBgNVHREEFjAUgRJw
cm92aWRlZEBlbWFpbC5jb20wDQYJKoZIhvcNAQEFBQADggIBABrNIX9nBXAZDovd
NkYfx4hRGipyboGbexe1l9qI/pIsYDAVY/9wtqmg4lXiqZC+dn/l7b2VDJViwnki
nMMEZiar7gEe58e2Zej4cs+sMLsZ8J7sY9Bz+RC6SYFPbZ36tlUKcah4SFRgYBBR
Pf8ZrSbM7FXI8LnAYpqg1cWvX6Gwdv2L8PAd0tHYNRHr+dMP1A2mA5lE7sVESebX
Bc/xZ00CCDYeGVa5HpS9OFoOkr0n1K4GuklSmThqP/L8KSgosf1TJVC7wCurnPPc
4TAwnPPzk/7uEhoZOpK2ti/L3HCWoekDV6uiHT5RHBfRF/QXp1WwbibsrIYyEPS4
I9dfVa6rlRvy90Rjrvd+bWkul1Ib6AQ3yx/D9lOvV2rfTrmpeHZUJ2+CO7Zbj477
s9SfPZOnBTiCcC25MnIUnL3AeKqWrisPtw0WU7+hoUCv3USlzX4Pg4fbXTeMdsH5
+2BR4/3yRjNVJq9yPVqYL6B5K5y0t9dzk59+KeZeuHraAVcF4XjwQtQofLp5/fBC
xo58rkvr109TgB4f7Ypl/XiBItN9uSOfXCXiB/WetrksjUlbjWrr0GDzUEQaRwGd
iwDWi1hwqUdyX8UvB7EF/k9uSFAHa99s/EihMZALBBzJTpMLjlip8FsDAxNwltXZ
tjDCMVS0KYATIh+9TFiDUGr8hRh1
-----END CERTIFICATE-----
