Certificate:
    Data:
        Version: 3 (0x2)
        Serial Number: 70 (0x46)
    Signature Algorithm: sha1WithRSAEncryption
        Issuer: C=RS, ST=Serbia, L=Belgrade, O=CodeRed, OU=Security, CN=Client CA
        Validity
            Not Before: Apr  5 13:05:52 2018 GMT
            Not After : Apr  5 13:05:52 2019 GMT
        Subject: O=Code Red, OU=Security, CN=username
        Subject Public Key Info:
            Public Key Algorithm: rsaEncryption
                Public-Key: (4096 bit)
                Modulus:
                    00:94:49:7e:12:dd:c1:55:d6:44:42:6a:8e:d8:75:
                    86:fd:e6:d5:58:3b:28:d5:3f:c8:2b:3f:d0:75:60:
                    7e:e9:8e:64:27:2f:b4:67:e4:e2:df:ea:a4:63:c5:
                    c8:94:c2:63:ab:c3:05:52:41:b8:bf:b1:45:f3:27:
                    74:76:b9:58:7d:35:b4:45:9d:5f:61:06:ee:03:d3:
                    19:0d:de:71:2d:ad:e6:74:9f:61:2e:ae:a1:92:65:
                    ee:dc:c6:bc:08:1c:11:4e:07:33:b7:c0:60:0e:b7:
                    90:5e:41:ed:0b:84:60:17:40:f7:81:9b:90:e3:1b:
                    ae:31:e5:52:03:c9:dd:fc:d3:cf:4c:a5:ba:ac:db:
                    b5:68:df:7c:15:f9:07:a2:1a:fb:90:96:48:88:c1:
                    01:1b:fc:09:c8:2a:d1:68:ad:cf:c2:d9:5a:d3:7c:
                    bd:84:8a:7c:65:09:fd:d4:50:22:b6:be:88:1c:d6:
                    72:d2:fc:f1:55:1c:ea:7d:b5:3b:06:6c:4a:60:9c:
                    ca:8c:eb:61:eb:ef:6a:f4:46:c9:ba:35:1e:89:4c:
                    b5:74:a3:2d:47:d8:5f:91:ed:e6:57:9e:35:96:ed:
                    66:3c:4e:71:77:91:b8:65:86:60:0e:52:00:27:d8:
                    25:e1:32:e8:36:ee:b2:f3:ad:74:f0:0b:b5:14:0c:
                    7d:20:ac:ce:63:06:ea:b9:81:61:f4:e0:29:7c:8b:
                    97:10:65:12:ee:ca:a9:c6:0b:e6:0c:9e:f2:56:62:
                    74:bd:4b:c3:01:49:84:50:f6:84:ad:9f:f4:7e:df:
                    87:dd:66:0b:74:06:99:8e:79:49:5d:f3:50:63:60:
                    0c:97:3a:8e:d6:e2:25:e0:16:22:5f:63:45:fb:5c:
                    85:ad:94:94:9a:71:55:bc:e3:51:a6:b9:9e:b6:17:
                    a2:bf:16:23:fa:6e:02:c1:57:e4:13:b2:56:a0:12:
                    3b:d3:20:30:7b:75:0a:e6:95:9f:4f:29:0a:8b:bb:
                    2b:88:60:21:6a:0e:15:1e:bd:c4:46:4b:2e:97:eb:
                    e2:f0:65:b6:8a:ca:4a:5f:b8:23:ab:f0:d7:f5:2f:
                    62:d6:0f:c5:2c:3f:3c:3a:27:3c:35:a4:2f:2e:34:
                    30:90:fc:d0:f0:5c:23:cb:04:a0:40:66:68:b1:d7:
                    ec:13:59:31:14:ef:3b:0b:c5:23:12:e5:c8:76:30:
                    a0:c2:ce:5b:0e:f7:42:b1:ce:08:4c:1b:db:53:e1:
                    3e:ac:eb:81:1e:05:9f:12:da:24:8c:2d:2c:83:97:
                    51:f7:eb:f2:bd:be:34:79:7f:86:b8:27:3d:93:1c:
                    0d:92:f3:74:35:d2:79:6a:be:33:a5:3d:7b:ff:32:
                    e0:5e:8b
                Exponent: 65537 (0x10001)
        X509v3 extensions:
            X509v3 Key Usage: critical
                Digital Signature, Key Encipherment
            X509v3 Basic Constraints: 
                CA:FALSE
            X509v3 Extended Key Usage: 
                TLS Web Client Authentication
            X509v3 Subject Key Identifier: 
                72:2B:43:C9:60:80:B8:6F:AF:D6:40:A2:31:D6:7C:AE:CA:7E:95:34
            X509v3 Authority Key Identifier: 
                keyid:40:4E:DB:7F:82:7A:7D:C2:97:CA:E6:8E:20:04:79:BE:F7:EB:CA:B7

            X509v3 Subject Alternative Name: 
                email:provided@email.com
    Signature Algorithm: sha1WithRSAEncryption
         3e:9b:96:2b:b9:b8:bf:ab:a0:f6:bb:01:19:7e:19:05:b7:8c:
         99:36:95:34:ec:53:26:8b:97:59:16:ef:fa:f0:6d:2f:fd:e4:
         87:f4:7f:b8:6f:2f:ed:40:d7:d1:9a:fc:34:a8:1c:a8:ab:5a:
         c3:69:a0:2f:03:48:32:6a:40:f2:3b:a1:2c:62:b2:d2:69:3d:
         6b:1d:e4:f0:25:36:48:6d:5c:65:48:0c:d1:6c:fb:2d:69:d2:
         7b:5e:f8:7b:32:2a:97:28:a4:88:20:a0:d9:46:1b:b5:5e:98:
         17:7b:cb:6f:8c:ac:1c:42:d2:39:26:8b:a1:e3:37:f1:ae:40:
         6f:fa:ff:77:88:ac:c9:4e:01:18:d5:16:20:bb:1a:dd:17:19:
         8d:a5:14:6d:41:94:ae:87:7e:a9:43:e1:96:82:62:0f:cf:6f:
         dd:24:61:8b:25:83:b6:b7:d2:2b:ec:41:a1:07:ce:92:00:45:
         99:e0:a3:c6:e7:64:3e:0e:73:a8:eb:86:df:f8:9b:9b:73:56:
         77:9b:dd:44:50:17:86:38:35:06:80:ba:70:5c:8d:9f:b8:34:
         37:f7:0e:ec:2f:1d:2b:21:59:55:13:a0:97:f5:da:6b:7e:4a:
         a4:ae:f3:37:c3:17:62:af:ba:98:93:ec:84:8e:85:04:ee:ef:
         42:2c:50:18:da:55:8f:75:5a:ff:64:79:19:a3:0d:01:de:ba:
         b7:b4:7c:02:92:47:ee:de:ba:16:9f:70:e2:7a:55:0f:ce:af:
         62:f6:13:84:c9:5c:d0:69:f4:93:19:c4:60:21:0d:55:09:f7:
         ee:d8:13:b0:cd:77:4e:3e:e8:26:17:0a:01:fb:fa:ea:42:fb:
         63:e4:aa:dc:5b:fd:95:f6:ac:e6:2b:a2:0d:f8:2d:f9:35:5a:
         a8:b3:fa:06:d6:bc:75:a6:2a:1f:53:9a:0b:c9:a5:4b:50:1d:
         f3:42:b3:1b:71:6c:19:83:b9:9c:c6:93:2b:1a:1b:22:7c:ba:
         db:ff:86:b5:56:c4:53:2f:21:19:9d:11:15:05:44:74:49:73:
         2d:de:bd:84:ac:f8:10:70:cf:ce:65:eb:f9:af:3f:e6:c4:7e:
         a1:73:c2:de:c8:45:02:8d:90:7a:e5:e5:1f:a8:e5:7f:5c:87:
         1f:aa:b1:49:88:a5:11:cc:02:e4:08:c7:b6:ed:33:a3:af:49:
         e6:82:bc:35:f7:3d:17:bc:0d:cc:f9:71:7f:bf:5c:a6:53:9e:
         c0:ee:b6:90:4b:c8:9a:ff:e0:fe:70:d7:1f:54:e5:e9:20:4b:
         a2:c2:14:a4:a5:ef:40:3d:47:fd:a3:03:80:da:2c:f5:74:d3:
         c5:e7:76:b3:09:c1:9a:92
-----BEGIN CERTIFICATE-----
MIIFsTCCA5mgAwIBAgIBRjANBgkqhkiG9w0BAQUFADBqMQswCQYDVQQGEwJSUzEP
MA0GA1UECAwGU2VyYmlhMREwDwYDVQQHDAhCZWxncmFkZTEQMA4GA1UECgwHQ29k
ZVJlZDERMA8GA1UECwwIU2VjdXJpdHkxEjAQBgNVBAMMCUNsaWVudCBDQTAeFw0x
ODA0MDUxMzA1NTJaFw0xOTA0MDUxMzA1NTJaMDkxETAPBgNVBAoMCENvZGUgUmVk
MREwDwYDVQQLDAhTZWN1cml0eTERMA8GA1UEAwwIdXNlcm5hbWUwggIiMA0GCSqG
SIb3DQEBAQUAA4ICDwAwggIKAoICAQCUSX4S3cFV1kRCao7YdYb95tVYOyjVP8gr
P9B1YH7pjmQnL7Rn5OLf6qRjxciUwmOrwwVSQbi/sUXzJ3R2uVh9NbRFnV9hBu4D
0xkN3nEtreZ0n2EurqGSZe7cxrwIHBFOBzO3wGAOt5BeQe0LhGAXQPeBm5DjG64x
5VIDyd38089Mpbqs27Vo33wV+QeiGvuQlkiIwQEb/AnIKtForc/C2VrTfL2Einxl
Cf3UUCK2vogc1nLS/PFVHOp9tTsGbEpgnMqM62Hr72r0Rsm6NR6JTLV0oy1H2F+R
7eZXnjWW7WY8TnF3kbhlhmAOUgAn2CXhMug27rLzrXTwC7UUDH0grM5jBuq5gWH0
4Cl8i5cQZRLuyqnGC+YMnvJWYnS9S8MBSYRQ9oStn/R+34fdZgt0BpmOeUld81Bj
YAyXOo7W4iXgFiJfY0X7XIWtlJSacVW841GmuZ62F6K/FiP6bgLBV+QTslagEjvT
IDB7dQrmlZ9PKQqLuyuIYCFqDhUevcRGSy6X6+LwZbaKykpfuCOr8Nf1L2LWD8Us
Pzw6Jzw1pC8uNDCQ/NDwXCPLBKBAZmix1+wTWTEU7zsLxSMS5ch2MKDCzlsO90Kx
zghMG9tT4T6s64EeBZ8S2iSMLSyDl1H36/K9vjR5f4a4Jz2THA2S83Q10nlqvjOl
PXv/MuBeiwIDAQABo4GSMIGPMA4GA1UdDwEB/wQEAwIFoDAJBgNVHRMEAjAAMBMG
A1UdJQQMMAoGCCsGAQUFBwMCMB0GA1UdDgQWBBRyK0PJYIC4b6/WQKIx1nyuyn6V
NDAfBgNVHSMEGDAWgBRATtt/gnp9wpfK5o4gBHm+9+vKtzAdBgNVHREEFjAUgRJw
cm92aWRlZEBlbWFpbC5jb20wDQYJKoZIhvcNAQEFBQADggIBAD6bliu5uL+roPa7
ARl+GQW3jJk2lTTsUyaLl1kW7/rwbS/95If0f7hvL+1A19Ga/DSoHKirWsNpoC8D
SDJqQPI7oSxistJpPWsd5PAlNkhtXGVIDNFs+y1p0nte+HsyKpcopIggoNlGG7Ve
mBd7y2+MrBxC0jkmi6HjN/GuQG/6/3eIrMlOARjVFiC7Gt0XGY2lFG1BlK6HfqlD
4ZaCYg/Pb90kYYslg7a30ivsQaEHzpIARZngo8bnZD4Oc6jrht/4m5tzVneb3URQ
F4Y4NQaAunBcjZ+4NDf3DuwvHSshWVUToJf12mt+SqSu8zfDF2KvupiT7ISOhQTu
70IsUBjaVY91Wv9keRmjDQHeure0fAKSR+7euhafcOJ6VQ/Or2L2E4TJXNBp9JMZ
xGAhDVUJ9+7YE7DNd04+6CYXCgH7+upC+2Pkqtxb/ZX2rOYrog34Lfk1Wqiz+gbW
vHWmKh9TmgvJpUtQHfNCsxtxbBmDuZzGkysaGyJ8utv/hrVWxFMvIRmdERUFRHRJ
cy3evYSs+BBwz85l6/mvP+bEfqFzwt7IRQKNkHrl5R+o5X9chx+qsUmIpRHMAuQI
x7btM6OvSeaCvDX3PRe8Dcz5cX+/XKZTnsDutpBLyJr/4P5w1x9U5ekgS6LCFKSl
70A9R/2jA4DaLPV008XndrMJwZqS
-----END CERTIFICATE-----
