Certificate:
    Data:
        Version: 3 (0x2)
        Serial Number: 2 (0x2)
    Signature Algorithm: sha1WithRSAEncryption
        Issuer: C=RS, ST=Serbia, L=Belgrade, O=CodeRed, OU=Security, CN=Client CA
        Validity
            Not Before: Mar 31 12:04:12 2018 GMT
            Not After : Mar 31 12:04:12 2019 GMT
        Subject: O=Code Red, OU=Security, CN=username
        Subject Public Key Info:
            Public Key Algorithm: rsaEncryption
                Public-Key: (4096 bit)
                Modulus:
                    00:b9:91:64:10:19:ae:58:49:cf:d9:20:7c:5f:13:
                    ee:20:46:73:ce:eb:89:f4:c6:92:57:94:b6:7e:7d:
                    42:60:db:6a:d4:05:af:c6:f4:46:77:8e:97:18:b6:
                    3b:f8:fd:ea:80:5d:9d:a2:60:e0:a9:28:e6:e9:ef:
                    8b:11:fb:1f:a9:63:27:ca:64:59:31:66:98:aa:0f:
                    3b:d1:49:19:d7:d8:3f:7a:61:68:3e:f8:17:74:f8:
                    aa:23:22:be:72:39:c8:75:a5:ef:0f:df:1c:43:e5:
                    ca:52:6f:d1:62:06:62:dc:64:78:ad:d5:b8:c1:50:
                    a5:cb:30:a0:23:dc:33:bf:ca:a8:41:89:a6:4c:83:
                    01:34:87:86:76:24:1a:a8:75:9b:32:4e:ae:f2:c4:
                    8a:b6:dd:d8:e9:34:bc:e0:39:2e:69:42:62:ca:de:
                    62:fb:83:18:eb:1a:80:f0:9f:21:fe:c7:b9:03:de:
                    24:a6:ce:b2:8a:ce:4b:c3:67:55:36:7d:17:36:61:
                    dd:51:be:16:97:4b:d4:f5:8b:f7:57:6c:cc:a0:b3:
                    ba:d1:71:c7:20:b7:8f:11:38:64:4c:74:77:50:45:
                    39:01:4a:1c:f3:52:0c:51:02:49:72:c6:61:46:27:
                    f5:ba:76:88:8a:57:44:47:99:ef:d4:3c:fc:5f:6a:
                    5b:3a:76:b5:68:17:d2:0e:28:c8:41:c7:cf:56:ed:
                    0d:17:d0:4a:d3:ea:7c:6d:b9:b4:9e:2f:7a:d8:35:
                    00:0c:1a:e6:bc:0e:2c:2b:d6:aa:3e:f1:d0:8c:87:
                    18:ce:a6:00:38:81:84:a7:01:80:0c:1f:30:1a:2d:
                    3a:76:df:c3:2f:55:6b:df:b7:10:2d:6b:7b:39:aa:
                    f0:54:03:9c:28:b9:2b:c5:a8:ff:e7:78:e2:20:7a:
                    3c:42:f1:22:11:49:cc:0c:cd:56:79:45:9f:53:3c:
                    61:dc:52:1f:95:f6:7a:51:74:75:60:0b:cf:35:88:
                    df:5f:35:4b:61:9d:50:7d:9f:a6:b0:c7:1e:24:c2:
                    b0:c4:37:77:52:d6:75:e1:22:ca:f0:69:ab:3a:d2:
                    e7:36:fc:ed:fb:21:c8:00:2c:dd:ac:60:0e:d0:b1:
                    36:76:e1:b8:86:42:4e:e5:68:0d:e8:17:ac:db:92:
                    9d:5a:64:82:92:54:66:96:a4:af:40:29:06:97:11:
                    1a:84:20:51:c4:eb:8a:a2:a0:24:79:b0:96:cc:e9:
                    29:ab:09:c9:7d:01:4d:ba:ae:aa:9f:e8:03:52:52:
                    b8:cf:40:71:f4:eb:03:45:5e:11:7e:e0:55:bc:2c:
                    fd:f8:15:64:6f:db:89:4a:e1:73:f9:ba:44:b0:0f:
                    90:2d:0f
                Exponent: 65537 (0x10001)
        X509v3 extensions:
            X509v3 Key Usage: critical
                Digital Signature, Key Encipherment
            X509v3 Basic Constraints: 
                CA:FALSE
            X509v3 Extended Key Usage: 
                TLS Web Client Authentication
            X509v3 Subject Key Identifier: 
                5F:B7:CC:6C:AC:AC:25:43:34:48:FB:6F:16:8F:A0:60:48:98:F8:07
            X509v3 Authority Key Identifier: 
                keyid:40:4E:DB:7F:82:7A:7D:C2:97:CA:E6:8E:20:04:79:BE:F7:EB:CA:B7

            X509v3 Subject Alternative Name: 
                email:provided@email.com
    Signature Algorithm: sha1WithRSAEncryption
         55:b2:6a:31:55:03:22:ed:07:31:53:a8:cd:c1:d6:04:1a:ba:
         15:18:26:22:ca:38:ab:c5:6d:92:84:68:6f:3b:cb:0b:4e:d9:
         1a:ae:b8:48:bb:ca:9a:b3:76:e8:7d:c8:8f:59:76:14:be:1a:
         28:2c:89:33:d8:f2:08:f9:a7:8e:69:fc:b8:be:dc:a1:d6:89:
         c0:96:4f:09:a9:cf:8c:09:22:0b:3f:ae:14:c7:5c:07:7c:2e:
         a6:ff:f3:81:11:e4:e5:81:5d:6b:cd:0a:c0:11:41:9f:66:7b:
         44:cc:3d:82:7b:48:eb:f0:80:f8:9d:0e:1f:ac:2a:77:89:d5:
         38:c9:0e:40:eb:ba:12:91:00:82:6c:2e:08:44:0e:17:ea:ed:
         e5:9f:06:2f:4c:71:f8:b5:ca:c9:83:82:a0:4c:96:4b:0b:62:
         cd:b5:6b:43:5a:cd:b4:42:b2:72:90:56:99:87:b3:39:35:d6:
         06:ab:7b:1b:8f:0f:7e:cf:82:bf:43:88:37:a7:e3:3b:17:27:
         34:a0:56:a0:65:c7:f6:c0:c8:1b:05:5c:40:fc:6c:72:02:01:
         09:eb:ba:23:26:76:4e:70:b2:10:eb:aa:f8:be:c9:67:76:13:
         a9:18:30:de:92:3d:29:76:51:8c:a0:ee:c1:2a:8b:25:5e:9c:
         88:4e:93:86:ab:e7:0e:e6:dc:67:6f:d8:96:56:09:ae:48:20:
         3b:00:13:1c:50:72:58:05:ee:34:99:f5:29:26:5e:a1:5e:0d:
         14:28:0d:c8:fe:f3:b0:c0:06:b4:74:15:f9:5e:2d:87:13:ca:
         c2:83:fe:e7:01:a0:f4:fd:8b:d6:c9:ca:71:75:b5:70:f2:60:
         92:dc:ff:41:27:9b:73:16:b3:8d:42:01:7b:ca:05:03:4e:80:
         4f:cc:15:04:d6:82:01:35:eb:3d:9a:64:5c:f6:10:e8:fc:4a:
         da:60:4a:f6:9e:1c:53:23:a8:85:87:d1:d5:6c:fc:84:c6:0a:
         0c:0d:56:5a:3f:d8:87:8a:c8:79:04:a9:3c:9a:81:25:b8:b2:
         a6:bc:6f:64:45:a4:4c:f2:7d:1c:79:99:0b:54:6a:51:e8:0d:
         d9:6c:d4:63:d6:2e:fe:ee:69:f7:37:a4:b9:15:8f:0b:14:46:
         a9:32:06:7c:fd:25:f1:8d:fb:89:df:2f:b0:32:31:bc:ed:dd:
         cb:c6:e5:03:7d:65:b7:65:4d:74:be:17:35:ce:ab:a3:3a:84:
         49:8c:e5:7a:9b:12:0d:e8:41:06:2b:82:22:de:1e:b7:a4:f7:
         5d:0c:00:95:b6:5e:45:ea:79:ec:c3:3c:f0:d1:a3:8d:58:fc:
         e6:5c:e9:4c:73:f0:8c:6b
-----BEGIN CERTIFICATE-----
MIIFsTCCA5mgAwIBAgIBAjANBgkqhkiG9w0BAQUFADBqMQswCQYDVQQGEwJSUzEP
MA0GA1UECAwGU2VyYmlhMREwDwYDVQQHDAhCZWxncmFkZTEQMA4GA1UECgwHQ29k
ZVJlZDERMA8GA1UECwwIU2VjdXJpdHkxEjAQBgNVBAMMCUNsaWVudCBDQTAeFw0x
ODAzMzExMjA0MTJaFw0xOTAzMzExMjA0MTJaMDkxETAPBgNVBAoMCENvZGUgUmVk
MREwDwYDVQQLDAhTZWN1cml0eTERMA8GA1UEAwwIdXNlcm5hbWUwggIiMA0GCSqG
SIb3DQEBAQUAA4ICDwAwggIKAoICAQC5kWQQGa5YSc/ZIHxfE+4gRnPO64n0xpJX
lLZ+fUJg22rUBa/G9EZ3jpcYtjv4/eqAXZ2iYOCpKObp74sR+x+pYyfKZFkxZpiq
DzvRSRnX2D96YWg++Bd0+KojIr5yOch1pe8P3xxD5cpSb9FiBmLcZHit1bjBUKXL
MKAj3DO/yqhBiaZMgwE0h4Z2JBqodZsyTq7yxIq23djpNLzgOS5pQmLK3mL7gxjr
GoDwnyH+x7kD3iSmzrKKzkvDZ1U2fRc2Yd1RvhaXS9T1i/dXbMygs7rRcccgt48R
OGRMdHdQRTkBShzzUgxRAklyxmFGJ/W6doiKV0RHme/UPPxfals6drVoF9IOKMhB
x89W7Q0X0ErT6nxtubSeL3rYNQAMGua8Diwr1qo+8dCMhxjOpgA4gYSnAYAMHzAa
LTp238MvVWvftxAta3s5qvBUA5wouSvFqP/neOIgejxC8SIRScwMzVZ5RZ9TPGHc
Uh+V9npRdHVgC881iN9fNUthnVB9n6awxx4kwrDEN3dS1nXhIsrwaas60uc2/O37
IcgALN2sYA7QsTZ24biGQk7laA3oF6zbkp1aZIKSVGaWpK9AKQaXERqEIFHE64qi
oCR5sJbM6SmrCcl9AU26rqqf6ANSUrjPQHH06wNFXhF+4FW8LP34FWRv24lK4XP5
ukSwD5AtDwIDAQABo4GSMIGPMA4GA1UdDwEB/wQEAwIFoDAJBgNVHRMEAjAAMBMG
A1UdJQQMMAoGCCsGAQUFBwMCMB0GA1UdDgQWBBRft8xsrKwlQzRI+28Wj6BgSJj4
BzAfBgNVHSMEGDAWgBRATtt/gnp9wpfK5o4gBHm+9+vKtzAdBgNVHREEFjAUgRJw
cm92aWRlZEBlbWFpbC5jb20wDQYJKoZIhvcNAQEFBQADggIBAFWyajFVAyLtBzFT
qM3B1gQauhUYJiLKOKvFbZKEaG87ywtO2RquuEi7ypqzduh9yI9ZdhS+GigsiTPY
8gj5p45p/Li+3KHWicCWTwmpz4wJIgs/rhTHXAd8Lqb/84ER5OWBXWvNCsARQZ9m
e0TMPYJ7SOvwgPidDh+sKneJ1TjJDkDruhKRAIJsLghEDhfq7eWfBi9Mcfi1ysmD
gqBMlksLYs21a0NazbRCsnKQVpmHszk11garexuPD37Pgr9DiDen4zsXJzSgVqBl
x/bAyBsFXED8bHICAQnruiMmdk5wshDrqvi+yWd2E6kYMN6SPSl2UYyg7sEqiyVe
nIhOk4ar5w7m3Gdv2JZWCa5IIDsAExxQclgF7jSZ9SkmXqFeDRQoDcj+87DABrR0
FfleLYcTysKD/ucBoPT9i9bJynF1tXDyYJLc/0Enm3MWs41CAXvKBQNOgE/MFQTW
ggE16z2aZFz2EOj8StpgSvaeHFMjqIWH0dVs/ITGCgwNVlo/2IeKyHkEqTyagSW4
sqa8b2RFpEzyfRx5mQtUalHoDdls1GPWLv7uafc3pLkVjwsURqkyBnz9JfGN+4nf
L7AyMbzt3cvG5QN9ZbdlTXS+FzXOq6M6hEmM5XqbEg3oQQYrgiLeHrek910MAJW2
XkXqeezDPPDRo41Y/OZc6Uxz8Ixr
-----END CERTIFICATE-----
