Certificate:
    Data:
        Version: 3 (0x2)
        Serial Number: 5 (0x5)
    Signature Algorithm: sha1WithRSAEncryption
        Issuer: C=RS, ST=Serbia, L=Belgrade, O=CodeRed, OU=Security, CN=Client CA
        Validity
            Not Before: Mar 31 12:18:49 2018 GMT
            Not After : Mar 31 12:18:49 2019 GMT
        Subject: O=Code Red, OU=Security, CN=username
        Subject Public Key Info:
            Public Key Algorithm: rsaEncryption
                Public-Key: (4096 bit)
                Modulus:
                    00:d3:e5:cf:ad:7e:a8:29:e5:89:ac:f4:48:f2:21:
                    d0:d1:4a:92:3c:c9:d6:20:41:87:fc:fa:6b:b1:12:
                    61:87:20:ea:38:85:50:31:d5:74:b4:82:ae:01:6c:
                    8f:51:8e:13:e0:27:2a:2a:f9:5a:8e:56:0a:2d:10:
                    71:c6:c1:95:f0:75:c2:24:4d:eb:1e:31:1e:b8:93:
                    9a:e8:dc:37:b4:84:51:a9:98:58:3d:47:a4:17:81:
                    73:55:77:ce:23:2a:c6:7e:a6:0d:f7:35:28:77:b5:
                    80:7f:90:b7:eb:bf:85:80:7b:df:a9:82:11:6e:42:
                    8f:45:a3:c7:1a:32:40:5a:73:97:b3:ac:0e:23:62:
                    d7:d0:2c:23:4a:65:ca:64:f9:8c:5a:59:6d:92:34:
                    19:ca:5f:bb:d0:ab:99:7e:46:63:1e:e8:a8:b8:78:
                    82:4f:79:da:4a:62:04:c3:e3:b3:99:ac:35:d3:c9:
                    b6:88:a2:4b:73:5e:b2:2b:69:f0:31:d2:5e:a3:a3:
                    27:fc:7b:90:e8:d2:84:bb:bc:6f:4b:be:ee:6c:4f:
                    20:e1:c8:20:cd:97:fb:10:f1:18:0e:5e:80:f2:0e:
                    0d:96:54:53:ba:79:b6:7a:ef:cf:54:43:4e:f1:57:
                    67:8a:5d:5d:df:22:2b:20:20:f6:3b:63:d1:7c:26:
                    3b:03:94:3b:00:bf:04:a6:a4:e6:11:9e:39:45:f3:
                    bb:98:46:99:a5:f6:31:e8:87:de:a3:29:d2:d0:f2:
                    5f:d6:52:7c:e9:74:0c:fe:db:1e:af:09:d0:96:e4:
                    ce:70:6c:9a:38:81:88:a3:49:c8:71:9b:89:91:00:
                    98:84:f5:d8:1c:0f:a5:03:7f:06:bc:15:be:82:25:
                    19:ce:95:cf:25:a4:78:ce:0e:e3:8b:f4:c2:17:0d:
                    1e:af:7e:98:36:88:93:5e:2c:be:08:eb:74:1b:d8:
                    94:ec:fc:39:7b:63:8f:f0:2e:ef:8a:e5:2d:5e:11:
                    66:85:d5:9c:e5:54:71:58:eb:d6:d7:e4:a6:56:e7:
                    ad:77:ed:27:cd:68:cf:88:3a:58:d9:27:5d:d8:22:
                    c6:9e:42:c1:bc:0d:b3:3c:b3:4b:de:ef:e5:e1:33:
                    9a:b0:a8:f0:4c:c5:4c:46:fd:17:75:16:ce:4d:48:
                    6c:8d:b6:ff:9e:36:f1:ef:f8:af:e8:2e:63:b7:ae:
                    d3:fd:39:63:b3:1b:69:e5:06:09:2a:a1:29:d9:49:
                    79:23:92:95:53:14:a0:0d:85:15:ee:c3:6b:3f:4f:
                    2c:02:36:7b:8e:52:3a:a9:28:20:e5:73:10:85:71:
                    7d:c3:d1:83:fe:6b:bf:7f:c7:a2:c8:91:af:1a:93:
                    e1:9e:7b
                Exponent: 65537 (0x10001)
        X509v3 extensions:
            X509v3 Key Usage: critical
                Digital Signature, Key Encipherment
            X509v3 Basic Constraints: 
                CA:FALSE
            X509v3 Extended Key Usage: 
                TLS Web Client Authentication
            X509v3 Subject Key Identifier: 
                31:4F:2F:4C:D5:50:BA:55:C6:4C:71:38:9E:9F:AB:AA:6C:6A:F5:67
            X509v3 Authority Key Identifier: 
                keyid:40:4E:DB:7F:82:7A:7D:C2:97:CA:E6:8E:20:04:79:BE:F7:EB:CA:B7

            X509v3 Subject Alternative Name: 
                email:provided@email.com
    Signature Algorithm: sha1WithRSAEncryption
         56:e2:7d:90:86:77:e7:df:a1:c4:4b:cb:0c:2d:dc:75:ab:83:
         2e:a4:a6:86:e7:3a:11:82:93:c8:df:be:27:a7:17:3a:9e:e9:
         20:5d:ef:ad:78:16:06:92:04:dc:86:08:7a:0f:ca:94:bf:df:
         d8:0b:26:3a:a3:ad:35:ed:5a:9c:db:21:56:10:75:e6:d2:0d:
         44:52:11:7f:f2:3c:6e:7a:b7:95:70:3b:9e:e8:5f:91:0a:ea:
         f9:12:38:38:8f:92:a1:01:8d:d8:bb:1e:de:f8:2a:1c:35:84:
         06:13:93:4b:8a:bf:62:29:1b:d4:87:cd:44:7f:35:c9:71:10:
         55:cf:77:ab:60:ea:6d:db:4d:4d:c4:bd:23:8b:de:33:16:90:
         c4:b0:39:64:34:25:3e:6c:d2:63:cb:89:37:cc:8d:44:ff:45:
         23:26:a9:df:46:7a:96:00:38:05:07:ee:d0:da:8c:18:1c:a6:
         86:0d:7b:9a:f6:81:7a:5b:02:0d:3b:4b:d3:a7:31:ea:58:5f:
         16:e4:ef:cd:34:ba:dd:3f:79:57:73:55:cb:46:e6:ee:a0:25:
         41:01:e6:57:9f:40:20:2a:39:44:79:a9:d1:d9:62:78:a8:a6:
         af:9b:a7:39:16:37:eb:8d:7e:5f:67:34:dc:23:82:ed:61:20:
         d1:62:8b:03:8a:c8:93:f4:96:ef:c0:32:42:e9:5a:b4:fa:12:
         99:44:f2:ba:f5:10:83:f0:cd:f5:26:e8:3a:a7:77:b3:1d:da:
         91:7e:9e:05:32:7d:75:0c:cc:b6:35:f8:70:ed:54:d7:14:5e:
         4f:5c:56:69:10:05:de:3c:81:fb:9c:58:fd:68:7e:b5:5d:c4:
         37:2f:f6:aa:aa:ab:4b:5f:95:94:2e:0a:2e:c4:e2:2a:46:b7:
         ac:86:54:fc:6c:69:02:a1:d7:3a:96:13:12:4c:ab:c6:f6:a9:
         e4:37:d3:f6:23:39:81:be:32:56:70:43:11:74:39:a9:32:cc:
         33:5d:e3:af:6d:7c:db:70:8d:bb:68:43:89:89:72:68:1e:03:
         7e:45:31:68:7f:a9:48:8c:96:f3:0a:9c:82:2f:b7:ef:1b:04:
         6e:8f:23:24:89:b4:55:2f:02:67:a1:51:4a:bf:09:63:0a:43:
         c8:ad:fe:9d:45:c2:dc:b4:94:3e:b6:3f:7f:aa:44:2c:45:43:
         4b:02:f2:ba:f1:fb:df:27:4b:98:4e:9d:fd:43:4e:49:af:c6:
         28:65:78:ab:cd:a3:88:30:02:ab:af:63:7c:67:6b:f9:30:b5:
         08:70:d2:c7:bc:d0:3b:60:e9:cd:aa:dc:02:3d:57:69:e3:07:
         64:8f:40:28:61:b9:ec:5e
-----BEGIN CERTIFICATE-----
MIIFsTCCA5mgAwIBAgIBBTANBgkqhkiG9w0BAQUFADBqMQswCQYDVQQGEwJSUzEP
MA0GA1UECAwGU2VyYmlhMREwDwYDVQQHDAhCZWxncmFkZTEQMA4GA1UECgwHQ29k
ZVJlZDERMA8GA1UECwwIU2VjdXJpdHkxEjAQBgNVBAMMCUNsaWVudCBDQTAeFw0x
ODAzMzExMjE4NDlaFw0xOTAzMzExMjE4NDlaMDkxETAPBgNVBAoMCENvZGUgUmVk
MREwDwYDVQQLDAhTZWN1cml0eTERMA8GA1UEAwwIdXNlcm5hbWUwggIiMA0GCSqG
SIb3DQEBAQUAA4ICDwAwggIKAoICAQDT5c+tfqgp5Yms9EjyIdDRSpI8ydYgQYf8
+muxEmGHIOo4hVAx1XS0gq4BbI9RjhPgJyoq+VqOVgotEHHGwZXwdcIkTeseMR64
k5ro3De0hFGpmFg9R6QXgXNVd84jKsZ+pg33NSh3tYB/kLfrv4WAe9+pghFuQo9F
o8caMkBac5ezrA4jYtfQLCNKZcpk+YxaWW2SNBnKX7vQq5l+RmMe6Ki4eIJPedpK
YgTD47OZrDXTybaIoktzXrIrafAx0l6joyf8e5Do0oS7vG9Lvu5sTyDhyCDNl/sQ
8RgOXoDyDg2WVFO6ebZ6789UQ07xV2eKXV3fIisgIPY7Y9F8JjsDlDsAvwSmpOYR
njlF87uYRpml9jHoh96jKdLQ8l/WUnzpdAz+2x6vCdCW5M5wbJo4gYijSchxm4mR
AJiE9dgcD6UDfwa8Fb6CJRnOlc8lpHjODuOL9MIXDR6vfpg2iJNeLL4I63Qb2JTs
/Dl7Y4/wLu+K5S1eEWaF1ZzlVHFY69bX5KZW56137SfNaM+IOljZJ13YIsaeQsG8
DbM8s0ve7+XhM5qwqPBMxUxG/Rd1Fs5NSGyNtv+eNvHv+K/oLmO3rtP9OWOzG2nl
BgkqoSnZSXkjkpVTFKANhRXuw2s/TywCNnuOUjqpKCDlcxCFcX3D0YP+a79/x6LI
ka8ak+GeewIDAQABo4GSMIGPMA4GA1UdDwEB/wQEAwIFoDAJBgNVHRMEAjAAMBMG
A1UdJQQMMAoGCCsGAQUFBwMCMB0GA1UdDgQWBBQxTy9M1VC6VcZMcTien6uqbGr1
ZzAfBgNVHSMEGDAWgBRATtt/gnp9wpfK5o4gBHm+9+vKtzAdBgNVHREEFjAUgRJw
cm92aWRlZEBlbWFpbC5jb20wDQYJKoZIhvcNAQEFBQADggIBAFbifZCGd+ffocRL
ywwt3HWrgy6kpobnOhGCk8jfvienFzqe6SBd7614FgaSBNyGCHoPypS/39gLJjqj
rTXtWpzbIVYQdebSDURSEX/yPG56t5VwO57oX5EK6vkSODiPkqEBjdi7Ht74Khw1
hAYTk0uKv2IpG9SHzUR/NclxEFXPd6tg6m3bTU3EvSOL3jMWkMSwOWQ0JT5s0mPL
iTfMjUT/RSMmqd9GepYAOAUH7tDajBgcpoYNe5r2gXpbAg07S9OnMepYXxbk7800
ut0/eVdzVctG5u6gJUEB5lefQCAqOUR5qdHZYniopq+bpzkWN+uNfl9nNNwjgu1h
INFiiwOKyJP0lu/AMkLpWrT6EplE8rr1EIPwzfUm6Dqnd7Md2pF+ngUyfXUMzLY1
+HDtVNcUXk9cVmkQBd48gfucWP1ofrVdxDcv9qqqq0tflZQuCi7E4ipGt6yGVPxs
aQKh1zqWExJMq8b2qeQ30/YjOYG+MlZwQxF0OakyzDNd469tfNtwjbtoQ4mJcmge
A35FMWh/qUiMlvMKnIIvt+8bBG6PIySJtFUvAmehUUq/CWMKQ8it/p1Fwty0lD62
P3+qRCxFQ0sC8rrx+98nS5hOnf1DTkmvxihleKvNo4gwAquvY3xna/kwtQhw0se8
0Dtg6c2q3AI9V2njB2SPQChhuexe
-----END CERTIFICATE-----
