Certificate:
    Data:
        Version: 3 (0x2)
        Serial Number: 9 (0x9)
    Signature Algorithm: sha1WithRSAEncryption
        Issuer: C=RS, ST=Serbia, L=Belgrade, O=CodeRed, OU=Security, CN=Client CA
        Validity
            Not Before: Mar 31 12:30:35 2018 GMT
            Not After : Mar 31 12:30:35 2019 GMT
        Subject: O=Code Red, OU=Security, CN=username
        Subject Public Key Info:
            Public Key Algorithm: rsaEncryption
                Public-Key: (4096 bit)
                Modulus:
                    00:cf:ad:a5:0e:8b:f7:e6:4f:e3:47:f1:db:ba:21:
                    e8:6d:36:66:fc:b2:2d:19:b3:80:12:84:df:a8:52:
                    83:ab:c3:0a:32:b6:1d:f4:3d:9c:1c:c8:5d:0e:99:
                    e5:91:d0:ff:a4:34:a5:4c:bb:e5:0a:27:24:30:a9:
                    da:dc:84:a8:62:91:d3:ac:b6:19:fe:c9:1f:c8:24:
                    37:b7:bc:6f:10:06:66:60:04:76:07:1e:6b:2b:86:
                    44:42:43:7b:58:28:38:1b:5b:f1:40:d3:a6:bc:42:
                    f9:94:60:a1:5b:25:d3:45:3b:5c:f9:cc:e3:b4:d4:
                    70:bf:8e:5b:6f:f8:6d:49:2c:f0:80:77:c9:f8:3a:
                    b6:e2:64:f6:d6:4f:e8:19:8f:50:c3:aa:1a:24:17:
                    0f:b2:37:7e:76:4b:31:05:50:c0:da:22:2c:d3:07:
                    56:3d:63:cf:f0:d0:90:c1:fe:45:be:f6:54:3f:8d:
                    90:5d:91:76:88:dd:f2:12:34:cf:85:6c:42:7d:17:
                    b9:ec:5e:82:2e:9b:8c:a2:fe:ca:89:cc:f9:54:28:
                    d5:e0:df:4a:eb:e2:b0:95:80:ac:ce:86:d4:68:ed:
                    ec:bc:6d:09:e1:b5:66:7b:9d:6d:33:30:e0:0b:03:
                    98:73:ff:00:8a:69:bf:31:90:fa:91:54:51:4d:f1:
                    ed:ca:b0:79:ab:5f:b8:62:70:b9:e7:a6:a9:14:75:
                    ea:1c:d1:74:50:10:6c:d2:6f:ba:39:38:9b:36:68:
                    16:dc:f7:e4:2f:f7:ea:c2:fd:8b:e2:1b:8a:d4:bd:
                    e8:e3:46:29:eb:53:b5:09:7f:b0:62:c5:81:ce:10:
                    78:0b:3c:69:31:47:76:bb:c1:43:86:aa:5a:1e:3e:
                    1f:ac:08:80:2f:9d:31:4b:be:d5:bd:aa:5a:ec:f3:
                    9c:73:cc:ed:15:44:c5:51:ae:3d:d9:b8:44:ab:3a:
                    9b:cc:e9:95:2d:e9:8a:71:99:db:89:a0:ec:9a:69:
                    32:82:c6:8b:93:2a:4f:35:41:18:ce:cf:b8:9e:b0:
                    cb:58:7a:93:08:92:e5:b8:0f:2c:7b:2a:4d:5e:de:
                    52:44:cd:d1:f7:a1:85:db:90:fb:59:8b:29:51:ac:
                    5c:07:9c:ea:1d:b6:f4:14:51:3a:8f:35:a6:ed:0b:
                    c9:22:d9:a1:2b:d5:1d:2e:7e:a0:eb:36:ea:6a:b8:
                    c7:19:54:78:e3:64:01:e0:1b:54:85:6c:dd:76:cf:
                    d6:8a:c3:d0:02:71:d2:91:22:0e:ba:66:00:6e:4b:
                    00:cf:65:de:a6:09:1e:33:d8:6d:03:71:c1:93:1f:
                    d9:79:ec:37:a9:bf:c3:7c:0e:4a:68:00:1b:95:95:
                    a9:82:ef
                Exponent: 65537 (0x10001)
        X509v3 extensions:
            X509v3 Key Usage: critical
                Digital Signature, Key Encipherment
            X509v3 Basic Constraints: 
                CA:FALSE
            X509v3 Extended Key Usage: 
                TLS Web Client Authentication
            X509v3 Subject Key Identifier: 
                C6:9E:F9:1A:55:1A:26:C3:E5:76:C5:BB:40:B2:58:17:75:E6:EA:7A
            X509v3 Authority Key Identifier: 
                keyid:40:4E:DB:7F:82:7A:7D:C2:97:CA:E6:8E:20:04:79:BE:F7:EB:CA:B7

            X509v3 Subject Alternative Name: 
                email:provided@email.com
    Signature Algorithm: sha1WithRSAEncryption
         5a:dd:c8:67:60:31:dd:01:5e:f3:81:fb:d6:08:4c:98:d4:d3:
         7f:b4:36:5f:83:e2:45:52:1b:9e:bb:13:79:68:4e:66:c4:2b:
         c7:f6:53:6c:be:8c:57:18:29:cc:b4:75:e7:9c:29:0a:ab:b3:
         6e:a9:c5:b8:31:63:76:51:c1:15:23:ef:38:4f:43:8d:75:b5:
         4e:8f:36:ed:36:b2:92:04:e0:38:a5:45:d3:bd:c9:83:3f:c9:
         97:56:9b:cd:e2:7e:f6:a4:c0:85:6f:fd:c2:02:59:e8:1d:c7:
         e7:6a:8c:f7:23:1c:47:16:3f:63:06:db:08:9f:87:f0:83:d9:
         18:fb:74:1d:ee:4a:d1:cd:c1:f4:d7:e3:01:2a:84:11:b0:3a:
         99:ff:83:fa:fb:4c:31:df:08:7b:90:3d:64:de:f5:58:92:00:
         a2:46:e9:30:6e:81:a7:47:bd:ba:58:57:b2:51:23:d7:3f:ef:
         7a:62:1c:2a:cc:28:5b:d7:e1:7b:a3:ce:6b:61:04:e5:c7:65:
         12:5a:a6:d2:94:d2:14:98:df:d8:ed:20:a2:d2:ff:c6:e1:1d:
         db:a6:71:65:8d:9d:48:cb:c5:f6:2e:86:9d:72:e7:31:2e:d5:
         72:30:80:9c:2a:56:1b:1d:62:e0:40:7a:3b:b4:49:d8:ea:ec:
         6c:46:99:e7:32:03:5f:dd:ac:62:ad:58:93:5f:6a:2f:5e:92:
         57:41:1b:9a:2d:d6:3d:7a:b9:41:34:f5:c3:74:91:e4:92:0d:
         1e:d7:76:ca:bc:17:70:23:e9:95:ab:94:36:a0:cc:72:0f:1e:
         fb:a7:7a:3a:ad:11:12:0b:ea:f3:33:d4:5b:a6:ea:f7:fe:8a:
         84:d3:21:58:bc:7e:7a:7f:ef:ef:51:d1:f6:42:13:05:f0:e2:
         96:c6:7a:33:d0:44:55:10:e3:e1:3c:a7:1a:5a:29:26:a7:5b:
         96:63:29:93:9e:b6:81:52:72:96:76:a2:db:4e:a2:db:6f:4e:
         d4:55:91:de:a7:03:38:66:a1:a6:ff:b7:ec:be:96:b9:3e:df:
         a8:bd:1b:d9:ea:a5:c0:cf:00:ef:64:7c:06:38:1c:73:4c:4a:
         7c:1c:e1:b9:17:fe:e4:4b:6a:da:82:20:dc:1f:92:62:b8:a3:
         bf:da:63:3a:55:7d:0e:94:c0:96:b3:0d:e1:8e:bb:ee:70:db:
         58:e6:88:ad:9c:dd:a7:cd:63:39:ec:a0:54:82:20:47:2e:a1:
         b2:69:b5:9b:a4:4d:81:c1:8b:a0:a0:df:67:43:30:d7:c4:25:
         78:f3:29:34:17:34:af:85:87:73:f9:99:3f:5f:64:c4:84:29:
         8d:7e:98:62:79:25:04:9f
-----BEGIN CERTIFICATE-----
MIIFsTCCA5mgAwIBAgIBCTANBgkqhkiG9w0BAQUFADBqMQswCQYDVQQGEwJSUzEP
MA0GA1UECAwGU2VyYmlhMREwDwYDVQQHDAhCZWxncmFkZTEQMA4GA1UECgwHQ29k
ZVJlZDERMA8GA1UECwwIU2VjdXJpdHkxEjAQBgNVBAMMCUNsaWVudCBDQTAeFw0x
ODAzMzExMjMwMzVaFw0xOTAzMzExMjMwMzVaMDkxETAPBgNVBAoMCENvZGUgUmVk
MREwDwYDVQQLDAhTZWN1cml0eTERMA8GA1UEAwwIdXNlcm5hbWUwggIiMA0GCSqG
SIb3DQEBAQUAA4ICDwAwggIKAoICAQDPraUOi/fmT+NH8du6IehtNmb8si0Zs4AS
hN+oUoOrwwoyth30PZwcyF0OmeWR0P+kNKVMu+UKJyQwqdrchKhikdOsthn+yR/I
JDe3vG8QBmZgBHYHHmsrhkRCQ3tYKDgbW/FA06a8QvmUYKFbJdNFO1z5zOO01HC/
jltv+G1JLPCAd8n4OrbiZPbWT+gZj1DDqhokFw+yN352SzEFUMDaIizTB1Y9Y8/w
0JDB/kW+9lQ/jZBdkXaI3fISNM+FbEJ9F7nsXoIum4yi/sqJzPlUKNXg30rr4rCV
gKzOhtRo7ey8bQnhtWZ7nW0zMOALA5hz/wCKab8xkPqRVFFN8e3KsHmrX7hicLnn
pqkUdeoc0XRQEGzSb7o5OJs2aBbc9+Qv9+rC/YviG4rUvejjRinrU7UJf7BixYHO
EHgLPGkxR3a7wUOGqloePh+sCIAvnTFLvtW9qlrs85xzzO0VRMVRrj3ZuESrOpvM
6ZUt6YpxmduJoOyaaTKCxouTKk81QRjOz7iesMtYepMIkuW4Dyx7Kk1e3lJEzdH3
oYXbkPtZiylRrFwHnOodtvQUUTqPNabtC8ki2aEr1R0ufqDrNupquMcZVHjjZAHg
G1SFbN12z9aKw9ACcdKRIg66ZgBuSwDPZd6mCR4z2G0DccGTH9l57Depv8N8Dkpo
ABuVlamC7wIDAQABo4GSMIGPMA4GA1UdDwEB/wQEAwIFoDAJBgNVHRMEAjAAMBMG
A1UdJQQMMAoGCCsGAQUFBwMCMB0GA1UdDgQWBBTGnvkaVRomw+V2xbtAslgXdebq
ejAfBgNVHSMEGDAWgBRATtt/gnp9wpfK5o4gBHm+9+vKtzAdBgNVHREEFjAUgRJw
cm92aWRlZEBlbWFpbC5jb20wDQYJKoZIhvcNAQEFBQADggIBAFrdyGdgMd0BXvOB
+9YITJjU03+0Nl+D4kVSG567E3loTmbEK8f2U2y+jFcYKcy0deecKQqrs26pxbgx
Y3ZRwRUj7zhPQ411tU6PNu02spIE4DilRdO9yYM/yZdWm83ifvakwIVv/cICWegd
x+dqjPcjHEcWP2MG2wifh/CD2Rj7dB3uStHNwfTX4wEqhBGwOpn/g/r7TDHfCHuQ
PWTe9ViSAKJG6TBugadHvbpYV7JRI9c/73piHCrMKFvX4XujzmthBOXHZRJaptKU
0hSY39jtIKLS/8bhHdumcWWNnUjLxfYuhp1y5zEu1XIwgJwqVhsdYuBAeju0Sdjq
7GxGmecyA1/drGKtWJNfai9ekldBG5ot1j16uUE09cN0keSSDR7Xdsq8F3Aj6ZWr
lDagzHIPHvunejqtERIL6vMz1Fum6vf+ioTTIVi8fnp/7+9R0fZCEwXw4pbGejPQ
RFUQ4+E8pxpaKSanW5ZjKZOetoFScpZ2ottOottvTtRVkd6nAzhmoab/t+y+lrk+
36i9G9nqpcDPAO9kfAY4HHNMSnwc4bkX/uRLatqCINwfkmK4o7/aYzpVfQ6UwJaz
DeGOu+5w21jmiK2c3afNYznsoFSCIEcuobJptZukTYHBi6Cg32dDMNfEJXjzKTQX
NK+Fh3P5mT9fZMSEKY1+mGJ5JQSf
-----END CERTIFICATE-----
