Certificate:
    Data:
        Version: 3 (0x2)
        Serial Number: 8 (0x8)
    Signature Algorithm: sha1WithRSAEncryption
        Issuer: C=RS, ST=Serbia, L=Belgrade, O=CodeRed, OU=Security, CN=Client CA
        Validity
            Not Before: Mar 31 12:26:14 2018 GMT
            Not After : Mar 31 12:26:14 2019 GMT
        Subject: O=Code Red, OU=Security, CN=username
        Subject Public Key Info:
            Public Key Algorithm: rsaEncryption
                Public-Key: (4096 bit)
                Modulus:
                    00:d9:e2:3c:f5:a0:2f:e9:fa:3f:0d:33:3f:c9:d1:
                    ea:d6:67:1b:51:92:36:63:65:c0:d0:5f:68:31:b3:
                    f4:6d:26:a4:8e:77:50:11:86:a1:9d:3e:85:16:7b:
                    9d:2d:e5:96:cd:0b:bb:a4:b0:9d:98:0c:c8:b9:2c:
                    59:7f:99:65:a2:6b:41:ed:1b:2d:93:8a:7c:d9:12:
                    85:5a:88:27:f8:17:1e:e4:30:3d:31:0b:83:8a:0c:
                    f8:5e:97:48:a4:2c:dc:3d:bd:e0:df:48:eb:6c:d6:
                    4a:fb:a6:14:d0:82:33:e0:4e:48:3b:be:ef:9a:c7:
                    9e:02:4b:82:25:1b:07:6b:14:af:3d:37:8d:57:7a:
                    f9:51:61:55:78:29:e9:55:19:bd:80:30:95:d2:31:
                    f5:2f:4a:85:63:35:3d:ba:d8:1e:8e:2b:b3:17:6e:
                    09:5f:f9:6a:10:fc:3c:4b:51:cc:a9:45:ca:3e:75:
                    e9:3c:e8:fe:d1:24:0b:23:1f:c1:6e:a9:af:21:0f:
                    bd:41:94:78:cd:c0:8d:16:b4:39:4b:e8:a3:92:bf:
                    33:56:1f:fe:93:4f:86:09:fb:08:43:63:ba:ee:ac:
                    c2:6f:30:06:15:87:79:85:ee:30:b2:75:00:18:73:
                    6d:9f:af:e0:1d:4f:bc:0e:0d:c0:36:08:b8:8c:44:
                    f5:05:4e:2d:cc:37:a8:f5:b7:36:e1:56:3d:3a:d7:
                    77:f0:da:25:4c:62:e6:25:34:b7:b1:0e:56:df:f8:
                    7a:05:78:9a:74:58:ed:4b:a6:65:4f:92:77:2a:da:
                    d8:ce:ea:ff:9c:eb:d8:ab:7d:6c:34:a2:a5:03:11:
                    0f:96:f4:99:b8:f1:dd:9b:0c:b9:06:a8:ec:de:75:
                    a0:aa:07:4c:df:16:a8:58:3f:8b:f5:17:46:c6:68:
                    9c:cd:94:09:14:01:e6:92:f0:03:af:7b:ee:d0:d9:
                    9f:be:2a:9d:61:8a:1b:21:f9:1a:6c:09:05:50:38:
                    32:31:a1:3d:3f:b9:fa:06:d5:aa:e7:c6:be:77:1e:
                    7d:d1:64:5c:b7:52:c4:5f:16:34:a6:51:43:69:d9:
                    06:a5:aa:98:e5:40:10:ad:a9:f1:43:c5:89:76:6b:
                    ee:e0:71:55:09:d4:69:55:19:04:65:88:71:58:e4:
                    ff:f7:af:f0:a1:13:3b:32:d2:98:82:c3:50:11:6d:
                    7a:99:c4:ba:e5:21:62:03:f0:3a:c6:1e:53:6c:98:
                    61:4a:d2:78:f0:4c:fa:3c:d2:e0:0d:7d:af:71:4a:
                    0c:73:b8:44:69:2d:33:c8:9d:cd:2a:db:74:98:1f:
                    08:04:cf:7d:67:0b:28:ef:ae:f9:fc:75:6d:c3:37:
                    d4:df:5b
                Exponent: 65537 (0x10001)
        X509v3 extensions:
            X509v3 Key Usage: critical
                Digital Signature, Key Encipherment
            X509v3 Basic Constraints: 
                CA:FALSE
            X509v3 Extended Key Usage: 
                TLS Web Client Authentication
            X509v3 Subject Key Identifier: 
                B2:1D:A6:1B:A8:79:04:66:4D:71:B6:9D:79:34:34:AE:C6:96:C7:BB
            X509v3 Authority Key Identifier: 
                keyid:40:4E:DB:7F:82:7A:7D:C2:97:CA:E6:8E:20:04:79:BE:F7:EB:CA:B7

            X509v3 Subject Alternative Name: 
                email:provided@email.com
    Signature Algorithm: sha1WithRSAEncryption
         3c:af:b9:5d:4e:cd:fb:dd:d4:28:a5:d2:80:48:74:9b:ae:d7:
         12:08:f0:fa:7f:81:66:52:8a:f4:53:6e:84:bc:03:a2:89:cf:
         b2:bb:d0:13:13:98:5e:67:06:cb:39:39:29:9e:82:d6:dc:fd:
         91:fe:4e:36:8c:8b:54:c6:17:ff:e2:f7:c0:ba:f2:70:bc:42:
         ab:68:24:e3:a0:a9:1c:8a:34:f7:64:ed:e5:e3:6d:63:b6:f7:
         e8:e1:13:e5:38:f0:ef:30:85:54:ff:05:69:4d:7b:53:a0:45:
         11:73:4b:3e:3b:44:30:12:f2:3e:47:0c:3c:d5:90:97:c6:5e:
         9b:1a:3c:9b:4b:f2:c5:d6:dd:dd:16:ef:9e:e5:45:96:20:82:
         1c:1f:55:af:ff:12:fb:1a:da:6a:8e:ac:2d:2c:a3:3b:be:7f:
         8c:88:9a:9f:2b:50:ec:4b:a0:ca:f4:e9:bc:c0:db:44:4c:d7:
         c0:5f:86:ac:42:99:0e:5a:66:2a:a2:49:2e:46:e5:97:19:f2:
         00:b3:77:40:99:f9:26:44:79:5b:9c:fa:85:b4:ba:a2:b2:54:
         40:01:ef:93:f3:8c:b7:b6:a8:9d:97:34:ce:ee:a8:79:d0:a8:
         82:fd:02:27:c0:ea:30:1d:6a:cc:00:c6:5b:0d:bf:1b:cd:5d:
         bf:0e:ba:d4:da:31:2e:6f:c2:f1:c8:54:c6:73:ef:7e:75:74:
         ba:79:4a:74:da:33:0c:43:d6:38:85:f5:a4:11:96:44:b3:b1:
         67:c2:9c:d7:e8:e1:fb:b5:6b:12:8b:68:44:b2:4d:46:69:32:
         bb:70:81:68:99:4c:4a:d6:df:cc:7a:02:2e:15:63:c8:fb:c9:
         5c:b8:9c:cb:c6:8e:89:ac:e2:71:cd:32:9f:34:5a:fd:07:40:
         3f:ee:e6:b5:52:a8:68:69:7c:44:fc:42:55:3e:09:56:2c:45:
         ad:a0:af:53:71:17:3e:c9:9a:54:1e:c5:29:9a:c1:ea:03:b0:
         10:a2:04:74:06:fa:10:0c:1e:6a:ba:cf:27:91:db:bd:10:3b:
         6e:d0:89:be:5f:67:0d:30:37:3c:74:a8:41:c2:9c:86:1d:24:
         41:d7:1c:b8:51:1c:f8:99:e3:76:2a:51:b8:ae:54:f0:15:bc:
         c5:22:55:60:6b:88:8d:97:ba:c0:6a:d1:b3:16:88:f1:29:76:
         23:85:6a:c9:f9:49:9d:1d:2d:83:11:bc:fb:97:8d:9d:86:50:
         bb:9b:29:0d:f0:d6:1b:c3:2d:9a:21:ad:75:10:84:2f:4e:4d:
         3f:5a:4b:e5:d8:70:08:ad:50:4f:c4:8c:61:e3:82:c1:42:1c:
         d0:91:18:71:57:11:45:43
-----BEGIN CERTIFICATE-----
MIIFsTCCA5mgAwIBAgIBCDANBgkqhkiG9w0BAQUFADBqMQswCQYDVQQGEwJSUzEP
MA0GA1UECAwGU2VyYmlhMREwDwYDVQQHDAhCZWxncmFkZTEQMA4GA1UECgwHQ29k
ZVJlZDERMA8GA1UECwwIU2VjdXJpdHkxEjAQBgNVBAMMCUNsaWVudCBDQTAeFw0x
ODAzMzExMjI2MTRaFw0xOTAzMzExMjI2MTRaMDkxETAPBgNVBAoMCENvZGUgUmVk
MREwDwYDVQQLDAhTZWN1cml0eTERMA8GA1UEAwwIdXNlcm5hbWUwggIiMA0GCSqG
SIb3DQEBAQUAA4ICDwAwggIKAoICAQDZ4jz1oC/p+j8NMz/J0erWZxtRkjZjZcDQ
X2gxs/RtJqSOd1ARhqGdPoUWe50t5ZbNC7uksJ2YDMi5LFl/mWWia0HtGy2TinzZ
EoVaiCf4Fx7kMD0xC4OKDPhel0ikLNw9veDfSOts1kr7phTQgjPgTkg7vu+ax54C
S4IlGwdrFK89N41XevlRYVV4KelVGb2AMJXSMfUvSoVjNT262B6OK7MXbglf+WoQ
/DxLUcypRco+dek86P7RJAsjH8Fuqa8hD71BlHjNwI0WtDlL6KOSvzNWH/6TT4YJ
+whDY7rurMJvMAYVh3mF7jCydQAYc22fr+AdT7wODcA2CLiMRPUFTi3MN6j1tzbh
Vj0613fw2iVMYuYlNLexDlbf+HoFeJp0WO1LpmVPkncq2tjO6v+c69irfWw0oqUD
EQ+W9Jm48d2bDLkGqOzedaCqB0zfFqhYP4v1F0bGaJzNlAkUAeaS8AOve+7Q2Z++
Kp1hihsh+RpsCQVQODIxoT0/ufoG1arnxr53Hn3RZFy3UsRfFjSmUUNp2Qalqpjl
QBCtqfFDxYl2a+7gcVUJ1GlVGQRliHFY5P/3r/ChEzsy0piCw1ARbXqZxLrlIWID
8DrGHlNsmGFK0njwTPo80uANfa9xSgxzuERpLTPInc0q23SYHwgEz31nCyjvrvn8
dW3DN9TfWwIDAQABo4GSMIGPMA4GA1UdDwEB/wQEAwIFoDAJBgNVHRMEAjAAMBMG
A1UdJQQMMAoGCCsGAQUFBwMCMB0GA1UdDgQWBBSyHaYbqHkEZk1xtp15NDSuxpbH
uzAfBgNVHSMEGDAWgBRATtt/gnp9wpfK5o4gBHm+9+vKtzAdBgNVHREEFjAUgRJw
cm92aWRlZEBlbWFpbC5jb20wDQYJKoZIhvcNAQEFBQADggIBADyvuV1Ozfvd1Cil
0oBIdJuu1xII8Pp/gWZSivRTboS8A6KJz7K70BMTmF5nBss5OSmegtbc/ZH+TjaM
i1TGF//i98C68nC8QqtoJOOgqRyKNPdk7eXjbWO29+jhE+U48O8whVT/BWlNe1Og
RRFzSz47RDAS8j5HDDzVkJfGXpsaPJtL8sXW3d0W757lRZYgghwfVa//Evsa2mqO
rC0sozu+f4yImp8rUOxLoMr06bzA20RM18BfhqxCmQ5aZiqiSS5G5ZcZ8gCzd0CZ
+SZEeVuc+oW0uqKyVEAB75PzjLe2qJ2XNM7uqHnQqIL9AifA6jAdaswAxlsNvxvN
Xb8OutTaMS5vwvHIVMZz7351dLp5SnTaMwxD1jiF9aQRlkSzsWfCnNfo4fu1axKL
aESyTUZpMrtwgWiZTErW38x6Ai4VY8j7yVy4nMvGjoms4nHNMp80Wv0HQD/u5rVS
qGhpfET8QlU+CVYsRa2gr1NxFz7JmlQexSmaweoDsBCiBHQG+hAMHmq6zyeR270Q
O27Qib5fZw0wNzx0qEHCnIYdJEHXHLhRHPiZ43YqUbiuVPAVvMUiVWBriI2XusBq
0bMWiPEpdiOFasn5SZ0dLYMRvPuXjZ2GULubKQ3w1hvDLZohrXUQhC9OTT9aS+XY
cAitUE/EjGHjgsFCHNCRGHFXEUVD
-----END CERTIFICATE-----
