Certificate:
    Data:
        Version: 3 (0x2)
        Serial Number: 3 (0x3)
    Signature Algorithm: sha1WithRSAEncryption
        Issuer: C=RS, ST=Serbia, L=Belgrade, O=CodeRed, OU=Security, CN=Client CA
        Validity
            Not Before: Mar 31 12:16:06 2018 GMT
            Not After : Mar 31 12:16:06 2019 GMT
        Subject: O=Code Red, OU=Security, CN=username
        Subject Public Key Info:
            Public Key Algorithm: rsaEncryption
                Public-Key: (4096 bit)
                Modulus:
                    00:b5:ba:31:b4:fc:03:a0:77:6a:45:65:56:cd:d3:
                    0d:d4:7b:91:af:76:3c:2c:c9:ca:90:55:5f:84:73:
                    40:ef:45:a3:6c:93:0c:3f:56:cb:a6:9e:e4:29:03:
                    69:ca:89:6a:52:27:f0:02:e8:b4:6d:bf:96:79:8e:
                    ad:9e:08:38:85:4b:5d:84:c9:76:6e:e2:5b:ba:15:
                    f8:b3:af:5c:85:c2:c8:f5:ed:75:2e:53:3b:ef:28:
                    cc:80:1c:15:cf:3b:6e:7c:33:cc:ef:95:fd:4b:26:
                    41:3b:87:93:3e:77:65:3f:43:cd:ae:ef:8f:8f:5d:
                    14:0e:2f:a2:61:c6:fb:bf:42:f6:39:5c:6e:c0:95:
                    b3:70:6f:02:b1:f4:17:46:5e:e8:94:ce:48:b0:7b:
                    06:c6:08:36:6b:6b:59:36:f5:14:54:c8:1b:70:16:
                    ba:74:ff:6a:ee:59:be:2b:2f:93:44:63:de:21:a4:
                    02:8c:b4:db:5f:fc:ff:a2:e4:b4:60:26:18:ef:73:
                    80:b7:3c:b2:53:08:80:c2:8d:c5:74:12:f4:9b:65:
                    b7:6e:ad:9b:2f:65:9a:1f:df:53:b7:54:f2:b4:fd:
                    1f:13:f0:c0:99:24:68:16:23:53:1a:d3:d8:3b:06:
                    e2:9e:06:6b:15:ad:1a:c2:07:09:a3:0b:66:8c:53:
                    b3:0f:98:bc:ce:ba:03:3d:92:6a:7a:c1:5c:82:83:
                    9f:e1:46:20:a3:72:49:f5:3b:f6:03:22:84:1d:60:
                    07:a0:a5:b2:f4:5a:c8:c2:88:ab:d1:27:90:e1:10:
                    4e:2d:6d:4d:84:8c:93:11:dc:ec:4f:08:cf:61:13:
                    4b:e0:51:23:dd:d4:75:af:9f:7c:55:ce:9e:cc:67:
                    ce:ba:a7:9b:fa:1a:98:d7:c4:09:c8:21:8f:d6:67:
                    ad:6e:b0:15:94:df:36:e3:39:5e:74:56:bb:de:e7:
                    7a:02:96:b0:73:7b:82:29:12:03:d2:49:88:eb:03:
                    b5:fa:da:59:9f:3d:37:52:d4:44:74:49:9f:38:c4:
                    2a:df:a7:11:69:5e:ac:e1:7e:97:97:99:ab:d7:39:
                    e3:62:bc:3f:a4:5b:ed:a4:c2:5b:27:5f:4c:d7:21:
                    bd:99:c7:4a:49:0c:0d:af:c6:60:dc:8a:3f:b9:52:
                    1a:ba:29:dc:68:cb:8f:bc:09:3b:1f:0f:a5:fd:fd:
                    e4:04:b2:17:4d:e7:21:2f:3a:8d:8d:fa:4e:3b:ea:
                    bb:42:9b:a8:85:44:21:3c:18:d3:8b:07:29:33:c6:
                    2c:51:4f:f0:db:70:17:65:ad:07:aa:67:0e:a7:ba:
                    2d:c2:ab:0f:86:00:04:d6:d2:d3:9e:21:76:27:52:
                    0e:89:91
                Exponent: 65537 (0x10001)
        X509v3 extensions:
            X509v3 Key Usage: critical
                Digital Signature, Key Encipherment
            X509v3 Basic Constraints: 
                CA:FALSE
            X509v3 Extended Key Usage: 
                TLS Web Client Authentication
            X509v3 Subject Key Identifier: 
                BE:17:93:19:C9:71:D8:77:D9:A4:72:B5:23:4D:B3:E4:78:76:C2:32
            X509v3 Authority Key Identifier: 
                keyid:40:4E:DB:7F:82:7A:7D:C2:97:CA:E6:8E:20:04:79:BE:F7:EB:CA:B7

            X509v3 Subject Alternative Name: 
                email:provided@email.com
    Signature Algorithm: sha1WithRSAEncryption
         35:cb:75:de:f0:6b:3a:75:30:89:72:88:30:46:e1:c2:25:f2:
         cb:de:fe:36:3c:f8:df:59:81:ff:fd:38:53:08:a6:ac:78:e7:
         b1:fd:f3:24:8a:df:9c:77:d3:cb:0e:04:c0:4c:c9:87:2f:12:
         35:6c:cd:e6:44:67:f3:b4:0b:70:6e:94:5f:55:43:d1:0c:f8:
         ba:45:d1:da:dc:c9:e1:c3:ad:13:0f:20:3f:f2:da:fa:ff:f5:
         c8:fa:a8:5f:fd:d0:da:09:85:d9:a9:73:7f:7b:f2:e0:b5:c8:
         bd:96:b7:4b:79:91:f9:e1:4f:71:05:fa:14:b2:33:a8:03:bd:
         99:ad:42:07:51:ad:39:75:63:30:07:8f:ab:7c:21:66:ae:06:
         ea:b1:d5:20:ad:54:f7:83:7a:34:1b:a0:94:09:ed:34:52:bc:
         a9:ae:4c:34:8c:95:7d:a2:85:63:f1:22:d5:ef:29:0d:a8:ef:
         01:08:6e:a6:ba:84:60:f2:8a:2e:be:c4:41:45:0f:a0:81:40:
         76:37:16:50:8e:8b:88:8d:2f:e3:47:ab:ab:e9:a8:a3:f6:0b:
         b0:9f:9c:b0:6d:88:8d:34:e3:2c:40:18:af:e0:a3:82:9a:e1:
         6b:88:16:93:cf:a9:87:97:b9:d2:35:95:04:3e:3f:8d:b6:4e:
         15:d9:63:d8:cc:db:28:23:bc:91:73:b1:8b:bf:f5:ea:21:e7:
         2a:8c:e2:3f:8c:79:5a:fa:a8:c3:2c:a0:10:3d:fe:5c:69:b5:
         6d:4c:b9:51:a8:8b:45:06:d9:f5:7d:eb:35:27:c9:f8:01:0b:
         68:18:ac:80:da:8a:19:f8:36:45:48:2d:6b:bf:85:97:1e:54:
         9d:e4:02:55:45:d4:f5:ff:e3:12:f3:fc:56:4a:34:2a:32:de:
         a8:4d:b9:38:d6:df:4b:ae:3f:bd:29:ed:5a:79:3a:5c:33:6f:
         52:57:f5:ab:47:63:d4:b5:8a:11:8a:13:80:6e:3e:92:e1:ba:
         f8:89:db:7d:cd:1f:59:3e:f6:15:e3:a8:5b:62:06:f8:87:b6:
         f5:e0:17:3c:98:47:54:24:65:21:94:50:27:c9:78:7b:b1:de:
         2d:ae:23:1d:cf:29:e5:2d:ff:4e:92:bf:c6:13:fd:bb:65:96:
         e8:64:09:92:bc:94:93:19:b9:4b:0f:90:b1:50:4c:ad:9f:3c:
         fa:7a:5f:cc:be:e0:1f:9a:89:43:78:78:13:71:3d:8a:1d:81:
         4d:05:1f:9e:9c:cb:cd:7a:eb:af:b3:4e:3a:2b:03:89:26:aa:
         76:80:a8:26:05:22:6c:5e:91:c2:3c:8b:26:63:d1:a7:43:dd:
         a3:2d:35:72:4a:1e:3a:23
-----BEGIN CERTIFICATE-----
MIIFsTCCA5mgAwIBAgIBAzANBgkqhkiG9w0BAQUFADBqMQswCQYDVQQGEwJSUzEP
MA0GA1UECAwGU2VyYmlhMREwDwYDVQQHDAhCZWxncmFkZTEQMA4GA1UECgwHQ29k
ZVJlZDERMA8GA1UECwwIU2VjdXJpdHkxEjAQBgNVBAMMCUNsaWVudCBDQTAeFw0x
ODAzMzExMjE2MDZaFw0xOTAzMzExMjE2MDZaMDkxETAPBgNVBAoMCENvZGUgUmVk
MREwDwYDVQQLDAhTZWN1cml0eTERMA8GA1UEAwwIdXNlcm5hbWUwggIiMA0GCSqG
SIb3DQEBAQUAA4ICDwAwggIKAoICAQC1ujG0/AOgd2pFZVbN0w3Ue5GvdjwsycqQ
VV+Ec0DvRaNskww/VsumnuQpA2nKiWpSJ/AC6LRtv5Z5jq2eCDiFS12EyXZu4lu6
Ffizr1yFwsj17XUuUzvvKMyAHBXPO258M8zvlf1LJkE7h5M+d2U/Q82u74+PXRQO
L6Jhxvu/QvY5XG7AlbNwbwKx9BdGXuiUzkiwewbGCDZra1k29RRUyBtwFrp0/2ru
Wb4rL5NEY94hpAKMtNtf/P+i5LRgJhjvc4C3PLJTCIDCjcV0EvSbZbdurZsvZZof
31O3VPK0/R8T8MCZJGgWI1Ma09g7BuKeBmsVrRrCBwmjC2aMU7MPmLzOugM9kmp6
wVyCg5/hRiCjckn1O/YDIoQdYAegpbL0WsjCiKvRJ5DhEE4tbU2EjJMR3OxPCM9h
E0vgUSPd1HWvn3xVzp7MZ866p5v6GpjXxAnIIY/WZ61usBWU3zbjOV50Vrve53oC
lrBze4IpEgPSSYjrA7X62lmfPTdS1ER0SZ84xCrfpxFpXqzhfpeXmavXOeNivD+k
W+2kwlsnX0zXIb2Zx0pJDA2vxmDcij+5Uhq6Kdxoy4+8CTsfD6X9/eQEshdN5yEv
Oo2N+k476rtCm6iFRCE8GNOLBykzxixRT/DbcBdlrQeqZw6nui3Cqw+GAATW0tOe
IXYnUg6JkQIDAQABo4GSMIGPMA4GA1UdDwEB/wQEAwIFoDAJBgNVHRMEAjAAMBMG
A1UdJQQMMAoGCCsGAQUFBwMCMB0GA1UdDgQWBBS+F5MZyXHYd9mkcrUjTbPkeHbC
MjAfBgNVHSMEGDAWgBRATtt/gnp9wpfK5o4gBHm+9+vKtzAdBgNVHREEFjAUgRJw
cm92aWRlZEBlbWFpbC5jb20wDQYJKoZIhvcNAQEFBQADggIBADXLdd7wazp1MIly
iDBG4cIl8sve/jY8+N9Zgf/9OFMIpqx457H98ySK35x308sOBMBMyYcvEjVszeZE
Z/O0C3BulF9VQ9EM+LpF0drcyeHDrRMPID/y2vr/9cj6qF/90NoJhdmpc3978uC1
yL2Wt0t5kfnhT3EF+hSyM6gDvZmtQgdRrTl1YzAHj6t8IWauBuqx1SCtVPeDejQb
oJQJ7TRSvKmuTDSMlX2ihWPxItXvKQ2o7wEIbqa6hGDyii6+xEFFD6CBQHY3FlCO
i4iNL+NHq6vpqKP2C7CfnLBtiI004yxAGK/go4Ka4WuIFpPPqYeXudI1lQQ+P422
ThXZY9jM2ygjvJFzsYu/9eoh5yqM4j+MeVr6qMMsoBA9/lxptW1MuVGoi0UG2fV9
6zUnyfgBC2gYrIDaihn4NkVILWu/hZceVJ3kAlVF1PX/4xLz/FZKNCoy3qhNuTjW
30uuP70p7Vp5Olwzb1JX9atHY9S1ihGKE4BuPpLhuviJ233NH1k+9hXjqFtiBviH
tvXgFzyYR1QkZSGUUCfJeHux3i2uIx3PKeUt/06Sv8YT/btlluhkCZK8lJMZuUsP
kLFQTK2fPPp6X8y+4B+aiUN4eBNxPYodgU0FH56cy81666+zTjorA4kmqnaAqCYF
ImxekcI8iyZj0adD3aMtNXJKHjoj
-----END CERTIFICATE-----
