Certificate:
    Data:
        Version: 3 (0x2)
        Serial Number: 87 (0x57)
    Signature Algorithm: sha1WithRSAEncryption
        Issuer: C=RS, ST=Serbia, L=Belgrade, O=CodeRed, OU=Security, CN=Client CA
        Validity
            Not Before: Aug 18 20:10:12 2018 GMT
            Not After : Aug 18 20:10:12 2019 GMT
        Subject: O=Code Red, OU=Security, CN=username
        Subject Public Key Info:
            Public Key Algorithm: rsaEncryption
                Public-Key: (4096 bit)
                Modulus:
                    00:eb:41:3e:ce:3f:7c:d1:2e:d3:60:ce:d6:81:a5:
                    16:47:da:94:c6:93:1f:af:e2:fe:68:2a:ab:5c:fa:
                    d6:9e:3a:57:06:01:a2:ca:0a:83:ef:2b:a3:34:1b:
                    ec:05:ec:0a:a7:66:07:b4:ae:ea:7a:3d:0b:87:6a:
                    f3:1f:a7:3a:93:87:74:86:b2:81:2b:48:eb:bb:4d:
                    7a:df:d4:69:54:50:bc:e9:4b:d1:f5:6d:d3:ee:2d:
                    21:8d:8b:38:d0:fb:36:3e:4d:3a:df:b6:9d:85:e7:
                    f1:8b:7b:c6:32:92:58:1b:c8:73:08:09:47:24:61:
                    21:a3:61:88:da:34:5a:89:3c:b8:af:a8:46:bd:f9:
                    fb:74:85:cf:a6:c1:ae:42:fa:83:23:c4:67:fb:c2:
                    ef:ab:d0:c2:37:5f:d6:c4:7a:63:cd:28:36:34:12:
                    eb:50:01:16:eb:33:58:4f:fc:7a:ed:c2:82:ca:9a:
                    9d:e7:cd:03:e0:9e:19:35:76:a0:a5:98:98:c7:e5:
                    4f:fb:75:f2:13:3a:7f:a8:6f:6d:b3:5b:75:26:32:
                    ef:fb:10:59:6b:e4:da:73:47:ca:65:3b:92:fb:9b:
                    42:15:a4:da:12:2e:4d:f0:9e:63:07:3b:55:da:3e:
                    56:0d:6d:b8:3c:6e:c5:d2:7a:15:18:ed:4e:65:45:
                    35:a7:80:6f:4b:91:08:90:71:46:00:3c:4a:2d:ab:
                    fc:9b:1b:99:2e:62:f7:9c:43:ea:81:8e:56:a8:f5:
                    4e:db:24:f3:f9:6d:35:15:f0:19:18:05:bc:ca:f4:
                    20:62:24:a8:67:74:06:47:02:da:20:8a:46:f3:65:
                    73:9c:a5:53:a3:a1:33:9b:bf:0e:71:d8:19:74:03:
                    77:1b:97:ad:07:0f:75:c6:ce:25:de:9a:a8:00:43:
                    76:a6:7f:3a:c6:95:5c:c8:bf:09:71:8e:7b:3d:28:
                    09:03:33:19:dc:f2:dc:fc:63:df:ae:e6:76:3b:14:
                    aa:79:f9:ed:65:85:70:61:83:91:1d:8f:61:d1:74:
                    e9:62:fe:d7:c7:9a:c4:58:5b:9d:f7:ef:0f:ba:79:
                    70:f0:47:64:7e:0a:7c:86:2f:ed:de:b5:9c:4d:d9:
                    a9:18:0f:bc:54:5f:ca:41:d6:69:2e:ea:81:31:38:
                    71:76:1c:bf:82:70:49:97:2e:88:d6:87:0a:23:12:
                    07:32:b8:4d:fd:e3:ef:b6:6e:1f:ab:f4:b1:6d:8c:
                    19:03:7a:91:84:b0:bb:53:16:87:41:24:b1:af:95:
                    2c:35:d9:b5:45:f9:fe:ac:75:c1:3c:9d:b4:81:11:
                    31:0a:a6:8f:76:63:8e:af:cf:16:e0:d1:55:5a:8e:
                    56:21:b7
                Exponent: 65537 (0x10001)
        X509v3 extensions:
            X509v3 Key Usage: critical
                Digital Signature, Key Encipherment
            X509v3 Basic Constraints: 
                CA:FALSE
            X509v3 Extended Key Usage: 
                TLS Web Client Authentication
            X509v3 Subject Key Identifier: 
                54:E4:36:BB:17:47:D9:DD:D5:43:0D:9D:0F:8B:84:28:46:72:B6:E0
            X509v3 Authority Key Identifier: 
                keyid:40:4E:DB:7F:82:7A:7D:C2:97:CA:E6:8E:20:04:79:BE:F7:EB:CA:B7

            X509v3 Subject Alternative Name: 
                email:provided@email.com
    Signature Algorithm: sha1WithRSAEncryption
         69:25:5d:42:1a:30:ac:7a:a7:58:7d:6d:07:28:c7:e0:46:f1:
         4c:0d:50:b8:5a:ee:59:c2:d3:f4:4f:ed:79:00:a3:26:1e:ff:
         0e:d4:cf:20:95:e4:e9:b5:8c:90:d7:8b:76:b9:92:41:97:45:
         44:8f:df:dc:50:5e:a4:b4:3d:c8:70:4f:d4:00:ef:81:fd:e7:
         4a:6c:dc:ff:3b:68:44:ed:df:1c:00:ca:f8:e9:3f:dc:8f:27:
         d9:60:44:23:12:1e:51:09:5a:8d:e2:f9:5d:a7:4e:d9:5a:34:
         b1:7d:d2:39:89:44:2a:63:94:07:65:33:5a:c9:24:71:a5:01:
         de:ec:a6:bc:4f:3e:e4:ad:a4:5d:ce:09:b5:e5:11:72:c1:91:
         8b:80:1c:cc:16:42:4e:62:5b:e9:0e:c3:6c:dd:0e:15:e0:05:
         ee:2c:47:a0:75:38:9b:80:7b:42:ce:ff:5b:c8:a5:6e:66:5f:
         7c:62:52:5a:89:eb:8c:1e:f5:1f:88:b6:9f:c3:74:34:7a:77:
         c5:ab:4f:fc:6d:72:54:92:53:de:4a:c1:7f:5c:e6:c7:a3:26:
         b9:f2:70:29:26:af:16:66:d6:52:1c:27:92:64:f2:b3:d4:71:
         a0:ac:20:9a:02:c5:90:15:53:2a:fd:a1:a5:4d:e6:e0:4f:42:
         4e:76:fe:cd:de:ca:c2:6d:f2:f1:0e:e4:cf:81:27:a4:84:61:
         61:c1:72:2f:7a:68:ca:a9:bf:da:18:af:3d:af:3a:ca:a0:bc:
         31:3f:55:0b:37:5d:59:8d:89:7c:1e:3e:11:c1:75:ee:09:51:
         b7:65:c1:0f:39:00:da:8d:1a:56:63:16:84:1c:62:f7:97:b2:
         bd:b0:07:f5:95:45:ef:39:64:b8:b7:4d:28:cc:04:9b:5f:e8:
         f0:13:79:15:d8:f1:bc:1a:c9:56:40:84:5e:37:6f:89:c0:f0:
         81:9e:19:c9:e5:45:b0:4c:16:a6:a3:21:48:ce:b6:5f:c2:9b:
         c7:ff:60:44:e4:c6:2c:06:fa:57:3b:01:c4:da:16:e6:d7:9b:
         a3:38:9b:b6:26:d7:11:c5:78:12:e6:d9:54:02:c1:01:81:e0:
         de:f3:a1:ce:5b:b6:b8:e8:44:bb:ef:3c:e0:7e:39:b0:72:e2:
         aa:d1:0a:70:aa:f3:66:cc:9e:a2:2e:b5:50:56:d8:0c:da:8d:
         6f:ec:c1:12:28:47:b7:76:6a:74:80:95:8c:e2:57:e0:92:4b:
         c4:0c:4c:1a:cd:b4:e5:b4:88:65:fe:d6:23:e3:c7:31:9d:bb:
         b2:6b:6f:0b:16:9c:fe:43:b7:72:04:a2:e0:b0:64:23:f5:2d:
         6b:2f:6d:9e:23:a8:c3:5a
-----BEGIN CERTIFICATE-----
MIIFsTCCA5mgAwIBAgIBVzANBgkqhkiG9w0BAQUFADBqMQswCQYDVQQGEwJSUzEP
MA0GA1UECAwGU2VyYmlhMREwDwYDVQQHDAhCZWxncmFkZTEQMA4GA1UECgwHQ29k
ZVJlZDERMA8GA1UECwwIU2VjdXJpdHkxEjAQBgNVBAMMCUNsaWVudCBDQTAeFw0x
ODA4MTgyMDEwMTJaFw0xOTA4MTgyMDEwMTJaMDkxETAPBgNVBAoMCENvZGUgUmVk
MREwDwYDVQQLDAhTZWN1cml0eTERMA8GA1UEAwwIdXNlcm5hbWUwggIiMA0GCSqG
SIb3DQEBAQUAA4ICDwAwggIKAoICAQDrQT7OP3zRLtNgztaBpRZH2pTGkx+v4v5o
Kqtc+taeOlcGAaLKCoPvK6M0G+wF7AqnZge0rup6PQuHavMfpzqTh3SGsoErSOu7
TXrf1GlUULzpS9H1bdPuLSGNizjQ+zY+TTrftp2F5/GLe8YyklgbyHMICUckYSGj
YYjaNFqJPLivqEa9+ft0hc+mwa5C+oMjxGf7wu+r0MI3X9bEemPNKDY0EutQARbr
M1hP/HrtwoLKmp3nzQPgnhk1dqClmJjH5U/7dfITOn+ob22zW3UmMu/7EFlr5Npz
R8plO5L7m0IVpNoSLk3wnmMHO1XaPlYNbbg8bsXSehUY7U5lRTWngG9LkQiQcUYA
PEotq/ybG5kuYvecQ+qBjlao9U7bJPP5bTUV8BkYBbzK9CBiJKhndAZHAtogikbz
ZXOcpVOjoTObvw5x2Bl0A3cbl60HD3XGziXemqgAQ3amfzrGlVzIvwlxjns9KAkD
Mxnc8tz8Y9+u5nY7FKp5+e1lhXBhg5Edj2HRdOli/tfHmsRYW5337w+6eXDwR2R+
CnyGL+3etZxN2akYD7xUX8pB1mku6oExOHF2HL+CcEmXLojWhwojEgcyuE394++2
bh+r9LFtjBkDepGEsLtTFodBJLGvlSw12bVF+f6sdcE8nbSBETEKpo92Y46vzxbg
0VVajlYhtwIDAQABo4GSMIGPMA4GA1UdDwEB/wQEAwIFoDAJBgNVHRMEAjAAMBMG
A1UdJQQMMAoGCCsGAQUFBwMCMB0GA1UdDgQWBBRU5Da7F0fZ3dVDDZ0Pi4QoRnK2
4DAfBgNVHSMEGDAWgBRATtt/gnp9wpfK5o4gBHm+9+vKtzAdBgNVHREEFjAUgRJw
cm92aWRlZEBlbWFpbC5jb20wDQYJKoZIhvcNAQEFBQADggIBAGklXUIaMKx6p1h9
bQcox+BG8UwNULha7lnC0/RP7XkAoyYe/w7UzyCV5Om1jJDXi3a5kkGXRUSP39xQ
XqS0PchwT9QA74H950ps3P87aETt3xwAyvjpP9yPJ9lgRCMSHlEJWo3i+V2nTtla
NLF90jmJRCpjlAdlM1rJJHGlAd7sprxPPuStpF3OCbXlEXLBkYuAHMwWQk5iW+kO
w2zdDhXgBe4sR6B1OJuAe0LO/1vIpW5mX3xiUlqJ64we9R+Itp/DdDR6d8WrT/xt
clSSU95KwX9c5sejJrnycCkmrxZm1lIcJ5Jk8rPUcaCsIJoCxZAVUyr9oaVN5uBP
Qk52/s3eysJt8vEO5M+BJ6SEYWHBci96aMqpv9oYrz2vOsqgvDE/VQs3XVmNiXwe
PhHBde4JUbdlwQ85ANqNGlZjFoQcYveXsr2wB/WVRe85ZLi3TSjMBJtf6PATeRXY
8bwayVZAhF43b4nA8IGeGcnlRbBMFqajIUjOtl/Cm8f/YETkxiwG+lc7AcTaFubX
m6M4m7Ym1xHFeBLm2VQCwQGB4N7zoc5btrjoRLvvPOB+ObBy4qrRCnCq82bMnqIu
tVBW2AzajW/swRIoR7d2anSAlYziV+CSS8QMTBrNtOW0iGX+1iPjxzGdu7JrbwsW
nP5Dt3IEouCwZCP1LWsvbZ4jqMNa
-----END CERTIFICATE-----
